ARM GAS  /tmp/ccz56Q5C.s 			page 1


   1              		.cpu cortex-m3
   2              		.eabi_attribute 20, 1
   3              		.eabi_attribute 21, 1
   4              		.eabi_attribute 23, 3
   5              		.eabi_attribute 24, 1
   6              		.eabi_attribute 25, 1
   7              		.eabi_attribute 26, 1
   8              		.eabi_attribute 30, 2
   9              		.eabi_attribute 34, 1
  10              		.eabi_attribute 18, 4
  11              		.file	"encoders.c"
  12              		.text
  13              	.Ltext0:
  14              		.cfi_sections	.debug_frame
  15              		.section	.text.EncoderProcess,"ax",%progbits
  16              		.align	1
  17              		.p2align 2,,3
  18              		.global	EncoderProcess
  19              		.arch armv7-m
  20              		.syntax unified
  21              		.thumb
  22              		.thumb_func
  23              		.fpu softvfp
  25              	EncoderProcess:
  26              	.LVL0:
  27              	.LFB30:
  28              		.file 1 "../application/Src/encoders.c"
   1:../application/Src/encoders.c **** /**
   2:../application/Src/encoders.c ****   ******************************************************************************
   3:../application/Src/encoders.c ****   * @file           : encoders.c
   4:../application/Src/encoders.c ****   * @brief          : Encoders driver implementation
   5:../application/Src/encoders.c **** 		
   6:../application/Src/encoders.c **** 		FreeJoy software for game device controllers
   7:../application/Src/encoders.c ****     Copyright (C) 2020  Yury Vostrenkov (yuvostrenkov@gmail.com)
   8:../application/Src/encoders.c **** 
   9:../application/Src/encoders.c ****     This program is free software: you can redistribute it and/or modify
  10:../application/Src/encoders.c ****     it under the terms of the GNU General Public License as published by
  11:../application/Src/encoders.c ****     the Free Software Foundation, either version 3 of the License, or
  12:../application/Src/encoders.c ****     (at your option) any later version.
  13:../application/Src/encoders.c **** 
  14:../application/Src/encoders.c ****     This program is distributed in the hope that it will be useful,
  15:../application/Src/encoders.c ****     but WITHOUT ANY WARRANTY; without even the implied warranty of
  16:../application/Src/encoders.c ****     MERCHANTABILITY or FITNESS FOR A PARTICULAR PURPOSE.  See the
  17:../application/Src/encoders.c ****     GNU General Public License for more details.
  18:../application/Src/encoders.c **** 
  19:../application/Src/encoders.c ****     You should have received a copy of the GNU General Public License
  20:../application/Src/encoders.c ****     along with this program.  If not, see <https://www.gnu.org/licenses/>.
  21:../application/Src/encoders.c **** 		
  22:../application/Src/encoders.c ****   ******************************************************************************
  23:../application/Src/encoders.c ****   */
  24:../application/Src/encoders.c **** 
  25:../application/Src/encoders.c **** #include "encoders.h"
  26:../application/Src/encoders.c **** 
  27:../application/Src/encoders.c **** 
  28:../application/Src/encoders.c **** int8_t enc_array_1 [16] =
  29:../application/Src/encoders.c **** {
  30:../application/Src/encoders.c **** 	0,  0,  0,  0,
ARM GAS  /tmp/ccz56Q5C.s 			page 2


  31:../application/Src/encoders.c **** 	-1,  0,  0,  0,
  32:../application/Src/encoders.c **** 	1,  0,  0,  0,
  33:../application/Src/encoders.c **** 	0,  0,  0,  0
  34:../application/Src/encoders.c **** };
  35:../application/Src/encoders.c **** 
  36:../application/Src/encoders.c **** int8_t enc_array_2 [16] =
  37:../application/Src/encoders.c **** {
  38:../application/Src/encoders.c **** 	0,  0,  0,  0,
  39:../application/Src/encoders.c **** 	-1,  0,  0,  1,
  40:../application/Src/encoders.c **** 	1,  0,  0, -1,
  41:../application/Src/encoders.c **** 	0,  0,  0,  0
  42:../application/Src/encoders.c **** };
  43:../application/Src/encoders.c **** 
  44:../application/Src/encoders.c **** int8_t enc_array_4 [16] =
  45:../application/Src/encoders.c **** {
  46:../application/Src/encoders.c **** 	0,  1, -1,  0,
  47:../application/Src/encoders.c **** 	-1,  0,  0,  1,
  48:../application/Src/encoders.c **** 	1,  0,  0, -1,
  49:../application/Src/encoders.c **** 	0, -1,  1,  0
  50:../application/Src/encoders.c **** };
  51:../application/Src/encoders.c **** 
  52:../application/Src/encoders.c **** encoder_state_t encoders_state[MAX_ENCODERS_NUM];
  53:../application/Src/encoders.c **** 
  54:../application/Src/encoders.c **** static void EncoderFastInit(dev_config_t * p_dev_config)
  55:../application/Src/encoders.c **** {
  56:../application/Src/encoders.c **** 	TIM_TimeBaseInitTypeDef TIM_TimeBaseInitStructure;	
  57:../application/Src/encoders.c **** 	RCC_ClocksTypeDef RCC_Clocks;
  58:../application/Src/encoders.c **** 	
  59:../application/Src/encoders.c **** 	RCC_GetClocksFreq(&RCC_Clocks);
  60:../application/Src/encoders.c **** 	
  61:../application/Src/encoders.c **** 	// Encoder timer
  62:../application/Src/encoders.c **** 	RCC_APB2PeriphClockCmd(RCC_APB2Periph_TIM1, ENABLE);		
  63:../application/Src/encoders.c **** 	//TIM_TimeBaseStructInit(&TIM_TimeBaseInitStructure);	
  64:../application/Src/encoders.c **** 	TIM_TimeBaseInitStructure.TIM_Prescaler = 0;
  65:../application/Src/encoders.c **** 	TIM_TimeBaseInitStructure.TIM_Period = 65535;
  66:../application/Src/encoders.c **** 	TIM_TimeBaseInitStructure.TIM_ClockDivision = 0;
  67:../application/Src/encoders.c **** 	TIM_TimeBaseInitStructure.TIM_CounterMode = TIM_CounterMode_Up | TIM_CounterMode_Down;
  68:../application/Src/encoders.c **** 	TIM_TimeBaseInit(TIM1, &TIM_TimeBaseInitStructure);
  69:../application/Src/encoders.c **** 	
  70:../application/Src/encoders.c **** 	switch (p_dev_config->encoders[0])
  71:../application/Src/encoders.c **** 	{
  72:../application/Src/encoders.c **** 		default:	
  73:../application/Src/encoders.c **** 		case ENCODER_CONF_2x:
  74:../application/Src/encoders.c **** 			TIM_EncoderInterfaceConfig(TIM1, TIM_EncoderMode_TI1, TIM_ICPolarity_Falling, TIM_ICPolarity_Fal
  75:../application/Src/encoders.c **** 			break;
  76:../application/Src/encoders.c **** 		
  77:../application/Src/encoders.c **** 		case ENCODER_CONF_4x:
  78:../application/Src/encoders.c **** 			TIM_EncoderInterfaceConfig(TIM1, TIM_EncoderMode_TI12, TIM_ICPolarity_Falling, TIM_ICPolarity_Fa
  79:../application/Src/encoders.c **** 			break;
  80:../application/Src/encoders.c **** 	}
  81:../application/Src/encoders.c **** 	
  82:../application/Src/encoders.c **** 	TIM1->CNT = 0;
  83:../application/Src/encoders.c **** 	TIM_Cmd(TIM1, ENABLE);
  84:../application/Src/encoders.c **** }
  85:../application/Src/encoders.c **** 
  86:../application/Src/encoders.c **** void EncoderProcess (logical_buttons_state_t * button_state_buf, dev_config_t * p_dev_config)
  87:../application/Src/encoders.c **** {	
ARM GAS  /tmp/ccz56Q5C.s 			page 3


  29              		.loc 1 87 1 view -0
  30              		.cfi_startproc
  31              		@ args = 0, pretend = 0, frame = 184
  32              		@ frame_needed = 0, uses_anonymous_args = 0
  88:../application/Src/encoders.c **** 	
  89:../application/Src/encoders.c **** 	uint8_t encoders_present = 0;
  33              		.loc 1 89 2 view .LVU1
  90:../application/Src/encoders.c **** 	
  91:../application/Src/encoders.c **** 	// check if fast encoder present
  92:../application/Src/encoders.c **** 	if (encoders_state[0].pin_a >=0 && encoders_state[0].pin_b >=0) 
  34              		.loc 1 92 2 view .LVU2
  87:../application/Src/encoders.c **** 	
  35              		.loc 1 87 1 is_stmt 0 view .LVU3
  36 0000 2DE9F04F 		push	{r4, r5, r6, r7, r8, r9, r10, fp, lr}
  37              	.LCFI0:
  38              		.cfi_def_cfa_offset 36
  39              		.cfi_offset 4, -36
  40              		.cfi_offset 5, -32
  41              		.cfi_offset 6, -28
  42              		.cfi_offset 7, -24
  43              		.cfi_offset 8, -20
  44              		.cfi_offset 9, -16
  45              		.cfi_offset 10, -12
  46              		.cfi_offset 11, -8
  47              		.cfi_offset 14, -4
  48              		.loc 1 92 23 view .LVU4
  49 0004 DFF81CA1 		ldr	r10, .L119+4
  87:../application/Src/encoders.c **** 	
  50              		.loc 1 87 1 view .LVU5
  51 0008 AFB0     		sub	sp, sp, #188
  52              	.LCFI1:
  53              		.cfi_def_cfa_offset 224
  54              		.loc 1 92 5 view .LVU6
  55 000a 9AF90930 		ldrsb	r3, [r10, #9]
  87:../application/Src/encoders.c **** 	
  56              		.loc 1 87 1 view .LVU7
  57 000e 0C46     		mov	r4, r1
  58              		.loc 1 92 5 view .LVU8
  59 0010 002B     		cmp	r3, #0
  87:../application/Src/encoders.c **** 	
  60              		.loc 1 87 1 view .LVU9
  61 0012 0190     		str	r0, [sp, #4]
  62              		.loc 1 92 5 view .LVU10
  63 0014 08DB     		blt	.L2
  64              		.loc 1 92 34 discriminator 1 view .LVU11
  65 0016 9AF90A30 		ldrsb	r3, [r10, #10]
  66 001a 002B     		cmp	r3, #0
  67 001c 04DB     		blt	.L2
  93:../application/Src/encoders.c **** 		{
  94:../application/Src/encoders.c **** 			encoders_state[0].cnt = (int16_t)(TIM1->CNT);
  68              		.loc 1 94 4 is_stmt 1 view .LVU12
  69              		.loc 1 94 42 is_stmt 0 view .LVU13
  70 001e 404B     		ldr	r3, .L119
  71 0020 9B8C     		ldrh	r3, [r3, #36]
  72              		.loc 1 94 28 view .LVU14
  73 0022 1BB2     		sxth	r3, r3
  74 0024 CAF80430 		str	r3, [r10, #4]
ARM GAS  /tmp/ccz56Q5C.s 			page 4


  75              	.L2:
  95:../application/Src/encoders.c **** 		}
  96:../application/Src/encoders.c **** 	
  97:../application/Src/encoders.c **** 	
  98:../application/Src/encoders.c **** 	// search if there is at least one polling encoder present
  99:../application/Src/encoders.c **** 	for (int i=1; i<MAX_ENCODERS_NUM; i++)
  76              		.loc 1 99 2 is_stmt 1 view .LVU15
  77              	.LBB2:
  78              		.loc 1 99 7 view .LVU16
  79              	.LVL1:
  80              		.loc 1 99 16 view .LVU17
 100:../application/Src/encoders.c **** 	{
 101:../application/Src/encoders.c **** 		if (encoders_state[i].pin_a >=0 && encoders_state[i].pin_b >=0) 
  81              		.loc 1 101 3 view .LVU18
  82              		.loc 1 101 6 is_stmt 0 view .LVU19
  83 0028 9AF91530 		ldrsb	r3, [r10, #21]
  84 002c 002B     		cmp	r3, #0
  85 002e 03DB     		blt	.L3
  86              		.loc 1 101 35 view .LVU20
  87 0030 9AF91630 		ldrsb	r3, [r10, #22]
  88 0034 002B     		cmp	r3, #0
  89 0036 77DA     		bge	.L4
  90              	.L3:
  99:../application/Src/encoders.c **** 	{
  91              		.loc 1 99 36 is_stmt 1 view .LVU21
  92              	.LVL2:
  99:../application/Src/encoders.c **** 	{
  93              		.loc 1 99 16 view .LVU22
  94              		.loc 1 101 3 view .LVU23
  95              		.loc 1 101 6 is_stmt 0 view .LVU24
  96 0038 9AF92130 		ldrsb	r3, [r10, #33]
  97 003c 002B     		cmp	r3, #0
  98 003e 03DB     		blt	.L5
  99              		.loc 1 101 35 view .LVU25
 100 0040 9AF92230 		ldrsb	r3, [r10, #34]
 101 0044 002B     		cmp	r3, #0
 102 0046 6FDA     		bge	.L4
 103              	.L5:
  99:../application/Src/encoders.c **** 	{
 104              		.loc 1 99 36 is_stmt 1 view .LVU26
 105              	.LVL3:
  99:../application/Src/encoders.c **** 	{
 106              		.loc 1 99 16 view .LVU27
 107              		.loc 1 101 3 view .LVU28
 108              		.loc 1 101 6 is_stmt 0 view .LVU29
 109 0048 9AF92D30 		ldrsb	r3, [r10, #45]
 110 004c 002B     		cmp	r3, #0
 111 004e 03DB     		blt	.L6
 112              		.loc 1 101 35 view .LVU30
 113 0050 9AF92E30 		ldrsb	r3, [r10, #46]
 114 0054 002B     		cmp	r3, #0
 115 0056 67DA     		bge	.L4
 116              	.L6:
  99:../application/Src/encoders.c **** 	{
 117              		.loc 1 99 36 is_stmt 1 view .LVU31
 118              	.LVL4:
  99:../application/Src/encoders.c **** 	{
ARM GAS  /tmp/ccz56Q5C.s 			page 5


 119              		.loc 1 99 16 view .LVU32
 120              		.loc 1 101 3 view .LVU33
 121              		.loc 1 101 6 is_stmt 0 view .LVU34
 122 0058 9AF93930 		ldrsb	r3, [r10, #57]
 123 005c 002B     		cmp	r3, #0
 124 005e 03DB     		blt	.L7
 125              		.loc 1 101 35 view .LVU35
 126 0060 9AF93A30 		ldrsb	r3, [r10, #58]
 127 0064 002B     		cmp	r3, #0
 128 0066 5FDA     		bge	.L4
 129              	.L7:
  99:../application/Src/encoders.c **** 	{
 130              		.loc 1 99 36 is_stmt 1 view .LVU36
 131              	.LVL5:
  99:../application/Src/encoders.c **** 	{
 132              		.loc 1 99 16 view .LVU37
 133              		.loc 1 101 3 view .LVU38
 134              		.loc 1 101 6 is_stmt 0 view .LVU39
 135 0068 9AF94530 		ldrsb	r3, [r10, #69]
 136 006c 002B     		cmp	r3, #0
 137 006e 03DB     		blt	.L8
 138              		.loc 1 101 35 view .LVU40
 139 0070 9AF94630 		ldrsb	r3, [r10, #70]
 140 0074 002B     		cmp	r3, #0
 141 0076 57DA     		bge	.L4
 142              	.L8:
  99:../application/Src/encoders.c **** 	{
 143              		.loc 1 99 36 is_stmt 1 view .LVU41
 144              	.LVL6:
  99:../application/Src/encoders.c **** 	{
 145              		.loc 1 99 16 view .LVU42
 146              		.loc 1 101 3 view .LVU43
 147              		.loc 1 101 6 is_stmt 0 view .LVU44
 148 0078 9AF95130 		ldrsb	r3, [r10, #81]
 149 007c 002B     		cmp	r3, #0
 150 007e 03DB     		blt	.L9
 151              		.loc 1 101 35 view .LVU45
 152 0080 9AF95230 		ldrsb	r3, [r10, #82]
 153 0084 002B     		cmp	r3, #0
 154 0086 4FDA     		bge	.L4
 155              	.L9:
  99:../application/Src/encoders.c **** 	{
 156              		.loc 1 99 36 is_stmt 1 view .LVU46
 157              	.LVL7:
  99:../application/Src/encoders.c **** 	{
 158              		.loc 1 99 16 view .LVU47
 159              		.loc 1 101 3 view .LVU48
 160              		.loc 1 101 6 is_stmt 0 view .LVU49
 161 0088 9AF95D30 		ldrsb	r3, [r10, #93]
 162 008c 002B     		cmp	r3, #0
 163 008e 03DB     		blt	.L10
 164              		.loc 1 101 35 view .LVU50
 165 0090 9AF95E30 		ldrsb	r3, [r10, #94]
 166 0094 002B     		cmp	r3, #0
 167 0096 47DA     		bge	.L4
 168              	.L10:
  99:../application/Src/encoders.c **** 	{
ARM GAS  /tmp/ccz56Q5C.s 			page 6


 169              		.loc 1 99 36 is_stmt 1 view .LVU51
 170              	.LVL8:
  99:../application/Src/encoders.c **** 	{
 171              		.loc 1 99 16 view .LVU52
 172              		.loc 1 101 3 view .LVU53
 173              		.loc 1 101 6 is_stmt 0 view .LVU54
 174 0098 9AF96930 		ldrsb	r3, [r10, #105]
 175 009c 002B     		cmp	r3, #0
 176 009e 03DB     		blt	.L11
 177              		.loc 1 101 35 view .LVU55
 178 00a0 9AF96A30 		ldrsb	r3, [r10, #106]
 179 00a4 002B     		cmp	r3, #0
 180 00a6 3FDA     		bge	.L4
 181              	.L11:
  99:../application/Src/encoders.c **** 	{
 182              		.loc 1 99 36 is_stmt 1 view .LVU56
 183              	.LVL9:
  99:../application/Src/encoders.c **** 	{
 184              		.loc 1 99 16 view .LVU57
 185              		.loc 1 101 3 view .LVU58
 186              		.loc 1 101 6 is_stmt 0 view .LVU59
 187 00a8 9AF97530 		ldrsb	r3, [r10, #117]
 188 00ac 002B     		cmp	r3, #0
 189 00ae 03DB     		blt	.L12
 190              		.loc 1 101 35 view .LVU60
 191 00b0 9AF97630 		ldrsb	r3, [r10, #118]
 192 00b4 002B     		cmp	r3, #0
 193 00b6 37DA     		bge	.L4
 194              	.L12:
  99:../application/Src/encoders.c **** 	{
 195              		.loc 1 99 36 is_stmt 1 view .LVU61
 196              	.LVL10:
  99:../application/Src/encoders.c **** 	{
 197              		.loc 1 99 16 view .LVU62
 198              		.loc 1 101 3 view .LVU63
 199              		.loc 1 101 6 is_stmt 0 view .LVU64
 200 00b8 9AF98130 		ldrsb	r3, [r10, #129]
 201 00bc 002B     		cmp	r3, #0
 202 00be 03DB     		blt	.L13
 203              		.loc 1 101 35 view .LVU65
 204 00c0 9AF98230 		ldrsb	r3, [r10, #130]
 205 00c4 002B     		cmp	r3, #0
 206 00c6 2FDA     		bge	.L4
 207              	.L13:
  99:../application/Src/encoders.c **** 	{
 208              		.loc 1 99 36 is_stmt 1 view .LVU66
 209              	.LVL11:
  99:../application/Src/encoders.c **** 	{
 210              		.loc 1 99 16 view .LVU67
 211              		.loc 1 101 3 view .LVU68
 212              		.loc 1 101 6 is_stmt 0 view .LVU69
 213 00c8 9AF98D30 		ldrsb	r3, [r10, #141]
 214 00cc 002B     		cmp	r3, #0
 215 00ce 03DB     		blt	.L14
 216              		.loc 1 101 35 view .LVU70
 217 00d0 9AF98E30 		ldrsb	r3, [r10, #142]
 218 00d4 002B     		cmp	r3, #0
ARM GAS  /tmp/ccz56Q5C.s 			page 7


 219 00d6 27DA     		bge	.L4
 220              	.L14:
  99:../application/Src/encoders.c **** 	{
 221              		.loc 1 99 36 is_stmt 1 view .LVU71
 222              	.LVL12:
  99:../application/Src/encoders.c **** 	{
 223              		.loc 1 99 16 view .LVU72
 224              		.loc 1 101 3 view .LVU73
 225              		.loc 1 101 6 is_stmt 0 view .LVU74
 226 00d8 9AF99930 		ldrsb	r3, [r10, #153]
 227 00dc 002B     		cmp	r3, #0
 228 00de 03DB     		blt	.L15
 229              		.loc 1 101 35 view .LVU75
 230 00e0 9AF99A30 		ldrsb	r3, [r10, #154]
 231 00e4 002B     		cmp	r3, #0
 232 00e6 1FDA     		bge	.L4
 233              	.L15:
  99:../application/Src/encoders.c **** 	{
 234              		.loc 1 99 36 is_stmt 1 view .LVU76
 235              	.LVL13:
  99:../application/Src/encoders.c **** 	{
 236              		.loc 1 99 16 view .LVU77
 237              		.loc 1 101 3 view .LVU78
 238              		.loc 1 101 6 is_stmt 0 view .LVU79
 239 00e8 9AF9A530 		ldrsb	r3, [r10, #165]
 240 00ec 002B     		cmp	r3, #0
 241 00ee 03DB     		blt	.L16
 242              		.loc 1 101 35 view .LVU80
 243 00f0 9AF9A630 		ldrsb	r3, [r10, #166]
 244 00f4 002B     		cmp	r3, #0
 245 00f6 17DA     		bge	.L4
 246              	.L16:
  99:../application/Src/encoders.c **** 	{
 247              		.loc 1 99 36 is_stmt 1 view .LVU81
 248              	.LVL14:
  99:../application/Src/encoders.c **** 	{
 249              		.loc 1 99 16 view .LVU82
 250              		.loc 1 101 3 view .LVU83
 251              		.loc 1 101 6 is_stmt 0 view .LVU84
 252 00f8 9AF9B130 		ldrsb	r3, [r10, #177]
 253 00fc 002B     		cmp	r3, #0
 254 00fe 03DB     		blt	.L17
 255              		.loc 1 101 35 view .LVU85
 256 0100 9AF9B230 		ldrsb	r3, [r10, #178]
 257 0104 002B     		cmp	r3, #0
 258 0106 0FDA     		bge	.L4
 259              	.L17:
  99:../application/Src/encoders.c **** 	{
 260              		.loc 1 99 36 is_stmt 1 view .LVU86
 261              	.LVL15:
  99:../application/Src/encoders.c **** 	{
 262              		.loc 1 99 16 view .LVU87
 263              		.loc 1 101 3 view .LVU88
 264              		.loc 1 101 6 is_stmt 0 view .LVU89
 265 0108 9AF9BD30 		ldrsb	r3, [r10, #189]
 266 010c 002B     		cmp	r3, #0
 267 010e 03DB     		blt	.L1
ARM GAS  /tmp/ccz56Q5C.s 			page 8


 268              		.loc 1 101 35 discriminator 1 view .LVU90
 269 0110 9AF9BE30 		ldrsb	r3, [r10, #190]
 270 0114 002B     		cmp	r3, #0
 271 0116 07DA     		bge	.L4
 272              	.L1:
 273              	.LBE2:
 102:../application/Src/encoders.c **** 		{
 103:../application/Src/encoders.c **** 			encoders_present = 1;
 104:../application/Src/encoders.c **** 			break;
 105:../application/Src/encoders.c **** 		}
 106:../application/Src/encoders.c **** 	}
 107:../application/Src/encoders.c **** 	if (!encoders_present) return;		// dont waste time if no encoders connected
 108:../application/Src/encoders.c **** 	
 109:../application/Src/encoders.c **** 	
 110:../application/Src/encoders.c **** 	int8_t ignore_a[MAX_ENCODERS_NUM]={};
 111:../application/Src/encoders.c **** 	int8_t ignore_b[MAX_ENCODERS_NUM]={};
 112:../application/Src/encoders.c **** 	// because physical_num = -1 - no button
 113:../application/Src/encoders.c **** 	for (int k=0; k<MAX_ENCODERS_NUM; k++)
 114:../application/Src/encoders.c **** 	{
 115:../application/Src/encoders.c **** 		ignore_a[k] = -1;
 116:../application/Src/encoders.c **** 		ignore_b[k] = -1;
 117:../application/Src/encoders.c **** 	}	
 118:../application/Src/encoders.c **** 	// search encoder phys number with shift mod enabled
 119:../application/Src/encoders.c **** 	uint8_t tmp_a = 0;
 120:../application/Src/encoders.c **** 	uint8_t tmp_b = 0;
 121:../application/Src/encoders.c **** 	
 122:../application/Src/encoders.c **** 	uint32_t millis = GetTick();
 123:../application/Src/encoders.c **** 	
 124:../application/Src/encoders.c **** 	for (int k = 0; k < MAX_ENCODERS_NUM; k++)
 125:../application/Src/encoders.c **** 	{
 126:../application/Src/encoders.c **** 		// Pin A
 127:../application/Src/encoders.c **** 		if (p_dev_config->buttons[encoders_state[k].pin_a].shift_modificator > 0 && 
 128:../application/Src/encoders.c **** 		 shifts_state & 1<<(p_dev_config->buttons[encoders_state[k].pin_a].shift_modificator-1))
 129:../application/Src/encoders.c **** 		{
 130:../application/Src/encoders.c **** 			ignore_a[tmp_a++] = p_dev_config->buttons[encoders_state[k].pin_a].physical_num;
 131:../application/Src/encoders.c **** 		}
 132:../application/Src/encoders.c **** 		// Pin B
 133:../application/Src/encoders.c **** 		if (p_dev_config->buttons[encoders_state[k].pin_b].shift_modificator > 0 && 
 134:../application/Src/encoders.c **** 		 shifts_state & 1<<(p_dev_config->buttons[encoders_state[k].pin_b].shift_modificator-1))
 135:../application/Src/encoders.c **** 		{
 136:../application/Src/encoders.c **** 			ignore_b[tmp_b++] = p_dev_config->buttons[encoders_state[k].pin_b].physical_num;
 137:../application/Src/encoders.c **** 		}
 138:../application/Src/encoders.c **** 	}
 139:../application/Src/encoders.c **** 	
 140:../application/Src/encoders.c **** 	for (int i=1; i<MAX_ENCODERS_NUM; i++)
 141:../application/Src/encoders.c **** 	{
 142:../application/Src/encoders.c **** 		if (encoders_state[i].pin_a >=0 && encoders_state[i].pin_b >=0)
 143:../application/Src/encoders.c **** 		{
 144:../application/Src/encoders.c **** 			int8_t stt;
 145:../application/Src/encoders.c **** 			encoders_state[i].state <<= 2;			// shift prev state to clear space for new data
 146:../application/Src/encoders.c **** 			
 147:../application/Src/encoders.c **** 			if (raw_buttons_data[p_dev_config->buttons[encoders_state[i].pin_a].physical_num])	encoders_stat
 148:../application/Src/encoders.c **** 			if (raw_buttons_data[p_dev_config->buttons[encoders_state[i].pin_b].physical_num])	encoders_stat
 149:../application/Src/encoders.c **** 			
 150:../application/Src/encoders.c **** 			if ((encoders_state[i].state & 0x03) != ((encoders_state[i].state >> 2) & 0x03))							// Curren
 151:../application/Src/encoders.c **** 			{
 152:../application/Src/encoders.c **** 				switch (p_dev_config->encoders[i])
ARM GAS  /tmp/ccz56Q5C.s 			page 9


 153:../application/Src/encoders.c **** 				{
 154:../application/Src/encoders.c **** 					default:
 155:../application/Src/encoders.c **** 					case ENCODER_CONF_1x:
 156:../application/Src/encoders.c **** 						stt = enc_array_1[encoders_state[i].state & 0x0F];
 157:../application/Src/encoders.c **** 					break;
 158:../application/Src/encoders.c **** 					
 159:../application/Src/encoders.c **** 					case ENCODER_CONF_2x:
 160:../application/Src/encoders.c **** 						stt = enc_array_2[encoders_state[i].state & 0x0F];
 161:../application/Src/encoders.c **** 						break;
 162:../application/Src/encoders.c **** 					
 163:../application/Src/encoders.c **** 					case ENCODER_CONF_4x:
 164:../application/Src/encoders.c **** 						stt = enc_array_4[encoders_state[i].state & 0x0F];
 165:../application/Src/encoders.c **** 						break;
 166:../application/Src/encoders.c **** 				}
 167:../application/Src/encoders.c **** 				
 168:../application/Src/encoders.c **** 				if (stt != 0)		// changed
 169:../application/Src/encoders.c **** 				{
 170:../application/Src/encoders.c **** 						encoders_state[i].dir = stt > 0 ? 1 : -1;
 171:../application/Src/encoders.c **** 						if ((millis - encoders_state[i].time_last > 50) || (encoders_state[i].dir == encoders_state[i
 172:../application/Src/encoders.c **** 						{
 173:../application/Src/encoders.c **** 							if (stt > 0)	
 174:../application/Src/encoders.c **** 							{
 175:../application/Src/encoders.c **** 								// activate encoder with enable shift mod
 176:../application/Src/encoders.c **** 								if ((p_dev_config->buttons[encoders_state[i].pin_a].shift_modificator > 0 && 
 177:../application/Src/encoders.c **** 										 shifts_state & 1<<(p_dev_config->buttons[encoders_state[i].pin_a].shift_modificator-1)))
 178:../application/Src/encoders.c **** 								{
 179:../application/Src/encoders.c **** 									button_state_buf[encoders_state[i].pin_a].current_state = 1;			// CW
 180:../application/Src/encoders.c **** 								}
 181:../application/Src/encoders.c **** 								// if shift mod disabled
 182:../application/Src/encoders.c **** 								else if (p_dev_config->buttons[encoders_state[i].pin_a].shift_modificator == 0) 
 183:../application/Src/encoders.c **** 								{
 184:../application/Src/encoders.c **** 									uint8_t tmp_ignore = 0;
 185:../application/Src/encoders.c **** 									// check button in ignore list
 186:../application/Src/encoders.c **** 									for (int k = 0; k < MAX_ENCODERS_NUM; k++)	// if ignore_a[k] == 0 break; ?
 187:../application/Src/encoders.c **** 									{
 188:../application/Src/encoders.c **** 										if (p_dev_config->buttons[encoders_state[i].pin_a].physical_num == ignore_a[k])
 189:../application/Src/encoders.c **** 										{
 190:../application/Src/encoders.c **** 											tmp_ignore = 1;
 191:../application/Src/encoders.c **** 											break;
 192:../application/Src/encoders.c **** 										}
 193:../application/Src/encoders.c **** 									}
 194:../application/Src/encoders.c **** 									// activate if not found in ignore list
 195:../application/Src/encoders.c **** 									if (tmp_ignore == 0)
 196:../application/Src/encoders.c **** 									{
 197:../application/Src/encoders.c **** 										button_state_buf[encoders_state[i].pin_a].current_state = 1;			// CW
 198:../application/Src/encoders.c **** 									}
 199:../application/Src/encoders.c **** 								}
 200:../application/Src/encoders.c **** 								encoders_state[i].last_dir = 1;
 201:../application/Src/encoders.c **** 							}
 202:../application/Src/encoders.c **** 							else
 203:../application/Src/encoders.c **** 							{
 204:../application/Src/encoders.c **** 								// activate encoder with enable shift mod
 205:../application/Src/encoders.c **** 								if ((p_dev_config->buttons[encoders_state[i].pin_b].shift_modificator > 0 && 
 206:../application/Src/encoders.c **** 										 shifts_state & 1<<(p_dev_config->buttons[encoders_state[i].pin_b].shift_modificator-1)))
 207:../application/Src/encoders.c **** 								{
 208:../application/Src/encoders.c **** 									button_state_buf[encoders_state[i].pin_b].current_state = 1;			// CCW
 209:../application/Src/encoders.c **** 								}
ARM GAS  /tmp/ccz56Q5C.s 			page 10


 210:../application/Src/encoders.c **** 								// if shift mod disabled
 211:../application/Src/encoders.c **** 								else if (p_dev_config->buttons[encoders_state[i].pin_b].shift_modificator == 0) 
 212:../application/Src/encoders.c **** 								{
 213:../application/Src/encoders.c **** 									uint8_t tmp_ignore = 0;
 214:../application/Src/encoders.c **** 									// check button in ignore list
 215:../application/Src/encoders.c **** 									for (int k = 0; k < MAX_ENCODERS_NUM; k++)	// if ignore_b[k] == 0 break; ?
 216:../application/Src/encoders.c **** 									{
 217:../application/Src/encoders.c **** 										if (p_dev_config->buttons[encoders_state[i].pin_b].physical_num == ignore_b[k])
 218:../application/Src/encoders.c **** 										{
 219:../application/Src/encoders.c **** 											tmp_ignore = 1;
 220:../application/Src/encoders.c **** 											break;
 221:../application/Src/encoders.c **** 										}
 222:../application/Src/encoders.c **** 									}
 223:../application/Src/encoders.c **** 									// activate if not found in ignore list
 224:../application/Src/encoders.c **** 									if (tmp_ignore == 0)
 225:../application/Src/encoders.c **** 									{
 226:../application/Src/encoders.c **** 										button_state_buf[encoders_state[i].pin_b].current_state = 1;			// CCW
 227:../application/Src/encoders.c **** 									}
 228:../application/Src/encoders.c **** 								}
 229:../application/Src/encoders.c **** 								encoders_state[i].last_dir = -1;
 230:../application/Src/encoders.c **** 							}			
 231:../application/Src/encoders.c **** 							encoders_state[i].time_last = millis;
 232:../application/Src/encoders.c **** 							encoders_state[i].cnt += stt;
 233:../application/Src/encoders.c **** 							
 234:../application/Src/encoders.c **** 							if (encoders_state[i].cnt > AXIS_MAX_VALUE) encoders_state[i].cnt = AXIS_MAX_VALUE;
 235:../application/Src/encoders.c **** 							if (encoders_state[i].cnt < AXIS_MIN_VALUE) encoders_state[i].cnt = AXIS_MIN_VALUE;
 236:../application/Src/encoders.c **** 							
 237:../application/Src/encoders.c **** 						}
 238:../application/Src/encoders.c **** 						else if ((millis - encoders_state[i].time_last <= 200) && (encoders_state[i].dir != encoders_
 239:../application/Src/encoders.c **** 						{
 240:../application/Src/encoders.c **** 							encoders_state[i].time_last = millis;
 241:../application/Src/encoders.c **** 							encoders_state[i].cnt += encoders_state[i].last_dir;
 242:../application/Src/encoders.c **** 							encoders_state[i].state <<= 2;
 243:../application/Src/encoders.c **** 							if (encoders_state[i].last_dir > 0)	
 244:../application/Src/encoders.c **** 							{
 245:../application/Src/encoders.c **** 								// activate encoder with enable shift mod
 246:../application/Src/encoders.c **** 								if ((p_dev_config->buttons[encoders_state[i].pin_a].shift_modificator > 0 && 
 247:../application/Src/encoders.c **** 										 shifts_state & 1<<(p_dev_config->buttons[encoders_state[i].pin_a].shift_modificator-1)))
 248:../application/Src/encoders.c **** 								{
 249:../application/Src/encoders.c **** 									button_state_buf[encoders_state[i].pin_a].current_state = 1;			// CW
 250:../application/Src/encoders.c **** 								}
 251:../application/Src/encoders.c **** 								// if shift mod disabled
 252:../application/Src/encoders.c **** 								else if (p_dev_config->buttons[encoders_state[i].pin_a].shift_modificator == 0) 
 253:../application/Src/encoders.c **** 								{
 254:../application/Src/encoders.c **** 									uint8_t tmp_ignore = 0;
 255:../application/Src/encoders.c **** 									// check button in ignore list
 256:../application/Src/encoders.c **** 									for (int a = 0; a < MAX_ENCODERS_NUM; a++)
 257:../application/Src/encoders.c **** 									{
 258:../application/Src/encoders.c **** 										if (p_dev_config->buttons[encoders_state[i].pin_a].physical_num == ignore_a[a])
 259:../application/Src/encoders.c **** 										{
 260:../application/Src/encoders.c **** 											tmp_ignore = 1;
 261:../application/Src/encoders.c **** 											break;
 262:../application/Src/encoders.c **** 										}
 263:../application/Src/encoders.c **** 									}
 264:../application/Src/encoders.c **** 									// activate if not found in ignore list
 265:../application/Src/encoders.c **** 									if (tmp_ignore == 0)
 266:../application/Src/encoders.c **** 									{
ARM GAS  /tmp/ccz56Q5C.s 			page 11


 267:../application/Src/encoders.c **** 										button_state_buf[encoders_state[i].pin_a].current_state = 1;			// CW
 268:../application/Src/encoders.c **** 									}
 269:../application/Src/encoders.c **** 								}
 270:../application/Src/encoders.c **** 							}
 271:../application/Src/encoders.c **** 							else
 272:../application/Src/encoders.c **** 							{
 273:../application/Src/encoders.c **** 								// activate encoder with enable shift mod
 274:../application/Src/encoders.c **** 								if ((p_dev_config->buttons[encoders_state[i].pin_b].shift_modificator > 0 && 
 275:../application/Src/encoders.c **** 										 shifts_state & 1<<(p_dev_config->buttons[encoders_state[i].pin_b].shift_modificator-1)))
 276:../application/Src/encoders.c **** 								{
 277:../application/Src/encoders.c **** 									button_state_buf[encoders_state[i].pin_b].current_state = 1;			// CCW
 278:../application/Src/encoders.c **** 								}
 279:../application/Src/encoders.c **** 								// if shift mod disabled
 280:../application/Src/encoders.c **** 								else if (p_dev_config->buttons[encoders_state[i].pin_b].shift_modificator == 0) 
 281:../application/Src/encoders.c **** 								{
 282:../application/Src/encoders.c **** 									uint8_t tmp_ignore = 0;
 283:../application/Src/encoders.c **** 									// check button in ignore list
 284:../application/Src/encoders.c **** 									for (int k = 0; k < MAX_ENCODERS_NUM; k++)	// if ignore_b[k] == 0 break; ?
 285:../application/Src/encoders.c **** 									{
 286:../application/Src/encoders.c **** 										if (p_dev_config->buttons[encoders_state[i].pin_b].physical_num == ignore_b[k])
 287:../application/Src/encoders.c **** 										{
 288:../application/Src/encoders.c **** 											tmp_ignore = 1;
 289:../application/Src/encoders.c **** 											break;
 290:../application/Src/encoders.c **** 										}
 291:../application/Src/encoders.c **** 									}
 292:../application/Src/encoders.c **** 									// activate if not found in ignore list
 293:../application/Src/encoders.c **** 									if (tmp_ignore == 0)
 294:../application/Src/encoders.c **** 									{
 295:../application/Src/encoders.c **** 										button_state_buf[encoders_state[i].pin_b].current_state = 1;			// CCW
 296:../application/Src/encoders.c **** 									}
 297:../application/Src/encoders.c **** 								}
 298:../application/Src/encoders.c **** 							}
 299:../application/Src/encoders.c **** 						}
 300:../application/Src/encoders.c **** 				}
 301:../application/Src/encoders.c **** 			}
 302:../application/Src/encoders.c **** 			else	
 303:../application/Src/encoders.c **** 			{
 304:../application/Src/encoders.c **** 				encoders_state[i].state >>= 2;
 305:../application/Src/encoders.c **** 			}
 306:../application/Src/encoders.c **** 		}
 307:../application/Src/encoders.c **** 		// unpress encoder button
 308:../application/Src/encoders.c **** 		if (encoders_state[i].pin_a >=0 && encoders_state[i].pin_b >=0)
 309:../application/Src/encoders.c **** 		{		
 310:../application/Src/encoders.c **** 			uint16_t a_press_time;
 311:../application/Src/encoders.c **** 			uint16_t b_press_time;
 312:../application/Src/encoders.c **** 
 313:../application/Src/encoders.c **** 			// check if press time is redefined
 314:../application/Src/encoders.c **** 			switch (p_dev_config->buttons[encoders_state[i].pin_a].press_timer)
 315:../application/Src/encoders.c **** 			{	
 316:../application/Src/encoders.c **** 					case BUTTON_TIMER_1:
 317:../application/Src/encoders.c **** 						a_press_time = p_dev_config->button_timer1_ms;
 318:../application/Src/encoders.c **** 						break;
 319:../application/Src/encoders.c **** 					case BUTTON_TIMER_2:
 320:../application/Src/encoders.c **** 						a_press_time = p_dev_config->button_timer2_ms;
 321:../application/Src/encoders.c **** 						break;
 322:../application/Src/encoders.c **** 					case BUTTON_TIMER_3:
 323:../application/Src/encoders.c **** 						a_press_time = p_dev_config->button_timer3_ms;
ARM GAS  /tmp/ccz56Q5C.s 			page 12


 324:../application/Src/encoders.c **** 						break;
 325:../application/Src/encoders.c **** 					default:
 326:../application/Src/encoders.c **** 						a_press_time = p_dev_config->encoder_press_time_ms;
 327:../application/Src/encoders.c **** 						break;
 328:../application/Src/encoders.c **** 			};
 329:../application/Src/encoders.c **** 			
 330:../application/Src/encoders.c **** 			switch (p_dev_config->buttons[encoders_state[i].pin_b].press_timer)
 331:../application/Src/encoders.c **** 			{	
 332:../application/Src/encoders.c **** 					case BUTTON_TIMER_1:
 333:../application/Src/encoders.c **** 						b_press_time = p_dev_config->button_timer1_ms;
 334:../application/Src/encoders.c **** 						break;
 335:../application/Src/encoders.c **** 					case BUTTON_TIMER_2:
 336:../application/Src/encoders.c **** 						b_press_time = p_dev_config->button_timer2_ms;
 337:../application/Src/encoders.c **** 						break;
 338:../application/Src/encoders.c **** 					case BUTTON_TIMER_3:
 339:../application/Src/encoders.c **** 						b_press_time = p_dev_config->button_timer3_ms;
 340:../application/Src/encoders.c **** 						break;
 341:../application/Src/encoders.c **** 					default:
 342:../application/Src/encoders.c **** 						b_press_time = p_dev_config->encoder_press_time_ms;
 343:../application/Src/encoders.c **** 						break;
 344:../application/Src/encoders.c **** 			};
 345:../application/Src/encoders.c **** 					
 346:../application/Src/encoders.c **** 		
 347:../application/Src/encoders.c **** 			if (millis - encoders_state[i].time_last > a_press_time)
 348:../application/Src/encoders.c **** 			{	
 349:../application/Src/encoders.c **** 				button_state_buf[encoders_state[i].pin_a].current_state = 0;
 350:../application/Src/encoders.c **** 			}
 351:../application/Src/encoders.c **** 			if (millis - encoders_state[i].time_last > b_press_time)
 352:../application/Src/encoders.c **** 			{	
 353:../application/Src/encoders.c **** 				button_state_buf[encoders_state[i].pin_b].current_state = 0;
 354:../application/Src/encoders.c **** 			}
 355:../application/Src/encoders.c **** 		}
 356:../application/Src/encoders.c **** 	}
 357:../application/Src/encoders.c **** }
 274              		.loc 1 357 1 view .LVU91
 275 0118 2FB0     		add	sp, sp, #188
 276              	.LCFI2:
 277              		.cfi_remember_state
 278              		.cfi_def_cfa_offset 36
 279              		@ sp needed
 280 011a BDE8F08F 		pop	{r4, r5, r6, r7, r8, r9, r10, fp, pc}
 281              	.L120:
 282 011e 00BF     		.align	2
 283              	.L119:
 284 0120 002C0140 		.word	1073818624
 285 0124 00000000 		.word	encoders_state
 286              	.LVL16:
 287              	.L4:
 288              	.LCFI3:
 289              		.cfi_restore_state
 107:../application/Src/encoders.c **** 	
 290              		.loc 1 107 2 is_stmt 1 view .LVU92
 110:../application/Src/encoders.c **** 	int8_t ignore_b[MAX_ENCODERS_NUM]={};
 291              		.loc 1 110 2 view .LVU93
 111:../application/Src/encoders.c **** 	// because physical_num = -1 - no button
 292              		.loc 1 111 2 view .LVU94
 113:../application/Src/encoders.c **** 	{
ARM GAS  /tmp/ccz56Q5C.s 			page 13


 293              		.loc 1 113 2 view .LVU95
 113:../application/Src/encoders.c **** 	{
 294              		.loc 1 113 7 view .LVU96
 113:../application/Src/encoders.c **** 	{
 295              		.loc 1 113 16 view .LVU97
 296 0128 4FF0FF33 		mov	r3, #-1
 120:../application/Src/encoders.c **** 	
 297              		.loc 1 120 10 is_stmt 0 view .LVU98
 298 012c 0025     		movs	r5, #0
 299 012e CDE92733 		strd	r3, r3, [sp, #156]
 300 0132 CDE92B33 		strd	r3, r3, [sp, #172]
 301 0136 2693     		str	r3, [sp, #152]
 302 0138 2A93     		str	r3, [sp, #168]
 303 013a 2993     		str	r3, [sp, #164]
 304 013c 2D93     		str	r3, [sp, #180]
 305              	.LVL17:
 119:../application/Src/encoders.c **** 	uint8_t tmp_b = 0;
 306              		.loc 1 119 2 is_stmt 1 view .LVU99
 120:../application/Src/encoders.c **** 	
 307              		.loc 1 120 2 view .LVU100
 122:../application/Src/encoders.c **** 	
 308              		.loc 1 122 2 view .LVU101
 122:../application/Src/encoders.c **** 	
 309              		.loc 1 122 20 is_stmt 0 view .LVU102
 310 013e FFF7FEFF 		bl	GetTick
 311              	.LVL18:
 122:../application/Src/encoders.c **** 	
 312              		.loc 1 122 20 view .LVU103
 313 0142 994B     		ldr	r3, .L121
 314 0144 0090     		str	r0, [sp]
 315              	.LVL19:
 124:../application/Src/encoders.c **** 	{
 316              		.loc 1 124 2 is_stmt 1 view .LVU104
 317              	.LBB3:
 124:../application/Src/encoders.c **** 	{
 318              		.loc 1 124 7 view .LVU105
 124:../application/Src/encoders.c **** 	{
 319              		.loc 1 124 18 view .LVU106
 320              	.LBE3:
 119:../application/Src/encoders.c **** 	uint8_t tmp_b = 0;
 321              		.loc 1 119 10 is_stmt 0 view .LVU107
 322 0146 2E46     		mov	r6, r5
 323              	.LBB4:
 127:../application/Src/encoders.c **** 		 shifts_state & 1<<(p_dev_config->buttons[encoders_state[k].pin_a].shift_modificator-1))
 324              		.loc 1 127 76 view .LVU108
 325 0148 9A46     		mov	r10, r3
 326 014a 1846     		mov	r0, r3
 327              	.LVL20:
 127:../application/Src/encoders.c **** 		 shifts_state & 1<<(p_dev_config->buttons[encoders_state[k].pin_a].shift_modificator-1))
 328              		.loc 1 127 76 view .LVU109
 329 014c 974A     		ldr	r2, .L121+4
 330 014e 03F1C007 		add	r7, r3, #192
 331 0152 92F80080 		ldrb	r8, [r2]	@ zero_extendqisi2
 332              	.LVL21:
 333              	.L21:
 127:../application/Src/encoders.c **** 		 shifts_state & 1<<(p_dev_config->buttons[encoders_state[k].pin_a].shift_modificator-1))
 334              		.loc 1 127 3 is_stmt 1 view .LVU110
ARM GAS  /tmp/ccz56Q5C.s 			page 14


 127:../application/Src/encoders.c **** 		 shifts_state & 1<<(p_dev_config->buttons[encoders_state[k].pin_a].shift_modificator-1))
 335              		.loc 1 127 46 is_stmt 0 view .LVU111
 336 0156 90F90920 		ldrsb	r2, [r0, #9]
 127:../application/Src/encoders.c **** 		 shifts_state & 1<<(p_dev_config->buttons[encoders_state[k].pin_a].shift_modificator-1))
 337              		.loc 1 127 53 view .LVU112
 338 015a 02EB4202 		add	r2, r2, r2, lsl #1
 339 015e A118     		adds	r1, r4, r2
 340 0160 91F82F21 		ldrb	r2, [r1, #303]	@ zero_extendqisi2
 127:../application/Src/encoders.c **** 		 shifts_state & 1<<(p_dev_config->buttons[encoders_state[k].pin_a].shift_modificator-1))
 341              		.loc 1 127 6 view .LVU113
 342 0164 5209     		lsrs	r2, r2, #5
 128:../application/Src/encoders.c **** 		{
 343              		.loc 1 128 87 view .LVU114
 344 0166 02F1FF32 		add	r2, r2, #-1
 127:../application/Src/encoders.c **** 		 shifts_state & 1<<(p_dev_config->buttons[encoders_state[k].pin_a].shift_modificator-1))
 345              		.loc 1 127 76 view .LVU115
 346 016a 48FA02F2 		asr	r2, r8, r2
 127:../application/Src/encoders.c **** 		 shifts_state & 1<<(p_dev_config->buttons[encoders_state[k].pin_a].shift_modificator-1))
 347              		.loc 1 127 6 view .LVU116
 348 016e 09D0     		beq	.L19
 130:../application/Src/encoders.c **** 		}
 349              		.loc 1 130 4 is_stmt 1 discriminator 1 view .LVU117
 127:../application/Src/encoders.c **** 		 shifts_state & 1<<(p_dev_config->buttons[encoders_state[k].pin_a].shift_modificator-1))
 350              		.loc 1 127 76 is_stmt 0 discriminator 1 view .LVU118
 351 0170 D207     		lsls	r2, r2, #31
 352 0172 07D5     		bpl	.L19
 130:../application/Src/encoders.c **** 		}
 353              		.loc 1 130 22 view .LVU119
 354 0174 91F82E11 		ldrb	r1, [r1, #302]	@ zero_extendqisi2
 355 0178 2EAA     		add	r2, sp, #184
 356 017a 3244     		add	r2, r2, r6
 130:../application/Src/encoders.c **** 		}
 357              		.loc 1 130 18 view .LVU120
 358 017c 0136     		adds	r6, r6, #1
 359              	.LVL22:
 130:../application/Src/encoders.c **** 		}
 360              		.loc 1 130 22 view .LVU121
 361 017e 02F8201C 		strb	r1, [r2, #-32]
 130:../application/Src/encoders.c **** 		}
 362              		.loc 1 130 18 view .LVU122
 363 0182 F6B2     		uxtb	r6, r6
 364              	.LVL23:
 365              	.L19:
 133:../application/Src/encoders.c **** 		 shifts_state & 1<<(p_dev_config->buttons[encoders_state[k].pin_b].shift_modificator-1))
 366              		.loc 1 133 3 is_stmt 1 view .LVU123
 133:../application/Src/encoders.c **** 		 shifts_state & 1<<(p_dev_config->buttons[encoders_state[k].pin_b].shift_modificator-1))
 367              		.loc 1 133 46 is_stmt 0 view .LVU124
 368 0184 90F90A20 		ldrsb	r2, [r0, #10]
 369 0188 0C30     		adds	r0, r0, #12
 133:../application/Src/encoders.c **** 		 shifts_state & 1<<(p_dev_config->buttons[encoders_state[k].pin_b].shift_modificator-1))
 370              		.loc 1 133 53 view .LVU125
 371 018a 02EB4202 		add	r2, r2, r2, lsl #1
 372 018e A118     		adds	r1, r4, r2
 373 0190 91F82F21 		ldrb	r2, [r1, #303]	@ zero_extendqisi2
 133:../application/Src/encoders.c **** 		 shifts_state & 1<<(p_dev_config->buttons[encoders_state[k].pin_b].shift_modificator-1))
 374              		.loc 1 133 6 view .LVU126
 375 0194 5209     		lsrs	r2, r2, #5
ARM GAS  /tmp/ccz56Q5C.s 			page 15


 134:../application/Src/encoders.c **** 		{
 376              		.loc 1 134 87 view .LVU127
 377 0196 02F1FF32 		add	r2, r2, #-1
 133:../application/Src/encoders.c **** 		 shifts_state & 1<<(p_dev_config->buttons[encoders_state[k].pin_b].shift_modificator-1))
 378              		.loc 1 133 76 view .LVU128
 379 019a 48FA02F2 		asr	r2, r8, r2
 133:../application/Src/encoders.c **** 		 shifts_state & 1<<(p_dev_config->buttons[encoders_state[k].pin_b].shift_modificator-1))
 380              		.loc 1 133 6 view .LVU129
 381 019e 09D0     		beq	.L20
 136:../application/Src/encoders.c **** 		}
 382              		.loc 1 136 4 is_stmt 1 discriminator 1 view .LVU130
 133:../application/Src/encoders.c **** 		 shifts_state & 1<<(p_dev_config->buttons[encoders_state[k].pin_b].shift_modificator-1))
 383              		.loc 1 133 76 is_stmt 0 discriminator 1 view .LVU131
 384 01a0 D207     		lsls	r2, r2, #31
 385 01a2 07D5     		bpl	.L20
 136:../application/Src/encoders.c **** 		}
 386              		.loc 1 136 22 view .LVU132
 387 01a4 91F82E11 		ldrb	r1, [r1, #302]	@ zero_extendqisi2
 388 01a8 2EAA     		add	r2, sp, #184
 389 01aa 2A44     		add	r2, r2, r5
 136:../application/Src/encoders.c **** 		}
 390              		.loc 1 136 18 view .LVU133
 391 01ac 0135     		adds	r5, r5, #1
 392              	.LVL24:
 136:../application/Src/encoders.c **** 		}
 393              		.loc 1 136 22 view .LVU134
 394 01ae 02F8101C 		strb	r1, [r2, #-16]
 136:../application/Src/encoders.c **** 		}
 395              		.loc 1 136 18 view .LVU135
 396 01b2 EDB2     		uxtb	r5, r5
 397              	.LVL25:
 398              	.L20:
 124:../application/Src/encoders.c **** 	{
 399              		.loc 1 124 40 is_stmt 1 discriminator 2 view .LVU136
 124:../application/Src/encoders.c **** 	{
 400              		.loc 1 124 18 discriminator 2 view .LVU137
 124:../application/Src/encoders.c **** 	{
 401              		.loc 1 124 2 is_stmt 0 discriminator 2 view .LVU138
 402 01b4 8742     		cmp	r7, r0
 403 01b6 CED1     		bne	.L21
 404              	.LBE4:
 405              	.LBB5:
 406              	.LBB6:
 407              	.LBB7:
 408              	.LBB8:
 286:../application/Src/encoders.c **** 										{
 409              		.loc 1 286 86 view .LVU139
 410 01b8 9DF9A820 		ldrsb	r2, [sp, #168]
 411              	.LBE8:
 412              	.LBE7:
 413              	.LBE6:
 140:../application/Src/encoders.c **** 	{
 414              		.loc 1 140 11 view .LVU140
 415 01bc 0120     		movs	r0, #1
 416              	.LBB25:
 417              	.LBB11:
 418              	.LBB9:
ARM GAS  /tmp/ccz56Q5C.s 			page 16


 286:../application/Src/encoders.c **** 										{
 419              		.loc 1 286 86 view .LVU141
 420 01be 0F92     		str	r2, [sp, #60]
 421 01c0 9DF9A920 		ldrsb	r2, [sp, #169]
 422 01c4 1092     		str	r2, [sp, #64]
 423 01c6 9DF9AA20 		ldrsb	r2, [sp, #170]
 424 01ca 1692     		str	r2, [sp, #88]
 425 01cc 9DF9AB20 		ldrsb	r2, [sp, #171]
 426 01d0 1792     		str	r2, [sp, #92]
 427 01d2 9DF9AC20 		ldrsb	r2, [sp, #172]
 428 01d6 1892     		str	r2, [sp, #96]
 429 01d8 9DF9AD20 		ldrsb	r2, [sp, #173]
 430 01dc 1992     		str	r2, [sp, #100]
 431 01de 9DF9AE20 		ldrsb	r2, [sp, #174]
 432 01e2 1A92     		str	r2, [sp, #104]
 433 01e4 9DF9AF20 		ldrsb	r2, [sp, #175]
 434 01e8 1D92     		str	r2, [sp, #116]
 435 01ea 9DF9B020 		ldrsb	r2, [sp, #176]
 436 01ee 1E92     		str	r2, [sp, #120]
 437 01f0 9DF9B120 		ldrsb	r2, [sp, #177]
 438 01f4 1F92     		str	r2, [sp, #124]
 439 01f6 9DF9B220 		ldrsb	r2, [sp, #178]
 440 01fa 2092     		str	r2, [sp, #128]
 441 01fc 9DF9B320 		ldrsb	r2, [sp, #179]
 442 0200 2192     		str	r2, [sp, #132]
 443 0202 9DF9B420 		ldrsb	r2, [sp, #180]
 444 0206 2292     		str	r2, [sp, #136]
 445 0208 9DF9B520 		ldrsb	r2, [sp, #181]
 446 020c 2392     		str	r2, [sp, #140]
 447 020e 9DF9B620 		ldrsb	r2, [sp, #182]
 448 0212 2492     		str	r2, [sp, #144]
 449 0214 9DF9B720 		ldrsb	r2, [sp, #183]
 450 0218 2592     		str	r2, [sp, #148]
 451              	.LBE9:
 452              	.LBE11:
 453              	.LBB12:
 454              	.LBB13:
 258:../application/Src/encoders.c **** 										{
 455              		.loc 1 258 86 view .LVU142
 456 021a 9DF99820 		ldrsb	r2, [sp, #152]
 457 021e 0692     		str	r2, [sp, #24]
 458 0220 9DF99920 		ldrsb	r2, [sp, #153]
 459 0224 0792     		str	r2, [sp, #28]
 460 0226 9DF99A20 		ldrsb	r2, [sp, #154]
 461 022a 0892     		str	r2, [sp, #32]
 462 022c 9DF99B20 		ldrsb	r2, [sp, #155]
 463 0230 0992     		str	r2, [sp, #36]
 464 0232 9DF99C20 		ldrsb	r2, [sp, #156]
 465 0236 0A92     		str	r2, [sp, #40]
 466 0238 9DF99D20 		ldrsb	r2, [sp, #157]
 467 023c 0B92     		str	r2, [sp, #44]
 468 023e 9DF99E20 		ldrsb	r2, [sp, #158]
 469 0242 0C92     		str	r2, [sp, #48]
 470 0244 9DF99F20 		ldrsb	r2, [sp, #159]
 471 0248 0D92     		str	r2, [sp, #52]
 472 024a 9DF9A020 		ldrsb	r2, [sp, #160]
 473 024e 0E92     		str	r2, [sp, #56]
ARM GAS  /tmp/ccz56Q5C.s 			page 17


 474 0250 9DF9A120 		ldrsb	r2, [sp, #161]
 475 0254 1192     		str	r2, [sp, #68]
 476 0256 9DF9A220 		ldrsb	r2, [sp, #162]
 477 025a 1292     		str	r2, [sp, #72]
 478 025c 9DF9A320 		ldrsb	r2, [sp, #163]
 479 0260 1392     		str	r2, [sp, #76]
 480 0262 9DF9A420 		ldrsb	r2, [sp, #164]
 481 0266 1492     		str	r2, [sp, #80]
 482 0268 9DF9A520 		ldrsb	r2, [sp, #165]
 483 026c 1592     		str	r2, [sp, #84]
 484 026e 9DF9A620 		ldrsb	r2, [sp, #166]
 485 0272 1B92     		str	r2, [sp, #108]
 486 0274 9DF9A720 		ldrsb	r2, [sp, #167]
 487 0278 1C92     		str	r2, [sp, #112]
 488              	.LBE13:
 489              	.LBE12:
 152:../application/Src/encoders.c **** 				{
 490              		.loc 1 152 35 view .LVU143
 491 027a 04F55E72 		add	r2, r4, #888
 492 027e 0392     		str	r2, [sp, #12]
 493 0280 CDE904A8 		strd	r10, r8, [sp, #16]
 494              	.LVL26:
 495              	.L51:
 152:../application/Src/encoders.c **** 				{
 496              		.loc 1 152 35 view .LVU144
 497              	.LBE25:
 142:../application/Src/encoders.c **** 		{
 498              		.loc 1 142 3 is_stmt 1 view .LVU145
 142:../application/Src/encoders.c **** 		{
 499              		.loc 1 142 24 is_stmt 0 view .LVU146
 500 0284 93F91510 		ldrsb	r1, [r3, #21]
 142:../application/Src/encoders.c **** 		{
 501              		.loc 1 142 6 view .LVU147
 502 0288 0029     		cmp	r1, #0
 503 028a C0F2E880 		blt	.L23
 142:../application/Src/encoders.c **** 		{
 504              		.loc 1 142 55 discriminator 1 view .LVU148
 505 028e 93F91650 		ldrsb	r5, [r3, #22]
 142:../application/Src/encoders.c **** 		{
 506              		.loc 1 142 35 discriminator 1 view .LVU149
 507 0292 002D     		cmp	r5, #0
 508 0294 C0F2E380 		blt	.L23
 509              	.LBB26:
 144:../application/Src/encoders.c **** 			encoders_state[i].state <<= 2;			// shift prev state to clear space for new data
 510              		.loc 1 144 4 is_stmt 1 view .LVU150
 145:../application/Src/encoders.c **** 			
 511              		.loc 1 145 4 view .LVU151
 145:../application/Src/encoders.c **** 			
 512              		.loc 1 145 28 is_stmt 0 view .LVU152
 513 0298 1A7D     		ldrb	r2, [r3, #20]	@ zero_extendqisi2
 147:../application/Src/encoders.c **** 			if (raw_buttons_data[p_dev_config->buttons[encoders_state[i].pin_b].physical_num])	encoders_stat
 514              		.loc 1 147 71 view .LVU153
 515 029a 01EB4106 		add	r6, r1, r1, lsl #1
 145:../application/Src/encoders.c **** 			
 516              		.loc 1 145 28 view .LVU154
 517 029e 9200     		lsls	r2, r2, #2
 518 02a0 D2B2     		uxtb	r2, r2
ARM GAS  /tmp/ccz56Q5C.s 			page 18


 147:../application/Src/encoders.c **** 			if (raw_buttons_data[p_dev_config->buttons[encoders_state[i].pin_b].physical_num])	encoders_stat
 519              		.loc 1 147 71 view .LVU155
 520 02a2 2644     		add	r6, r6, r4
 145:../application/Src/encoders.c **** 			
 521              		.loc 1 145 28 view .LVU156
 522 02a4 1A75     		strb	r2, [r3, #20]
 147:../application/Src/encoders.c **** 			if (raw_buttons_data[p_dev_config->buttons[encoders_state[i].pin_b].physical_num])	encoders_stat
 523              		.loc 1 147 4 is_stmt 1 view .LVU157
 147:../application/Src/encoders.c **** 			if (raw_buttons_data[p_dev_config->buttons[encoders_state[i].pin_b].physical_num])	encoders_stat
 524              		.loc 1 147 71 is_stmt 0 view .LVU158
 525 02a6 96F92EE1 		ldrsb	lr, [r6, #302]
 147:../application/Src/encoders.c **** 			if (raw_buttons_data[p_dev_config->buttons[encoders_state[i].pin_b].physical_num])	encoders_stat
 526              		.loc 1 147 7 view .LVU159
 527 02aa 414F     		ldr	r7, .L121+8
 147:../application/Src/encoders.c **** 			if (raw_buttons_data[p_dev_config->buttons[encoders_state[i].pin_b].physical_num])	encoders_stat
 528              		.loc 1 147 71 view .LVU160
 529 02ac 4E00     		lsls	r6, r1, #1
 147:../application/Src/encoders.c **** 			if (raw_buttons_data[p_dev_config->buttons[encoders_state[i].pin_b].physical_num])	encoders_stat
 530              		.loc 1 147 7 view .LVU161
 531 02ae 17F80E70 		ldrb	r7, [r7, lr]	@ zero_extendqisi2
 147:../application/Src/encoders.c **** 			if (raw_buttons_data[p_dev_config->buttons[encoders_state[i].pin_b].physical_num])	encoders_stat
 532              		.loc 1 147 71 view .LVU162
 533 02b2 0296     		str	r6, [sp, #8]
 147:../application/Src/encoders.c **** 			if (raw_buttons_data[p_dev_config->buttons[encoders_state[i].pin_b].physical_num])	encoders_stat
 534              		.loc 1 147 7 view .LVU163
 535 02b4 17B1     		cbz	r7, .L25
 147:../application/Src/encoders.c **** 			if (raw_buttons_data[p_dev_config->buttons[encoders_state[i].pin_b].physical_num])	encoders_stat
 536              		.loc 1 147 87 is_stmt 1 discriminator 1 view .LVU164
 147:../application/Src/encoders.c **** 			if (raw_buttons_data[p_dev_config->buttons[encoders_state[i].pin_b].physical_num])	encoders_stat
 537              		.loc 1 147 111 is_stmt 0 discriminator 1 view .LVU165
 538 02b6 42F00102 		orr	r2, r2, #1
 539 02ba 1A75     		strb	r2, [r3, #20]
 540              	.L25:
 148:../application/Src/encoders.c **** 			
 541              		.loc 1 148 4 is_stmt 1 view .LVU166
 148:../application/Src/encoders.c **** 			
 542              		.loc 1 148 71 is_stmt 0 view .LVU167
 543 02bc 05EB4507 		add	r7, r5, r5, lsl #1
 544 02c0 2744     		add	r7, r7, r4
 545 02c2 97F92E81 		ldrsb	r8, [r7, #302]
 148:../application/Src/encoders.c **** 			
 546              		.loc 1 148 7 view .LVU168
 547 02c6 3A4F     		ldr	r7, .L121+8
 148:../application/Src/encoders.c **** 			
 548              		.loc 1 148 71 view .LVU169
 549 02c8 4FEA450C 		lsl	ip, r5, #1
 148:../application/Src/encoders.c **** 			
 550              		.loc 1 148 7 view .LVU170
 551 02cc 17F80870 		ldrb	r7, [r7, r8]	@ zero_extendqisi2
 552 02d0 17B1     		cbz	r7, .L26
 148:../application/Src/encoders.c **** 			
 553              		.loc 1 148 87 is_stmt 1 discriminator 1 view .LVU171
 148:../application/Src/encoders.c **** 			
 554              		.loc 1 148 111 is_stmt 0 discriminator 1 view .LVU172
 555 02d2 42F00202 		orr	r2, r2, #2
 556 02d6 1A75     		strb	r2, [r3, #20]
 557              	.L26:
ARM GAS  /tmp/ccz56Q5C.s 			page 19


 150:../application/Src/encoders.c **** 			{
 558              		.loc 1 150 4 is_stmt 1 view .LVU173
 150:../application/Src/encoders.c **** 			{
 559              		.loc 1 150 41 is_stmt 0 view .LVU174
 560 02d8 82EA9207 		eor	r7, r2, r2, lsr #2
 150:../application/Src/encoders.c **** 			{
 561              		.loc 1 150 7 view .LVU175
 562 02dc BE07     		lsls	r6, r7, #30
 150:../application/Src/encoders.c **** 			{
 563              		.loc 1 150 41 view .LVU176
 564 02de 4FEA9209 		lsr	r9, r2, #2
 150:../application/Src/encoders.c **** 			{
 565              		.loc 1 150 7 view .LVU177
 566 02e2 00F0C580 		beq	.L27
 152:../application/Src/encoders.c **** 				{
 567              		.loc 1 152 5 is_stmt 1 view .LVU178
 152:../application/Src/encoders.c **** 				{
 568              		.loc 1 152 35 is_stmt 0 view .LVU179
 569 02e6 039F     		ldr	r7, [sp, #12]
 570 02e8 3F5C     		ldrb	r7, [r7, r0]	@ zero_extendqisi2
 152:../application/Src/encoders.c **** 				{
 571              		.loc 1 152 5 view .LVU180
 572 02ea 012F     		cmp	r7, #1
 573 02ec 00F0DB80 		beq	.L28
 574 02f0 022F     		cmp	r7, #2
 156:../application/Src/encoders.c **** 					break;
 575              		.loc 1 156 49 view .LVU181
 576 02f2 02F00F07 		and	r7, r2, #15
 152:../application/Src/encoders.c **** 				{
 577              		.loc 1 152 5 view .LVU182
 578 02f6 00F0DC80 		beq	.L29
 156:../application/Src/encoders.c **** 					break;
 579              		.loc 1 156 7 is_stmt 1 view .LVU183
 156:../application/Src/encoders.c **** 					break;
 580              		.loc 1 156 11 is_stmt 0 view .LVU184
 581 02fa 2E4E     		ldr	r6, .L121+12
 582 02fc 16F90790 		ldrsb	r9, [r6, r7]
 583              	.LVL27:
 157:../application/Src/encoders.c **** 					
 584              		.loc 1 157 6 is_stmt 1 view .LVU185
 585              	.L30:
 168:../application/Src/encoders.c **** 				{
 586              		.loc 1 168 5 view .LVU186
 168:../application/Src/encoders.c **** 				{
 587              		.loc 1 168 8 is_stmt 0 view .LVU187
 588 0300 B9F1000F 		cmp	r9, #0
 589 0304 7BD0     		beq	.L40
 170:../application/Src/encoders.c **** 						if ((millis - encoders_state[i].time_last > 50) || (encoders_state[i].dir == encoders_state[i
 590              		.loc 1 170 7 is_stmt 1 view .LVU188
 170:../application/Src/encoders.c **** 						if ((millis - encoders_state[i].time_last > 50) || (encoders_state[i].dir == encoders_state[i
 591              		.loc 1 170 43 is_stmt 0 view .LVU189
 592 0306 40F33C81 		ble	.L110
 170:../application/Src/encoders.c **** 						if ((millis - encoders_state[i].time_last > 50) || (encoders_state[i].dir == encoders_state[i
 593              		.loc 1 170 29 view .LVU190
 594 030a 049E     		ldr	r6, [sp, #16]
 595 030c 00EB400B 		add	fp, r0, r0, lsl #1
 596 0310 06EB8B0B 		add	fp, r6, fp, lsl #2
ARM GAS  /tmp/ccz56Q5C.s 			page 20


 597 0314 0126     		movs	r6, #1
 598 0316 9BF80B70 		ldrb	r7, [fp, #11]	@ zero_extendqisi2
 599 031a 00FA06FA 		lsl	r10, r0, r6
 600 031e 66F30307 		bfi	r7, r6, #0, #4
 601 0322 8BF80B70 		strb	r7, [fp, #11]
 171:../application/Src/encoders.c **** 						{
 602              		.loc 1 171 19 view .LVU191
 603 0326 DF68     		ldr	r7, [r3, #12]
 604 0328 009E     		ldr	r6, [sp]
 170:../application/Src/encoders.c **** 						if ((millis - encoders_state[i].time_last > 50) || (encoders_state[i].dir == encoders_state[i
 605              		.loc 1 170 29 view .LVU192
 606 032a 0BF1080B 		add	fp, fp, #8
 171:../application/Src/encoders.c **** 						{
 607              		.loc 1 171 7 is_stmt 1 view .LVU193
 171:../application/Src/encoders.c **** 						{
 608              		.loc 1 171 19 is_stmt 0 view .LVU194
 609 032e F71B     		subs	r7, r6, r7
 171:../application/Src/encoders.c **** 						{
 610              		.loc 1 171 10 view .LVU195
 611 0330 322F     		cmp	r7, #50
 612 0332 40F2C280 		bls	.L111
 613              	.L58:
 176:../application/Src/encoders.c **** 										 shifts_state & 1<<(p_dev_config->buttons[encoders_state[i].pin_a].shift_modificator-1)))
 614              		.loc 1 176 9 is_stmt 1 view .LVU196
 176:../application/Src/encoders.c **** 										 shifts_state & 1<<(p_dev_config->buttons[encoders_state[i].pin_a].shift_modificator-1)))
 615              		.loc 1 176 60 is_stmt 0 view .LVU197
 616 0336 4A00     		lsls	r2, r1, #1
 617 0338 0A44     		add	r2, r2, r1
 618 033a 2244     		add	r2, r2, r4
 619 033c 92F82F21 		ldrb	r2, [r2, #303]	@ zero_extendqisi2
 176:../application/Src/encoders.c **** 										 shifts_state & 1<<(p_dev_config->buttons[encoders_state[i].pin_a].shift_modificator-1)))
 620              		.loc 1 176 12 view .LVU198
 621 0340 5209     		lsrs	r2, r2, #5
 622 0342 39D1     		bne	.L112
 182:../application/Src/encoders.c **** 								{
 623              		.loc 1 182 14 is_stmt 1 view .LVU199
 624              	.LVL28:
 625              	.LBB15:
 626              	.LBB16:
 186:../application/Src/encoders.c **** 									{
 627              		.loc 1 186 26 view .LVU200
 188:../application/Src/encoders.c **** 										{
 628              		.loc 1 188 11 view .LVU201
 188:../application/Src/encoders.c **** 										{
 629              		.loc 1 188 14 is_stmt 0 view .LVU202
 630 0344 069A     		ldr	r2, [sp, #24]
 631 0346 9645     		cmp	lr, r2
 632 0348 43D0     		beq	.L35
 186:../application/Src/encoders.c **** 									{
 633              		.loc 1 186 48 is_stmt 1 view .LVU203
 634              	.LVL29:
 186:../application/Src/encoders.c **** 									{
 635              		.loc 1 186 26 view .LVU204
 188:../application/Src/encoders.c **** 										{
 636              		.loc 1 188 11 view .LVU205
 188:../application/Src/encoders.c **** 										{
 637              		.loc 1 188 14 is_stmt 0 view .LVU206
ARM GAS  /tmp/ccz56Q5C.s 			page 21


 638 034a 079A     		ldr	r2, [sp, #28]
 639 034c 9645     		cmp	lr, r2
 640 034e 40D0     		beq	.L35
 186:../application/Src/encoders.c **** 									{
 641              		.loc 1 186 48 is_stmt 1 view .LVU207
 642              	.LVL30:
 186:../application/Src/encoders.c **** 									{
 643              		.loc 1 186 26 view .LVU208
 188:../application/Src/encoders.c **** 										{
 644              		.loc 1 188 11 view .LVU209
 188:../application/Src/encoders.c **** 										{
 645              		.loc 1 188 14 is_stmt 0 view .LVU210
 646 0350 089A     		ldr	r2, [sp, #32]
 647 0352 9645     		cmp	lr, r2
 648 0354 3DD0     		beq	.L35
 186:../application/Src/encoders.c **** 									{
 649              		.loc 1 186 48 is_stmt 1 view .LVU211
 650              	.LVL31:
 186:../application/Src/encoders.c **** 									{
 651              		.loc 1 186 26 view .LVU212
 188:../application/Src/encoders.c **** 										{
 652              		.loc 1 188 11 view .LVU213
 188:../application/Src/encoders.c **** 										{
 653              		.loc 1 188 14 is_stmt 0 view .LVU214
 654 0356 099A     		ldr	r2, [sp, #36]
 655 0358 9645     		cmp	lr, r2
 656 035a 3AD0     		beq	.L35
 186:../application/Src/encoders.c **** 									{
 657              		.loc 1 186 48 is_stmt 1 view .LVU215
 658              	.LVL32:
 186:../application/Src/encoders.c **** 									{
 659              		.loc 1 186 26 view .LVU216
 188:../application/Src/encoders.c **** 										{
 660              		.loc 1 188 11 view .LVU217
 188:../application/Src/encoders.c **** 										{
 661              		.loc 1 188 14 is_stmt 0 view .LVU218
 662 035c 0A9A     		ldr	r2, [sp, #40]
 663 035e 9645     		cmp	lr, r2
 664 0360 37D0     		beq	.L35
 186:../application/Src/encoders.c **** 									{
 665              		.loc 1 186 48 is_stmt 1 view .LVU219
 666              	.LVL33:
 186:../application/Src/encoders.c **** 									{
 667              		.loc 1 186 26 view .LVU220
 188:../application/Src/encoders.c **** 										{
 668              		.loc 1 188 11 view .LVU221
 188:../application/Src/encoders.c **** 										{
 669              		.loc 1 188 14 is_stmt 0 view .LVU222
 670 0362 0B9A     		ldr	r2, [sp, #44]
 671 0364 9645     		cmp	lr, r2
 672 0366 34D0     		beq	.L35
 186:../application/Src/encoders.c **** 									{
 673              		.loc 1 186 48 is_stmt 1 view .LVU223
 674              	.LVL34:
 186:../application/Src/encoders.c **** 									{
 675              		.loc 1 186 26 view .LVU224
 188:../application/Src/encoders.c **** 										{
ARM GAS  /tmp/ccz56Q5C.s 			page 22


 676              		.loc 1 188 11 view .LVU225
 188:../application/Src/encoders.c **** 										{
 677              		.loc 1 188 14 is_stmt 0 view .LVU226
 678 0368 0C9A     		ldr	r2, [sp, #48]
 679 036a 9645     		cmp	lr, r2
 680 036c 31D0     		beq	.L35
 186:../application/Src/encoders.c **** 									{
 681              		.loc 1 186 48 is_stmt 1 view .LVU227
 682              	.LVL35:
 186:../application/Src/encoders.c **** 									{
 683              		.loc 1 186 26 view .LVU228
 188:../application/Src/encoders.c **** 										{
 684              		.loc 1 188 11 view .LVU229
 188:../application/Src/encoders.c **** 										{
 685              		.loc 1 188 14 is_stmt 0 view .LVU230
 686 036e 0D9A     		ldr	r2, [sp, #52]
 687 0370 9645     		cmp	lr, r2
 688 0372 2ED0     		beq	.L35
 186:../application/Src/encoders.c **** 									{
 689              		.loc 1 186 48 is_stmt 1 view .LVU231
 690              	.LVL36:
 186:../application/Src/encoders.c **** 									{
 691              		.loc 1 186 26 view .LVU232
 188:../application/Src/encoders.c **** 										{
 692              		.loc 1 188 11 view .LVU233
 188:../application/Src/encoders.c **** 										{
 693              		.loc 1 188 14 is_stmt 0 view .LVU234
 694 0374 0E9A     		ldr	r2, [sp, #56]
 695 0376 9645     		cmp	lr, r2
 696 0378 2BD0     		beq	.L35
 186:../application/Src/encoders.c **** 									{
 697              		.loc 1 186 48 is_stmt 1 view .LVU235
 698              	.LVL37:
 186:../application/Src/encoders.c **** 									{
 699              		.loc 1 186 26 view .LVU236
 188:../application/Src/encoders.c **** 										{
 700              		.loc 1 188 11 view .LVU237
 188:../application/Src/encoders.c **** 										{
 701              		.loc 1 188 14 is_stmt 0 view .LVU238
 702 037a 119A     		ldr	r2, [sp, #68]
 703 037c 9645     		cmp	lr, r2
 704 037e 28D0     		beq	.L35
 186:../application/Src/encoders.c **** 									{
 705              		.loc 1 186 48 is_stmt 1 view .LVU239
 706              	.LVL38:
 186:../application/Src/encoders.c **** 									{
 707              		.loc 1 186 26 view .LVU240
 188:../application/Src/encoders.c **** 										{
 708              		.loc 1 188 11 view .LVU241
 188:../application/Src/encoders.c **** 										{
 709              		.loc 1 188 14 is_stmt 0 view .LVU242
 710 0380 129A     		ldr	r2, [sp, #72]
 711 0382 9645     		cmp	lr, r2
 712 0384 25D0     		beq	.L35
 186:../application/Src/encoders.c **** 									{
 713              		.loc 1 186 48 is_stmt 1 view .LVU243
 714              	.LVL39:
ARM GAS  /tmp/ccz56Q5C.s 			page 23


 186:../application/Src/encoders.c **** 									{
 715              		.loc 1 186 26 view .LVU244
 188:../application/Src/encoders.c **** 										{
 716              		.loc 1 188 11 view .LVU245
 188:../application/Src/encoders.c **** 										{
 717              		.loc 1 188 14 is_stmt 0 view .LVU246
 718 0386 139A     		ldr	r2, [sp, #76]
 719 0388 9645     		cmp	lr, r2
 720 038a 22D0     		beq	.L35
 186:../application/Src/encoders.c **** 									{
 721              		.loc 1 186 48 is_stmt 1 view .LVU247
 722              	.LVL40:
 186:../application/Src/encoders.c **** 									{
 723              		.loc 1 186 26 view .LVU248
 188:../application/Src/encoders.c **** 										{
 724              		.loc 1 188 11 view .LVU249
 188:../application/Src/encoders.c **** 										{
 725              		.loc 1 188 14 is_stmt 0 view .LVU250
 726 038c 149A     		ldr	r2, [sp, #80]
 727 038e 9645     		cmp	lr, r2
 728 0390 1FD0     		beq	.L35
 186:../application/Src/encoders.c **** 									{
 729              		.loc 1 186 48 is_stmt 1 view .LVU251
 730              	.LVL41:
 186:../application/Src/encoders.c **** 									{
 731              		.loc 1 186 26 view .LVU252
 188:../application/Src/encoders.c **** 										{
 732              		.loc 1 188 11 view .LVU253
 188:../application/Src/encoders.c **** 										{
 733              		.loc 1 188 14 is_stmt 0 view .LVU254
 734 0392 159A     		ldr	r2, [sp, #84]
 735 0394 9645     		cmp	lr, r2
 736 0396 1CD0     		beq	.L35
 186:../application/Src/encoders.c **** 									{
 737              		.loc 1 186 48 is_stmt 1 view .LVU255
 738              	.LVL42:
 186:../application/Src/encoders.c **** 									{
 739              		.loc 1 186 26 view .LVU256
 188:../application/Src/encoders.c **** 										{
 740              		.loc 1 188 11 view .LVU257
 188:../application/Src/encoders.c **** 										{
 741              		.loc 1 188 14 is_stmt 0 view .LVU258
 742 0398 1B9A     		ldr	r2, [sp, #108]
 743 039a 9645     		cmp	lr, r2
 744 039c 19D0     		beq	.L35
 186:../application/Src/encoders.c **** 									{
 745              		.loc 1 186 48 is_stmt 1 view .LVU259
 746              	.LVL43:
 186:../application/Src/encoders.c **** 									{
 747              		.loc 1 186 26 view .LVU260
 188:../application/Src/encoders.c **** 										{
 748              		.loc 1 188 11 view .LVU261
 188:../application/Src/encoders.c **** 										{
 749              		.loc 1 188 14 is_stmt 0 view .LVU262
 750 039e 1C9A     		ldr	r2, [sp, #112]
 751 03a0 9645     		cmp	lr, r2
 752 03a2 0FD1     		bne	.L105
ARM GAS  /tmp/ccz56Q5C.s 			page 24


 753 03a4 15E0     		b	.L35
 754              	.L122:
 755 03a6 00BF     		.align	2
 756              	.L121:
 757 03a8 00000000 		.word	encoders_state
 758 03ac 00000000 		.word	shifts_state
 759 03b0 00000000 		.word	raw_buttons_data
 760 03b4 00000000 		.word	.LANCHOR0
 761              	.LVL44:
 762              	.L112:
 188:../application/Src/encoders.c **** 										{
 763              		.loc 1 188 14 view .LVU263
 764              	.LBE16:
 765              	.LBE15:
 176:../application/Src/encoders.c **** 										 shifts_state & 1<<(p_dev_config->buttons[encoders_state[i].pin_a].shift_modificator-1)))
 766              		.loc 1 176 83 discriminator 1 view .LVU264
 767 03b8 059E     		ldr	r6, [sp, #20]
 177:../application/Src/encoders.c **** 								{
 768              		.loc 1 177 95 discriminator 1 view .LVU265
 769 03ba 013A     		subs	r2, r2, #1
 176:../application/Src/encoders.c **** 										 shifts_state & 1<<(p_dev_config->buttons[encoders_state[i].pin_a].shift_modificator-1)))
 770              		.loc 1 176 83 discriminator 1 view .LVU266
 771 03bc 46FA02F2 		asr	r2, r6, r2
 772 03c0 D207     		lsls	r2, r2, #31
 773 03c2 06D5     		bpl	.L35
 774              	.L105:
 775              	.LBB18:
 776              	.LBB17:
 186:../application/Src/encoders.c **** 									{
 777              		.loc 1 186 48 is_stmt 1 view .LVU267
 778              	.LVL45:
 186:../application/Src/encoders.c **** 									{
 779              		.loc 1 186 26 view .LVU268
 186:../application/Src/encoders.c **** 									{
 780              		.loc 1 186 26 is_stmt 0 view .LVU269
 781              	.LBE17:
 195:../application/Src/encoders.c **** 									{
 782              		.loc 1 195 10 is_stmt 1 view .LVU270
 197:../application/Src/encoders.c **** 									}
 783              		.loc 1 197 11 view .LVU271
 197:../application/Src/encoders.c **** 									}
 784              		.loc 1 197 67 is_stmt 0 view .LVU272
 785 03c4 019A     		ldr	r2, [sp, #4]
 786 03c6 02EBC107 		add	r7, r2, r1, lsl #3
 787 03ca 3A79     		ldrb	r2, [r7, #4]	@ zero_extendqisi2
 788 03cc 42F01002 		orr	r2, r2, #16
 789 03d0 3A71     		strb	r2, [r7, #4]
 790              	.LVL46:
 791              	.L35:
 197:../application/Src/encoders.c **** 									}
 792              		.loc 1 197 67 view .LVU273
 793              	.LBE18:
 200:../application/Src/encoders.c **** 							}
 794              		.loc 1 200 9 is_stmt 1 view .LVU274
 200:../application/Src/encoders.c **** 							}
 795              		.loc 1 200 36 is_stmt 0 view .LVU275
 796 03d2 0126     		movs	r6, #1
ARM GAS  /tmp/ccz56Q5C.s 			page 25


 797 03d4 049A     		ldr	r2, [sp, #16]
 798 03d6 8244     		add	r10, r10, r0
 799 03d8 02EB8A0A 		add	r10, r2, r10, lsl #2
 800 03dc 9AF80B20 		ldrb	r2, [r10, #11]	@ zero_extendqisi2
 801 03e0 66F30712 		bfi	r2, r6, #4, #4
 802 03e4 8AF80B20 		strb	r2, [r10, #11]
 803              	.L36:
 231:../application/Src/encoders.c **** 							encoders_state[i].cnt += stt;
 804              		.loc 1 231 8 is_stmt 1 view .LVU276
 232:../application/Src/encoders.c **** 							
 805              		.loc 1 232 30 is_stmt 0 view .LVU277
 806 03e8 1A69     		ldr	r2, [r3, #16]
 231:../application/Src/encoders.c **** 							encoders_state[i].cnt += stt;
 807              		.loc 1 231 36 view .LVU278
 808 03ea 009E     		ldr	r6, [sp]
 232:../application/Src/encoders.c **** 							
 809              		.loc 1 232 30 view .LVU279
 810 03ec 4A44     		add	r2, r2, r9
 234:../application/Src/encoders.c **** 							if (encoders_state[i].cnt < AXIS_MIN_VALUE) encoders_state[i].cnt = AXIS_MIN_VALUE;
 811              		.loc 1 234 11 view .LVU280
 812 03ee B2F5004F 		cmp	r2, #32768
 231:../application/Src/encoders.c **** 							encoders_state[i].cnt += stt;
 813              		.loc 1 231 36 view .LVU281
 814 03f2 DE60     		str	r6, [r3, #12]
 232:../application/Src/encoders.c **** 							
 815              		.loc 1 232 8 is_stmt 1 view .LVU282
 234:../application/Src/encoders.c **** 							if (encoders_state[i].cnt < AXIS_MIN_VALUE) encoders_state[i].cnt = AXIS_MIN_VALUE;
 816              		.loc 1 234 8 view .LVU283
 234:../application/Src/encoders.c **** 							if (encoders_state[i].cnt < AXIS_MIN_VALUE) encoders_state[i].cnt = AXIS_MIN_VALUE;
 817              		.loc 1 234 11 is_stmt 0 view .LVU284
 818 03f4 C0F28181 		blt	.L39
 234:../application/Src/encoders.c **** 							if (encoders_state[i].cnt < AXIS_MIN_VALUE) encoders_state[i].cnt = AXIS_MIN_VALUE;
 819              		.loc 1 234 52 is_stmt 1 discriminator 1 view .LVU285
 234:../application/Src/encoders.c **** 							if (encoders_state[i].cnt < AXIS_MIN_VALUE) encoders_state[i].cnt = AXIS_MIN_VALUE;
 820              		.loc 1 234 74 is_stmt 0 discriminator 1 view .LVU286
 821 03f8 47F6FF72 		movw	r2, #32767
 822 03fc 1A61     		str	r2, [r3, #16]
 235:../application/Src/encoders.c **** 							
 823              		.loc 1 235 8 is_stmt 1 discriminator 1 view .LVU287
 824              	.LVL47:
 825              	.L40:
 235:../application/Src/encoders.c **** 							
 826              		.loc 1 235 8 is_stmt 0 discriminator 1 view .LVU288
 827              	.LBE26:
 308:../application/Src/encoders.c **** 		{		
 828              		.loc 1 308 3 is_stmt 1 view .LVU289
 829              	.LBB27:
 310:../application/Src/encoders.c **** 			uint16_t b_press_time;
 830              		.loc 1 310 4 view .LVU290
 311:../application/Src/encoders.c **** 
 831              		.loc 1 311 4 view .LVU291
 314:../application/Src/encoders.c **** 			{	
 832              		.loc 1 314 4 view .LVU292
 314:../application/Src/encoders.c **** 			{	
 833              		.loc 1 314 58 is_stmt 0 view .LVU293
 834 03fe 4A00     		lsls	r2, r1, #1
 835 0400 0A44     		add	r2, r2, r1
ARM GAS  /tmp/ccz56Q5C.s 			page 26


 836 0402 1646     		mov	r6, r2
 837 0404 2644     		add	r6, r6, r4
 838 0406 96F83021 		ldrb	r2, [r6, #304]	@ zero_extendqisi2
 839 040a 5209     		lsrs	r2, r2, #5
 314:../application/Src/encoders.c **** 			{	
 840              		.loc 1 314 4 view .LVU294
 841 040c 022A     		cmp	r2, #2
 842 040e 35D0     		beq	.L52
 843 0410 032A     		cmp	r2, #3
 844 0412 45D0     		beq	.L53
 845 0414 012A     		cmp	r2, #1
 846 0416 40D0     		beq	.L113
 326:../application/Src/encoders.c **** 						break;
 847              		.loc 1 326 7 is_stmt 1 view .LVU295
 326:../application/Src/encoders.c **** 						break;
 848              		.loc 1 326 20 is_stmt 0 view .LVU296
 849 0418 94F81EE0 		ldrb	lr, [r4, #30]	@ zero_extendqisi2
 850              	.LVL48:
 327:../application/Src/encoders.c **** 			};
 851              		.loc 1 327 7 is_stmt 1 view .LVU297
 852              	.L45:
 328:../application/Src/encoders.c **** 			
 853              		.loc 1 328 5 view .LVU298
 330:../application/Src/encoders.c **** 			{	
 854              		.loc 1 330 4 view .LVU299
 330:../application/Src/encoders.c **** 			{	
 855              		.loc 1 330 58 is_stmt 0 view .LVU300
 856 041c AC44     		add	ip, ip, r5
 857 041e A444     		add	ip, ip, r4
 858 0420 9CF83021 		ldrb	r2, [ip, #304]	@ zero_extendqisi2
 859 0424 5209     		lsrs	r2, r2, #5
 330:../application/Src/encoders.c **** 			{	
 860              		.loc 1 330 4 view .LVU301
 861 0426 022A     		cmp	r2, #2
 862 0428 31D0     		beq	.L46
 863              	.L115:
 330:../application/Src/encoders.c **** 			{	
 864              		.loc 1 330 4 view .LVU302
 865 042a 032A     		cmp	r2, #3
 866 042c 32D0     		beq	.L47
 867 042e 012A     		cmp	r2, #1
 868 0430 21D0     		beq	.L114
 342:../application/Src/encoders.c **** 						break;
 869              		.loc 1 342 7 is_stmt 1 view .LVU303
 342:../application/Src/encoders.c **** 						break;
 870              		.loc 1 342 20 is_stmt 0 view .LVU304
 871 0432 A77F     		ldrb	r7, [r4, #30]	@ zero_extendqisi2
 872              	.LVL49:
 343:../application/Src/encoders.c **** 			};
 873              		.loc 1 343 7 is_stmt 1 view .LVU305
 874              	.L49:
 344:../application/Src/encoders.c **** 					
 875              		.loc 1 344 5 view .LVU306
 347:../application/Src/encoders.c **** 			{	
 876              		.loc 1 347 4 view .LVU307
 347:../application/Src/encoders.c **** 			{	
 877              		.loc 1 347 15 is_stmt 0 view .LVU308
ARM GAS  /tmp/ccz56Q5C.s 			page 27


 878 0434 DA68     		ldr	r2, [r3, #12]
 879 0436 009E     		ldr	r6, [sp]
 880 0438 B21A     		subs	r2, r6, r2
 347:../application/Src/encoders.c **** 			{	
 881              		.loc 1 347 7 view .LVU309
 882 043a 7245     		cmp	r2, lr
 883 043c 06D9     		bls	.L50
 349:../application/Src/encoders.c **** 			}
 884              		.loc 1 349 5 is_stmt 1 view .LVU310
 349:../application/Src/encoders.c **** 			}
 885              		.loc 1 349 61 is_stmt 0 view .LVU311
 886 043e 019E     		ldr	r6, [sp, #4]
 887 0440 06EBC101 		add	r1, r6, r1, lsl #3
 888 0444 0E79     		ldrb	r6, [r1, #4]	@ zero_extendqisi2
 889 0446 6FF30416 		bfc	r6, #4, #1
 890 044a 0E71     		strb	r6, [r1, #4]
 891              	.L50:
 351:../application/Src/encoders.c **** 			{	
 892              		.loc 1 351 4 is_stmt 1 view .LVU312
 351:../application/Src/encoders.c **** 			{	
 893              		.loc 1 351 7 is_stmt 0 view .LVU313
 894 044c BA42     		cmp	r2, r7
 895 044e 06D9     		bls	.L23
 353:../application/Src/encoders.c **** 			}
 896              		.loc 1 353 5 is_stmt 1 view .LVU314
 353:../application/Src/encoders.c **** 			}
 897              		.loc 1 353 61 is_stmt 0 view .LVU315
 898 0450 019A     		ldr	r2, [sp, #4]
 899 0452 02EBC505 		add	r5, r2, r5, lsl #3
 900 0456 2A79     		ldrb	r2, [r5, #4]	@ zero_extendqisi2
 901 0458 6FF30412 		bfc	r2, #4, #1
 902 045c 2A71     		strb	r2, [r5, #4]
 903              	.LVL50:
 904              	.L23:
 353:../application/Src/encoders.c **** 			}
 905              		.loc 1 353 61 view .LVU316
 906              	.LBE27:
 140:../application/Src/encoders.c **** 	{
 907              		.loc 1 140 36 is_stmt 1 discriminator 2 view .LVU317
 140:../application/Src/encoders.c **** 	{
 908              		.loc 1 140 37 is_stmt 0 discriminator 2 view .LVU318
 909 045e 0130     		adds	r0, r0, #1
 910              	.LVL51:
 140:../application/Src/encoders.c **** 	{
 911              		.loc 1 140 16 is_stmt 1 discriminator 2 view .LVU319
 140:../application/Src/encoders.c **** 	{
 912              		.loc 1 140 2 is_stmt 0 discriminator 2 view .LVU320
 913 0460 1028     		cmp	r0, #16
 914 0462 03F10C03 		add	r3, r3, #12
 915 0466 7FF40DAF 		bne	.L51
 916              	.LBE5:
 917              		.loc 1 357 1 view .LVU321
 918 046a 2FB0     		add	sp, sp, #188
 919              	.LCFI4:
 920              		.cfi_remember_state
 921              		.cfi_def_cfa_offset 36
 922              	.LVL52:
ARM GAS  /tmp/ccz56Q5C.s 			page 28


 923              		.loc 1 357 1 view .LVU322
 924              		@ sp needed
 925 046c BDE8F08F 		pop	{r4, r5, r6, r7, r8, r9, r10, fp, pc}
 926              	.LVL53:
 927              	.L27:
 928              	.LCFI5:
 929              		.cfi_restore_state
 930              	.LBB31:
 931              	.LBB28:
 304:../application/Src/encoders.c **** 			}
 932              		.loc 1 304 5 is_stmt 1 view .LVU323
 304:../application/Src/encoders.c **** 			}
 933              		.loc 1 304 29 is_stmt 0 view .LVU324
 934 0470 83F81490 		strb	r9, [r3, #20]
 935 0474 C3E7     		b	.L40
 936              	.LVL54:
 937              	.L114:
 304:../application/Src/encoders.c **** 			}
 938              		.loc 1 304 29 view .LVU325
 939              	.LBE28:
 940              	.LBB29:
 333:../application/Src/encoders.c **** 						break;
 941              		.loc 1 333 7 is_stmt 1 view .LVU326
 333:../application/Src/encoders.c **** 						break;
 942              		.loc 1 333 20 is_stmt 0 view .LVU327
 943 0476 B4F8AE72 		ldrh	r7, [r4, #686]
 944              	.LVL55:
 334:../application/Src/encoders.c **** 					case BUTTON_TIMER_2:
 945              		.loc 1 334 7 is_stmt 1 view .LVU328
 946 047a DBE7     		b	.L49
 947              	.LVL56:
 948              	.L52:
 320:../application/Src/encoders.c **** 						break;
 949              		.loc 1 320 7 view .LVU329
 330:../application/Src/encoders.c **** 			{	
 950              		.loc 1 330 58 is_stmt 0 view .LVU330
 951 047c AC44     		add	ip, ip, r5
 952 047e A444     		add	ip, ip, r4
 953 0480 9CF83021 		ldrb	r2, [ip, #304]	@ zero_extendqisi2
 320:../application/Src/encoders.c **** 						break;
 954              		.loc 1 320 20 view .LVU331
 955 0484 B4F8B0E2 		ldrh	lr, [r4, #688]
 956              	.LVL57:
 321:../application/Src/encoders.c **** 					case BUTTON_TIMER_3:
 957              		.loc 1 321 7 is_stmt 1 view .LVU332
 328:../application/Src/encoders.c **** 			
 958              		.loc 1 328 5 view .LVU333
 330:../application/Src/encoders.c **** 			{	
 959              		.loc 1 330 4 view .LVU334
 330:../application/Src/encoders.c **** 			{	
 960              		.loc 1 330 58 is_stmt 0 view .LVU335
 961 0488 5209     		lsrs	r2, r2, #5
 330:../application/Src/encoders.c **** 			{	
 962              		.loc 1 330 4 view .LVU336
 963 048a 022A     		cmp	r2, #2
 964 048c CDD1     		bne	.L115
 965              	.L46:
ARM GAS  /tmp/ccz56Q5C.s 			page 29


 336:../application/Src/encoders.c **** 						break;
 966              		.loc 1 336 7 is_stmt 1 view .LVU337
 336:../application/Src/encoders.c **** 						break;
 967              		.loc 1 336 20 is_stmt 0 view .LVU338
 968 048e B4F8B072 		ldrh	r7, [r4, #688]
 969              	.LVL58:
 337:../application/Src/encoders.c **** 					case BUTTON_TIMER_3:
 970              		.loc 1 337 7 is_stmt 1 view .LVU339
 971 0492 CFE7     		b	.L49
 972              	.LVL59:
 973              	.L47:
 339:../application/Src/encoders.c **** 						break;
 974              		.loc 1 339 7 view .LVU340
 339:../application/Src/encoders.c **** 						break;
 975              		.loc 1 339 20 is_stmt 0 view .LVU341
 976 0494 B4F8B272 		ldrh	r7, [r4, #690]
 977              	.LVL60:
 340:../application/Src/encoders.c **** 					default:
 978              		.loc 1 340 7 is_stmt 1 view .LVU342
 979 0498 CCE7     		b	.L49
 980              	.LVL61:
 981              	.L113:
 317:../application/Src/encoders.c **** 						break;
 982              		.loc 1 317 7 view .LVU343
 317:../application/Src/encoders.c **** 						break;
 983              		.loc 1 317 20 is_stmt 0 view .LVU344
 984 049a B4F8AEE2 		ldrh	lr, [r4, #686]
 985              	.LVL62:
 318:../application/Src/encoders.c **** 					case BUTTON_TIMER_2:
 986              		.loc 1 318 7 is_stmt 1 view .LVU345
 987 049e BDE7     		b	.L45
 988              	.LVL63:
 989              	.L53:
 323:../application/Src/encoders.c **** 						break;
 990              		.loc 1 323 7 view .LVU346
 323:../application/Src/encoders.c **** 						break;
 991              		.loc 1 323 20 is_stmt 0 view .LVU347
 992 04a0 B4F8B2E2 		ldrh	lr, [r4, #690]
 993              	.LVL64:
 324:../application/Src/encoders.c **** 					default:
 994              		.loc 1 324 7 is_stmt 1 view .LVU348
 995 04a4 BAE7     		b	.L45
 996              	.LVL65:
 997              	.L28:
 324:../application/Src/encoders.c **** 					default:
 998              		.loc 1 324 7 is_stmt 0 view .LVU349
 999              	.LBE29:
 1000              	.LBB30:
 160:../application/Src/encoders.c **** 						break;
 1001              		.loc 1 160 7 is_stmt 1 view .LVU350
 160:../application/Src/encoders.c **** 						break;
 1002              		.loc 1 160 11 is_stmt 0 view .LVU351
 1003 04a6 A04E     		ldr	r6, .L123
 160:../application/Src/encoders.c **** 						break;
 1004              		.loc 1 160 49 view .LVU352
 1005 04a8 02F00F07 		and	r7, r2, #15
 160:../application/Src/encoders.c **** 						break;
ARM GAS  /tmp/ccz56Q5C.s 			page 30


 1006              		.loc 1 160 11 view .LVU353
 1007 04ac 16F90790 		ldrsb	r9, [r6, r7]
 1008              	.LVL66:
 161:../application/Src/encoders.c **** 					
 1009              		.loc 1 161 7 is_stmt 1 view .LVU354
 1010 04b0 26E7     		b	.L30
 1011              	.LVL67:
 1012              	.L29:
 164:../application/Src/encoders.c **** 						break;
 1013              		.loc 1 164 7 view .LVU355
 164:../application/Src/encoders.c **** 						break;
 1014              		.loc 1 164 11 is_stmt 0 view .LVU356
 1015 04b2 9E4E     		ldr	r6, .L123+4
 1016 04b4 16F90790 		ldrsb	r9, [r6, r7]
 1017              	.LVL68:
 165:../application/Src/encoders.c **** 				}
 1018              		.loc 1 165 7 is_stmt 1 view .LVU357
 1019 04b8 22E7     		b	.L30
 1020              	.L111:
 171:../application/Src/encoders.c **** 						{
 1021              		.loc 1 171 101 is_stmt 0 view .LVU358
 1022 04ba 9BF803B0 		ldrb	fp, [fp, #3]	@ zero_extendqisi2
 1023 04be 4BF3031B 		sbfx	fp, fp, #4, #4
 1024 04c2 4FFA8BFB 		sxtb	fp, fp
 171:../application/Src/encoders.c **** 						{
 1025              		.loc 1 171 55 view .LVU359
 1026 04c6 BBF1010F 		cmp	fp, #1
 1027 04ca 3FF434AF 		beq	.L58
 1028              	.L59:
 238:../application/Src/encoders.c **** 						{
 1029              		.loc 1 238 12 is_stmt 1 view .LVU360
 240:../application/Src/encoders.c **** 							encoders_state[i].cnt += encoders_state[i].last_dir;
 1030              		.loc 1 240 8 view .LVU361
 241:../application/Src/encoders.c **** 							encoders_state[i].state <<= 2;
 1031              		.loc 1 241 30 is_stmt 0 view .LVU362
 1032 04ce 1F69     		ldr	r7, [r3, #16]
 242:../application/Src/encoders.c **** 							if (encoders_state[i].last_dir > 0)	
 1033              		.loc 1 242 32 view .LVU363
 1034 04d0 9200     		lsls	r2, r2, #2
 1035 04d2 1A75     		strb	r2, [r3, #20]
 240:../application/Src/encoders.c **** 							encoders_state[i].cnt += encoders_state[i].last_dir;
 1036              		.loc 1 240 36 view .LVU364
 1037 04d4 009A     		ldr	r2, [sp]
 241:../application/Src/encoders.c **** 							encoders_state[i].state <<= 2;
 1038              		.loc 1 241 30 view .LVU365
 1039 04d6 5F44     		add	r7, r7, fp
 243:../application/Src/encoders.c **** 							{
 1040              		.loc 1 243 11 view .LVU366
 1041 04d8 BBF1000F 		cmp	fp, #0
 241:../application/Src/encoders.c **** 							encoders_state[i].state <<= 2;
 1042              		.loc 1 241 30 view .LVU367
 1043 04dc C3E90327 		strd	r2, r7, [r3, #12]
 242:../application/Src/encoders.c **** 							if (encoders_state[i].last_dir > 0)	
 1044              		.loc 1 242 8 is_stmt 1 view .LVU368
 243:../application/Src/encoders.c **** 							{
 1045              		.loc 1 243 8 view .LVU369
 243:../application/Src/encoders.c **** 							{
ARM GAS  /tmp/ccz56Q5C.s 			page 31


 1046              		.loc 1 243 11 is_stmt 0 view .LVU370
 1047 04e0 40F3BC80 		ble	.L42
 246:../application/Src/encoders.c **** 										 shifts_state & 1<<(p_dev_config->buttons[encoders_state[i].pin_a].shift_modificator-1)))
 1048              		.loc 1 246 9 is_stmt 1 view .LVU371
 246:../application/Src/encoders.c **** 										 shifts_state & 1<<(p_dev_config->buttons[encoders_state[i].pin_a].shift_modificator-1)))
 1049              		.loc 1 246 60 is_stmt 0 view .LVU372
 1050 04e4 4A00     		lsls	r2, r1, #1
 1051 04e6 0A44     		add	r2, r2, r1
 1052 04e8 2244     		add	r2, r2, r4
 1053 04ea 92F82F21 		ldrb	r2, [r2, #303]	@ zero_extendqisi2
 246:../application/Src/encoders.c **** 										 shifts_state & 1<<(p_dev_config->buttons[encoders_state[i].pin_a].shift_modificator-1)))
 1054              		.loc 1 246 12 view .LVU373
 1055 04ee 5209     		lsrs	r2, r2, #5
 1056 04f0 40F00981 		bne	.L116
 252:../application/Src/encoders.c **** 								{
 1057              		.loc 1 252 14 is_stmt 1 view .LVU374
 1058              	.LVL69:
 1059              	.LBB19:
 1060              	.LBB14:
 256:../application/Src/encoders.c **** 									{
 1061              		.loc 1 256 26 view .LVU375
 258:../application/Src/encoders.c **** 										{
 1062              		.loc 1 258 11 view .LVU376
 258:../application/Src/encoders.c **** 										{
 1063              		.loc 1 258 14 is_stmt 0 view .LVU377
 1064 04f4 069A     		ldr	r2, [sp, #24]
 1065 04f6 9645     		cmp	lr, r2
 1066 04f8 81D0     		beq	.L40
 256:../application/Src/encoders.c **** 									{
 1067              		.loc 1 256 48 is_stmt 1 view .LVU378
 1068              	.LVL70:
 256:../application/Src/encoders.c **** 									{
 1069              		.loc 1 256 26 view .LVU379
 258:../application/Src/encoders.c **** 										{
 1070              		.loc 1 258 11 view .LVU380
 258:../application/Src/encoders.c **** 										{
 1071              		.loc 1 258 14 is_stmt 0 view .LVU381
 1072 04fa 079A     		ldr	r2, [sp, #28]
 1073 04fc 9645     		cmp	lr, r2
 1074 04fe 3FF47EAF 		beq	.L40
 256:../application/Src/encoders.c **** 									{
 1075              		.loc 1 256 48 is_stmt 1 view .LVU382
 1076              	.LVL71:
 256:../application/Src/encoders.c **** 									{
 1077              		.loc 1 256 26 view .LVU383
 258:../application/Src/encoders.c **** 										{
 1078              		.loc 1 258 11 view .LVU384
 258:../application/Src/encoders.c **** 										{
 1079              		.loc 1 258 14 is_stmt 0 view .LVU385
 1080 0502 089A     		ldr	r2, [sp, #32]
 1081 0504 9645     		cmp	lr, r2
 1082 0506 3FF47AAF 		beq	.L40
 256:../application/Src/encoders.c **** 									{
 1083              		.loc 1 256 48 is_stmt 1 view .LVU386
 1084              	.LVL72:
 256:../application/Src/encoders.c **** 									{
 1085              		.loc 1 256 26 view .LVU387
ARM GAS  /tmp/ccz56Q5C.s 			page 32


 258:../application/Src/encoders.c **** 										{
 1086              		.loc 1 258 11 view .LVU388
 258:../application/Src/encoders.c **** 										{
 1087              		.loc 1 258 14 is_stmt 0 view .LVU389
 1088 050a 099A     		ldr	r2, [sp, #36]
 1089 050c 9645     		cmp	lr, r2
 1090 050e 3FF476AF 		beq	.L40
 256:../application/Src/encoders.c **** 									{
 1091              		.loc 1 256 48 is_stmt 1 view .LVU390
 1092              	.LVL73:
 256:../application/Src/encoders.c **** 									{
 1093              		.loc 1 256 26 view .LVU391
 258:../application/Src/encoders.c **** 										{
 1094              		.loc 1 258 11 view .LVU392
 258:../application/Src/encoders.c **** 										{
 1095              		.loc 1 258 14 is_stmt 0 view .LVU393
 1096 0512 0A9A     		ldr	r2, [sp, #40]
 1097 0514 9645     		cmp	lr, r2
 1098 0516 3FF472AF 		beq	.L40
 256:../application/Src/encoders.c **** 									{
 1099              		.loc 1 256 48 is_stmt 1 view .LVU394
 1100              	.LVL74:
 256:../application/Src/encoders.c **** 									{
 1101              		.loc 1 256 26 view .LVU395
 258:../application/Src/encoders.c **** 										{
 1102              		.loc 1 258 11 view .LVU396
 258:../application/Src/encoders.c **** 										{
 1103              		.loc 1 258 14 is_stmt 0 view .LVU397
 1104 051a 0B9A     		ldr	r2, [sp, #44]
 1105 051c 9645     		cmp	lr, r2
 1106 051e 3FF46EAF 		beq	.L40
 256:../application/Src/encoders.c **** 									{
 1107              		.loc 1 256 48 is_stmt 1 view .LVU398
 1108              	.LVL75:
 256:../application/Src/encoders.c **** 									{
 1109              		.loc 1 256 26 view .LVU399
 258:../application/Src/encoders.c **** 										{
 1110              		.loc 1 258 11 view .LVU400
 258:../application/Src/encoders.c **** 										{
 1111              		.loc 1 258 14 is_stmt 0 view .LVU401
 1112 0522 0C9A     		ldr	r2, [sp, #48]
 1113 0524 9645     		cmp	lr, r2
 1114 0526 3FF46AAF 		beq	.L40
 256:../application/Src/encoders.c **** 									{
 1115              		.loc 1 256 48 is_stmt 1 view .LVU402
 1116              	.LVL76:
 256:../application/Src/encoders.c **** 									{
 1117              		.loc 1 256 26 view .LVU403
 258:../application/Src/encoders.c **** 										{
 1118              		.loc 1 258 11 view .LVU404
 258:../application/Src/encoders.c **** 										{
 1119              		.loc 1 258 14 is_stmt 0 view .LVU405
 1120 052a 0D9A     		ldr	r2, [sp, #52]
 1121 052c 9645     		cmp	lr, r2
 1122 052e 3FF466AF 		beq	.L40
 256:../application/Src/encoders.c **** 									{
 1123              		.loc 1 256 48 is_stmt 1 view .LVU406
ARM GAS  /tmp/ccz56Q5C.s 			page 33


 1124              	.LVL77:
 256:../application/Src/encoders.c **** 									{
 1125              		.loc 1 256 26 view .LVU407
 258:../application/Src/encoders.c **** 										{
 1126              		.loc 1 258 11 view .LVU408
 258:../application/Src/encoders.c **** 										{
 1127              		.loc 1 258 14 is_stmt 0 view .LVU409
 1128 0532 0E9A     		ldr	r2, [sp, #56]
 1129 0534 9645     		cmp	lr, r2
 1130 0536 3FF462AF 		beq	.L40
 256:../application/Src/encoders.c **** 									{
 1131              		.loc 1 256 48 is_stmt 1 view .LVU410
 1132              	.LVL78:
 256:../application/Src/encoders.c **** 									{
 1133              		.loc 1 256 26 view .LVU411
 258:../application/Src/encoders.c **** 										{
 1134              		.loc 1 258 11 view .LVU412
 258:../application/Src/encoders.c **** 										{
 1135              		.loc 1 258 14 is_stmt 0 view .LVU413
 1136 053a 119A     		ldr	r2, [sp, #68]
 1137 053c 9645     		cmp	lr, r2
 1138 053e 3FF45EAF 		beq	.L40
 256:../application/Src/encoders.c **** 									{
 1139              		.loc 1 256 48 is_stmt 1 view .LVU414
 1140              	.LVL79:
 256:../application/Src/encoders.c **** 									{
 1141              		.loc 1 256 26 view .LVU415
 258:../application/Src/encoders.c **** 										{
 1142              		.loc 1 258 11 view .LVU416
 258:../application/Src/encoders.c **** 										{
 1143              		.loc 1 258 14 is_stmt 0 view .LVU417
 1144 0542 129A     		ldr	r2, [sp, #72]
 1145 0544 9645     		cmp	lr, r2
 1146 0546 3FF45AAF 		beq	.L40
 256:../application/Src/encoders.c **** 									{
 1147              		.loc 1 256 48 is_stmt 1 view .LVU418
 1148              	.LVL80:
 256:../application/Src/encoders.c **** 									{
 1149              		.loc 1 256 26 view .LVU419
 258:../application/Src/encoders.c **** 										{
 1150              		.loc 1 258 11 view .LVU420
 258:../application/Src/encoders.c **** 										{
 1151              		.loc 1 258 14 is_stmt 0 view .LVU421
 1152 054a 139A     		ldr	r2, [sp, #76]
 1153 054c 9645     		cmp	lr, r2
 1154 054e 3FF456AF 		beq	.L40
 256:../application/Src/encoders.c **** 									{
 1155              		.loc 1 256 48 is_stmt 1 view .LVU422
 1156              	.LVL81:
 256:../application/Src/encoders.c **** 									{
 1157              		.loc 1 256 26 view .LVU423
 258:../application/Src/encoders.c **** 										{
 1158              		.loc 1 258 11 view .LVU424
 258:../application/Src/encoders.c **** 										{
 1159              		.loc 1 258 14 is_stmt 0 view .LVU425
 1160 0552 149A     		ldr	r2, [sp, #80]
 1161 0554 9645     		cmp	lr, r2
ARM GAS  /tmp/ccz56Q5C.s 			page 34


 1162 0556 3FF452AF 		beq	.L40
 256:../application/Src/encoders.c **** 									{
 1163              		.loc 1 256 48 is_stmt 1 view .LVU426
 1164              	.LVL82:
 256:../application/Src/encoders.c **** 									{
 1165              		.loc 1 256 26 view .LVU427
 258:../application/Src/encoders.c **** 										{
 1166              		.loc 1 258 11 view .LVU428
 258:../application/Src/encoders.c **** 										{
 1167              		.loc 1 258 14 is_stmt 0 view .LVU429
 1168 055a 159A     		ldr	r2, [sp, #84]
 1169 055c 9645     		cmp	lr, r2
 1170 055e 3FF44EAF 		beq	.L40
 256:../application/Src/encoders.c **** 									{
 1171              		.loc 1 256 48 is_stmt 1 view .LVU430
 1172              	.LVL83:
 256:../application/Src/encoders.c **** 									{
 1173              		.loc 1 256 26 view .LVU431
 258:../application/Src/encoders.c **** 										{
 1174              		.loc 1 258 11 view .LVU432
 258:../application/Src/encoders.c **** 										{
 1175              		.loc 1 258 14 is_stmt 0 view .LVU433
 1176 0562 1B9A     		ldr	r2, [sp, #108]
 1177 0564 9645     		cmp	lr, r2
 1178 0566 3FF44AAF 		beq	.L40
 256:../application/Src/encoders.c **** 									{
 1179              		.loc 1 256 48 is_stmt 1 view .LVU434
 1180              	.LVL84:
 256:../application/Src/encoders.c **** 									{
 1181              		.loc 1 256 26 view .LVU435
 258:../application/Src/encoders.c **** 										{
 1182              		.loc 1 258 11 view .LVU436
 258:../application/Src/encoders.c **** 										{
 1183              		.loc 1 258 14 is_stmt 0 view .LVU437
 1184 056a 1C9A     		ldr	r2, [sp, #112]
 1185 056c 9645     		cmp	lr, r2
 1186 056e 3FF446AF 		beq	.L40
 1187              	.LVL85:
 1188              	.L108:
 256:../application/Src/encoders.c **** 									{
 1189              		.loc 1 256 48 is_stmt 1 view .LVU438
 256:../application/Src/encoders.c **** 									{
 1190              		.loc 1 256 26 view .LVU439
 256:../application/Src/encoders.c **** 									{
 1191              		.loc 1 256 26 is_stmt 0 view .LVU440
 1192              	.LBE14:
 265:../application/Src/encoders.c **** 									{
 1193              		.loc 1 265 10 is_stmt 1 view .LVU441
 267:../application/Src/encoders.c **** 									}
 1194              		.loc 1 267 11 view .LVU442
 267:../application/Src/encoders.c **** 									}
 1195              		.loc 1 267 67 is_stmt 0 view .LVU443
 1196 0572 019A     		ldr	r2, [sp, #4]
 1197 0574 02EBC107 		add	r7, r2, r1, lsl #3
 1198 0578 3A79     		ldrb	r2, [r7, #4]	@ zero_extendqisi2
 1199 057a 42F01002 		orr	r2, r2, #16
 1200 057e 3A71     		strb	r2, [r7, #4]
ARM GAS  /tmp/ccz56Q5C.s 			page 35


 1201 0580 3DE7     		b	.L40
 1202              	.LVL86:
 1203              	.L110:
 267:../application/Src/encoders.c **** 									}
 1204              		.loc 1 267 67 view .LVU444
 1205              	.LBE19:
 170:../application/Src/encoders.c **** 						if ((millis - encoders_state[i].time_last > 50) || (encoders_state[i].dir == encoders_state[i
 1206              		.loc 1 170 29 view .LVU445
 1207 0582 049E     		ldr	r6, [sp, #16]
 1208 0584 00EB400B 		add	fp, r0, r0, lsl #1
 1209 0588 06EB8B0B 		add	fp, r6, fp, lsl #2
 1210 058c 9BF80B70 		ldrb	r7, [fp, #11]	@ zero_extendqisi2
 1211 0590 0BF1080B 		add	fp, fp, #8
 1212 0594 47F00F07 		orr	r7, r7, #15
 1213 0598 8BF80370 		strb	r7, [fp, #3]
 171:../application/Src/encoders.c **** 						{
 1214              		.loc 1 171 7 is_stmt 1 view .LVU446
 171:../application/Src/encoders.c **** 						{
 1215              		.loc 1 171 19 is_stmt 0 view .LVU447
 1216 059c DF68     		ldr	r7, [r3, #12]
 1217 059e 009E     		ldr	r6, [sp]
 170:../application/Src/encoders.c **** 						if ((millis - encoders_state[i].time_last > 50) || (encoders_state[i].dir == encoders_state[i
 1218              		.loc 1 170 29 view .LVU448
 1219 05a0 4FEA400A 		lsl	r10, r0, #1
 171:../application/Src/encoders.c **** 						{
 1220              		.loc 1 171 19 view .LVU449
 1221 05a4 F71B     		subs	r7, r6, r7
 171:../application/Src/encoders.c **** 						{
 1222              		.loc 1 171 10 view .LVU450
 1223 05a6 322F     		cmp	r7, #50
 1224 05a8 08D8     		bhi	.L56
 171:../application/Src/encoders.c **** 						{
 1225              		.loc 1 171 101 view .LVU451
 1226 05aa 9BF803B0 		ldrb	fp, [fp, #3]	@ zero_extendqisi2
 1227 05ae 4BF3031B 		sbfx	fp, fp, #4, #4
 1228 05b2 4FFA8BFB 		sxtb	fp, fp
 171:../application/Src/encoders.c **** 						{
 1229              		.loc 1 171 55 view .LVU452
 1230 05b6 BBF1FF3F 		cmp	fp, #-1
 1231 05ba 88D1     		bne	.L59
 1232              	.L56:
 205:../application/Src/encoders.c **** 										 shifts_state & 1<<(p_dev_config->buttons[encoders_state[i].pin_b].shift_modificator-1)))
 1233              		.loc 1 205 9 is_stmt 1 view .LVU453
 205:../application/Src/encoders.c **** 										 shifts_state & 1<<(p_dev_config->buttons[encoders_state[i].pin_b].shift_modificator-1)))
 1234              		.loc 1 205 60 is_stmt 0 view .LVU454
 1235 05bc 0CEB0502 		add	r2, ip, r5
 1236 05c0 2244     		add	r2, r2, r4
 1237 05c2 92F82F21 		ldrb	r2, [r2, #303]	@ zero_extendqisi2
 205:../application/Src/encoders.c **** 										 shifts_state & 1<<(p_dev_config->buttons[encoders_state[i].pin_b].shift_modificator-1)))
 1238              		.loc 1 205 12 view .LVU455
 1239 05c6 5209     		lsrs	r2, r2, #5
 1240 05c8 30D1     		bne	.L117
 211:../application/Src/encoders.c **** 								{
 1241              		.loc 1 211 14 is_stmt 1 view .LVU456
 1242              	.LVL87:
 1243              	.LBB20:
 1244              	.LBB21:
ARM GAS  /tmp/ccz56Q5C.s 			page 36


 215:../application/Src/encoders.c **** 									{
 1245              		.loc 1 215 26 view .LVU457
 217:../application/Src/encoders.c **** 										{
 1246              		.loc 1 217 11 view .LVU458
 217:../application/Src/encoders.c **** 										{
 1247              		.loc 1 217 14 is_stmt 0 view .LVU459
 1248 05ca 0F9A     		ldr	r2, [sp, #60]
 1249 05cc 9045     		cmp	r8, r2
 1250 05ce 3AD0     		beq	.L38
 215:../application/Src/encoders.c **** 									{
 1251              		.loc 1 215 48 is_stmt 1 view .LVU460
 1252              	.LVL88:
 215:../application/Src/encoders.c **** 									{
 1253              		.loc 1 215 26 view .LVU461
 217:../application/Src/encoders.c **** 										{
 1254              		.loc 1 217 11 view .LVU462
 217:../application/Src/encoders.c **** 										{
 1255              		.loc 1 217 14 is_stmt 0 view .LVU463
 1256 05d0 109A     		ldr	r2, [sp, #64]
 1257 05d2 9045     		cmp	r8, r2
 1258 05d4 37D0     		beq	.L38
 215:../application/Src/encoders.c **** 									{
 1259              		.loc 1 215 48 is_stmt 1 view .LVU464
 1260              	.LVL89:
 215:../application/Src/encoders.c **** 									{
 1261              		.loc 1 215 26 view .LVU465
 217:../application/Src/encoders.c **** 										{
 1262              		.loc 1 217 11 view .LVU466
 217:../application/Src/encoders.c **** 										{
 1263              		.loc 1 217 14 is_stmt 0 view .LVU467
 1264 05d6 169A     		ldr	r2, [sp, #88]
 1265 05d8 9045     		cmp	r8, r2
 1266 05da 34D0     		beq	.L38
 215:../application/Src/encoders.c **** 									{
 1267              		.loc 1 215 48 is_stmt 1 view .LVU468
 1268              	.LVL90:
 215:../application/Src/encoders.c **** 									{
 1269              		.loc 1 215 26 view .LVU469
 217:../application/Src/encoders.c **** 										{
 1270              		.loc 1 217 11 view .LVU470
 217:../application/Src/encoders.c **** 										{
 1271              		.loc 1 217 14 is_stmt 0 view .LVU471
 1272 05dc 179A     		ldr	r2, [sp, #92]
 1273 05de 9045     		cmp	r8, r2
 1274 05e0 31D0     		beq	.L38
 215:../application/Src/encoders.c **** 									{
 1275              		.loc 1 215 48 is_stmt 1 view .LVU472
 1276              	.LVL91:
 215:../application/Src/encoders.c **** 									{
 1277              		.loc 1 215 26 view .LVU473
 217:../application/Src/encoders.c **** 										{
 1278              		.loc 1 217 11 view .LVU474
 217:../application/Src/encoders.c **** 										{
 1279              		.loc 1 217 14 is_stmt 0 view .LVU475
 1280 05e2 189A     		ldr	r2, [sp, #96]
 1281 05e4 9045     		cmp	r8, r2
 1282 05e6 2ED0     		beq	.L38
ARM GAS  /tmp/ccz56Q5C.s 			page 37


 215:../application/Src/encoders.c **** 									{
 1283              		.loc 1 215 48 is_stmt 1 view .LVU476
 1284              	.LVL92:
 215:../application/Src/encoders.c **** 									{
 1285              		.loc 1 215 26 view .LVU477
 217:../application/Src/encoders.c **** 										{
 1286              		.loc 1 217 11 view .LVU478
 217:../application/Src/encoders.c **** 										{
 1287              		.loc 1 217 14 is_stmt 0 view .LVU479
 1288 05e8 199A     		ldr	r2, [sp, #100]
 1289 05ea 9045     		cmp	r8, r2
 1290 05ec 2BD0     		beq	.L38
 215:../application/Src/encoders.c **** 									{
 1291              		.loc 1 215 48 is_stmt 1 view .LVU480
 1292              	.LVL93:
 215:../application/Src/encoders.c **** 									{
 1293              		.loc 1 215 26 view .LVU481
 217:../application/Src/encoders.c **** 										{
 1294              		.loc 1 217 11 view .LVU482
 217:../application/Src/encoders.c **** 										{
 1295              		.loc 1 217 14 is_stmt 0 view .LVU483
 1296 05ee 1A9A     		ldr	r2, [sp, #104]
 1297 05f0 9045     		cmp	r8, r2
 1298 05f2 28D0     		beq	.L38
 215:../application/Src/encoders.c **** 									{
 1299              		.loc 1 215 48 is_stmt 1 view .LVU484
 1300              	.LVL94:
 215:../application/Src/encoders.c **** 									{
 1301              		.loc 1 215 26 view .LVU485
 217:../application/Src/encoders.c **** 										{
 1302              		.loc 1 217 11 view .LVU486
 217:../application/Src/encoders.c **** 										{
 1303              		.loc 1 217 14 is_stmt 0 view .LVU487
 1304 05f4 1D9A     		ldr	r2, [sp, #116]
 1305 05f6 9045     		cmp	r8, r2
 1306 05f8 25D0     		beq	.L38
 215:../application/Src/encoders.c **** 									{
 1307              		.loc 1 215 48 is_stmt 1 view .LVU488
 1308              	.LVL95:
 215:../application/Src/encoders.c **** 									{
 1309              		.loc 1 215 26 view .LVU489
 217:../application/Src/encoders.c **** 										{
 1310              		.loc 1 217 11 view .LVU490
 217:../application/Src/encoders.c **** 										{
 1311              		.loc 1 217 14 is_stmt 0 view .LVU491
 1312 05fa 1E9A     		ldr	r2, [sp, #120]
 1313 05fc 9045     		cmp	r8, r2
 1314 05fe 22D0     		beq	.L38
 215:../application/Src/encoders.c **** 									{
 1315              		.loc 1 215 48 is_stmt 1 view .LVU492
 1316              	.LVL96:
 215:../application/Src/encoders.c **** 									{
 1317              		.loc 1 215 26 view .LVU493
 217:../application/Src/encoders.c **** 										{
 1318              		.loc 1 217 11 view .LVU494
 217:../application/Src/encoders.c **** 										{
 1319              		.loc 1 217 14 is_stmt 0 view .LVU495
ARM GAS  /tmp/ccz56Q5C.s 			page 38


 1320 0600 1F9A     		ldr	r2, [sp, #124]
 1321 0602 9045     		cmp	r8, r2
 1322 0604 1FD0     		beq	.L38
 215:../application/Src/encoders.c **** 									{
 1323              		.loc 1 215 48 is_stmt 1 view .LVU496
 1324              	.LVL97:
 215:../application/Src/encoders.c **** 									{
 1325              		.loc 1 215 26 view .LVU497
 217:../application/Src/encoders.c **** 										{
 1326              		.loc 1 217 11 view .LVU498
 217:../application/Src/encoders.c **** 										{
 1327              		.loc 1 217 14 is_stmt 0 view .LVU499
 1328 0606 209A     		ldr	r2, [sp, #128]
 1329 0608 9045     		cmp	r8, r2
 1330 060a 1CD0     		beq	.L38
 215:../application/Src/encoders.c **** 									{
 1331              		.loc 1 215 48 is_stmt 1 view .LVU500
 1332              	.LVL98:
 215:../application/Src/encoders.c **** 									{
 1333              		.loc 1 215 26 view .LVU501
 217:../application/Src/encoders.c **** 										{
 1334              		.loc 1 217 11 view .LVU502
 217:../application/Src/encoders.c **** 										{
 1335              		.loc 1 217 14 is_stmt 0 view .LVU503
 1336 060c 219A     		ldr	r2, [sp, #132]
 1337 060e 9045     		cmp	r8, r2
 1338 0610 19D0     		beq	.L38
 215:../application/Src/encoders.c **** 									{
 1339              		.loc 1 215 48 is_stmt 1 view .LVU504
 1340              	.LVL99:
 215:../application/Src/encoders.c **** 									{
 1341              		.loc 1 215 26 view .LVU505
 217:../application/Src/encoders.c **** 										{
 1342              		.loc 1 217 11 view .LVU506
 217:../application/Src/encoders.c **** 										{
 1343              		.loc 1 217 14 is_stmt 0 view .LVU507
 1344 0612 229A     		ldr	r2, [sp, #136]
 1345 0614 9045     		cmp	r8, r2
 1346 0616 16D0     		beq	.L38
 215:../application/Src/encoders.c **** 									{
 1347              		.loc 1 215 48 is_stmt 1 view .LVU508
 1348              	.LVL100:
 215:../application/Src/encoders.c **** 									{
 1349              		.loc 1 215 26 view .LVU509
 217:../application/Src/encoders.c **** 										{
 1350              		.loc 1 217 11 view .LVU510
 217:../application/Src/encoders.c **** 										{
 1351              		.loc 1 217 14 is_stmt 0 view .LVU511
 1352 0618 239A     		ldr	r2, [sp, #140]
 1353 061a 9045     		cmp	r8, r2
 1354 061c 13D0     		beq	.L38
 215:../application/Src/encoders.c **** 									{
 1355              		.loc 1 215 48 is_stmt 1 view .LVU512
 1356              	.LVL101:
 215:../application/Src/encoders.c **** 									{
 1357              		.loc 1 215 26 view .LVU513
 217:../application/Src/encoders.c **** 										{
ARM GAS  /tmp/ccz56Q5C.s 			page 39


 1358              		.loc 1 217 11 view .LVU514
 217:../application/Src/encoders.c **** 										{
 1359              		.loc 1 217 14 is_stmt 0 view .LVU515
 1360 061e 249A     		ldr	r2, [sp, #144]
 1361 0620 9045     		cmp	r8, r2
 1362 0622 10D0     		beq	.L38
 215:../application/Src/encoders.c **** 									{
 1363              		.loc 1 215 48 is_stmt 1 view .LVU516
 1364              	.LVL102:
 215:../application/Src/encoders.c **** 									{
 1365              		.loc 1 215 26 view .LVU517
 217:../application/Src/encoders.c **** 										{
 1366              		.loc 1 217 11 view .LVU518
 217:../application/Src/encoders.c **** 										{
 1367              		.loc 1 217 14 is_stmt 0 view .LVU519
 1368 0624 259A     		ldr	r2, [sp, #148]
 1369 0626 9045     		cmp	r8, r2
 1370 0628 06D1     		bne	.L106
 1371 062a 0CE0     		b	.L38
 1372              	.LVL103:
 1373              	.L117:
 217:../application/Src/encoders.c **** 										{
 1374              		.loc 1 217 14 view .LVU520
 1375              	.LBE21:
 1376              	.LBE20:
 205:../application/Src/encoders.c **** 										 shifts_state & 1<<(p_dev_config->buttons[encoders_state[i].pin_b].shift_modificator-1)))
 1377              		.loc 1 205 83 discriminator 1 view .LVU521
 1378 062c 059E     		ldr	r6, [sp, #20]
 206:../application/Src/encoders.c **** 								{
 1379              		.loc 1 206 95 discriminator 1 view .LVU522
 1380 062e 013A     		subs	r2, r2, #1
 205:../application/Src/encoders.c **** 										 shifts_state & 1<<(p_dev_config->buttons[encoders_state[i].pin_b].shift_modificator-1)))
 1381              		.loc 1 205 83 discriminator 1 view .LVU523
 1382 0630 46FA02F2 		asr	r2, r6, r2
 1383 0634 D707     		lsls	r7, r2, #31
 1384 0636 06D5     		bpl	.L38
 1385              	.L106:
 1386              	.LBB23:
 1387              	.LBB22:
 215:../application/Src/encoders.c **** 									{
 1388              		.loc 1 215 48 is_stmt 1 view .LVU524
 1389              	.LVL104:
 215:../application/Src/encoders.c **** 									{
 1390              		.loc 1 215 26 view .LVU525
 215:../application/Src/encoders.c **** 									{
 1391              		.loc 1 215 26 is_stmt 0 view .LVU526
 1392              	.LBE22:
 224:../application/Src/encoders.c **** 									{
 1393              		.loc 1 224 10 is_stmt 1 view .LVU527
 226:../application/Src/encoders.c **** 									}
 1394              		.loc 1 226 11 view .LVU528
 226:../application/Src/encoders.c **** 									}
 1395              		.loc 1 226 67 is_stmt 0 view .LVU529
 1396 0638 019A     		ldr	r2, [sp, #4]
 1397 063a 02EBC507 		add	r7, r2, r5, lsl #3
 1398 063e 3A79     		ldrb	r2, [r7, #4]	@ zero_extendqisi2
 1399 0640 42F01002 		orr	r2, r2, #16
ARM GAS  /tmp/ccz56Q5C.s 			page 40


 1400 0644 3A71     		strb	r2, [r7, #4]
 1401              	.LVL105:
 1402              	.L38:
 226:../application/Src/encoders.c **** 									}
 1403              		.loc 1 226 67 view .LVU530
 1404              	.LBE23:
 229:../application/Src/encoders.c **** 							}			
 1405              		.loc 1 229 9 is_stmt 1 view .LVU531
 229:../application/Src/encoders.c **** 							}			
 1406              		.loc 1 229 36 is_stmt 0 view .LVU532
 1407 0646 049A     		ldr	r2, [sp, #16]
 1408 0648 8244     		add	r10, r10, r0
 1409 064a 02EB8A0A 		add	r10, r2, r10, lsl #2
 1410 064e 9AF80B20 		ldrb	r2, [r10, #11]	@ zero_extendqisi2
 1411 0652 42F0F002 		orr	r2, r2, #240
 1412 0656 8AF80B20 		strb	r2, [r10, #11]
 1413 065a C5E6     		b	.L36
 1414              	.L42:
 274:../application/Src/encoders.c **** 										 shifts_state & 1<<(p_dev_config->buttons[encoders_state[i].pin_b].shift_modificator-1)))
 1415              		.loc 1 274 9 is_stmt 1 view .LVU533
 274:../application/Src/encoders.c **** 										 shifts_state & 1<<(p_dev_config->buttons[encoders_state[i].pin_b].shift_modificator-1)))
 1416              		.loc 1 274 60 is_stmt 0 view .LVU534
 1417 065c 0CEB0502 		add	r2, ip, r5
 1418 0660 2244     		add	r2, r2, r4
 1419 0662 92F82F21 		ldrb	r2, [r2, #303]	@ zero_extendqisi2
 274:../application/Src/encoders.c **** 										 shifts_state & 1<<(p_dev_config->buttons[encoders_state[i].pin_b].shift_modificator-1)))
 1420              		.loc 1 274 12 view .LVU535
 1421 0666 5209     		lsrs	r2, r2, #5
 1422 0668 55D1     		bne	.L118
 280:../application/Src/encoders.c **** 								{
 1423              		.loc 1 280 14 is_stmt 1 view .LVU536
 1424              	.LVL106:
 1425              	.LBB24:
 1426              	.LBB10:
 284:../application/Src/encoders.c **** 									{
 1427              		.loc 1 284 26 view .LVU537
 286:../application/Src/encoders.c **** 										{
 1428              		.loc 1 286 11 view .LVU538
 286:../application/Src/encoders.c **** 										{
 1429              		.loc 1 286 14 is_stmt 0 view .LVU539
 1430 066a 0F9A     		ldr	r2, [sp, #60]
 1431 066c 9045     		cmp	r8, r2
 1432 066e 3FF4C6AE 		beq	.L40
 284:../application/Src/encoders.c **** 									{
 1433              		.loc 1 284 48 is_stmt 1 view .LVU540
 1434              	.LVL107:
 284:../application/Src/encoders.c **** 									{
 1435              		.loc 1 284 26 view .LVU541
 286:../application/Src/encoders.c **** 										{
 1436              		.loc 1 286 11 view .LVU542
 286:../application/Src/encoders.c **** 										{
 1437              		.loc 1 286 14 is_stmt 0 view .LVU543
 1438 0672 109A     		ldr	r2, [sp, #64]
 1439 0674 9045     		cmp	r8, r2
 1440 0676 3FF4C2AE 		beq	.L40
 284:../application/Src/encoders.c **** 									{
 1441              		.loc 1 284 48 is_stmt 1 view .LVU544
ARM GAS  /tmp/ccz56Q5C.s 			page 41


 1442              	.LVL108:
 284:../application/Src/encoders.c **** 									{
 1443              		.loc 1 284 26 view .LVU545
 286:../application/Src/encoders.c **** 										{
 1444              		.loc 1 286 11 view .LVU546
 286:../application/Src/encoders.c **** 										{
 1445              		.loc 1 286 14 is_stmt 0 view .LVU547
 1446 067a 169A     		ldr	r2, [sp, #88]
 1447 067c 9045     		cmp	r8, r2
 1448 067e 3FF4BEAE 		beq	.L40
 284:../application/Src/encoders.c **** 									{
 1449              		.loc 1 284 48 is_stmt 1 view .LVU548
 1450              	.LVL109:
 284:../application/Src/encoders.c **** 									{
 1451              		.loc 1 284 26 view .LVU549
 286:../application/Src/encoders.c **** 										{
 1452              		.loc 1 286 11 view .LVU550
 286:../application/Src/encoders.c **** 										{
 1453              		.loc 1 286 14 is_stmt 0 view .LVU551
 1454 0682 179A     		ldr	r2, [sp, #92]
 1455 0684 9045     		cmp	r8, r2
 1456 0686 3FF4BAAE 		beq	.L40
 284:../application/Src/encoders.c **** 									{
 1457              		.loc 1 284 48 is_stmt 1 view .LVU552
 1458              	.LVL110:
 284:../application/Src/encoders.c **** 									{
 1459              		.loc 1 284 26 view .LVU553
 286:../application/Src/encoders.c **** 										{
 1460              		.loc 1 286 11 view .LVU554
 286:../application/Src/encoders.c **** 										{
 1461              		.loc 1 286 14 is_stmt 0 view .LVU555
 1462 068a 189A     		ldr	r2, [sp, #96]
 1463 068c 9045     		cmp	r8, r2
 1464 068e 3FF4B6AE 		beq	.L40
 284:../application/Src/encoders.c **** 									{
 1465              		.loc 1 284 48 is_stmt 1 view .LVU556
 1466              	.LVL111:
 284:../application/Src/encoders.c **** 									{
 1467              		.loc 1 284 26 view .LVU557
 286:../application/Src/encoders.c **** 										{
 1468              		.loc 1 286 11 view .LVU558
 286:../application/Src/encoders.c **** 										{
 1469              		.loc 1 286 14 is_stmt 0 view .LVU559
 1470 0692 199A     		ldr	r2, [sp, #100]
 1471 0694 9045     		cmp	r8, r2
 1472 0696 3FF4B2AE 		beq	.L40
 284:../application/Src/encoders.c **** 									{
 1473              		.loc 1 284 48 is_stmt 1 view .LVU560
 1474              	.LVL112:
 284:../application/Src/encoders.c **** 									{
 1475              		.loc 1 284 26 view .LVU561
 286:../application/Src/encoders.c **** 										{
 1476              		.loc 1 286 11 view .LVU562
 286:../application/Src/encoders.c **** 										{
 1477              		.loc 1 286 14 is_stmt 0 view .LVU563
 1478 069a 1A9A     		ldr	r2, [sp, #104]
 1479 069c 9045     		cmp	r8, r2
ARM GAS  /tmp/ccz56Q5C.s 			page 42


 1480 069e 3FF4AEAE 		beq	.L40
 284:../application/Src/encoders.c **** 									{
 1481              		.loc 1 284 48 is_stmt 1 view .LVU564
 1482              	.LVL113:
 284:../application/Src/encoders.c **** 									{
 1483              		.loc 1 284 26 view .LVU565
 286:../application/Src/encoders.c **** 										{
 1484              		.loc 1 286 11 view .LVU566
 286:../application/Src/encoders.c **** 										{
 1485              		.loc 1 286 14 is_stmt 0 view .LVU567
 1486 06a2 1D9A     		ldr	r2, [sp, #116]
 1487 06a4 9045     		cmp	r8, r2
 1488 06a6 3FF4AAAE 		beq	.L40
 284:../application/Src/encoders.c **** 									{
 1489              		.loc 1 284 48 is_stmt 1 view .LVU568
 1490              	.LVL114:
 284:../application/Src/encoders.c **** 									{
 1491              		.loc 1 284 26 view .LVU569
 286:../application/Src/encoders.c **** 										{
 1492              		.loc 1 286 11 view .LVU570
 286:../application/Src/encoders.c **** 										{
 1493              		.loc 1 286 14 is_stmt 0 view .LVU571
 1494 06aa 1E9A     		ldr	r2, [sp, #120]
 1495 06ac 9045     		cmp	r8, r2
 1496 06ae 3FF4A6AE 		beq	.L40
 284:../application/Src/encoders.c **** 									{
 1497              		.loc 1 284 48 is_stmt 1 view .LVU572
 1498              	.LVL115:
 284:../application/Src/encoders.c **** 									{
 1499              		.loc 1 284 26 view .LVU573
 286:../application/Src/encoders.c **** 										{
 1500              		.loc 1 286 11 view .LVU574
 286:../application/Src/encoders.c **** 										{
 1501              		.loc 1 286 14 is_stmt 0 view .LVU575
 1502 06b2 1F9A     		ldr	r2, [sp, #124]
 1503 06b4 9045     		cmp	r8, r2
 1504 06b6 3FF4A2AE 		beq	.L40
 284:../application/Src/encoders.c **** 									{
 1505              		.loc 1 284 48 is_stmt 1 view .LVU576
 1506              	.LVL116:
 284:../application/Src/encoders.c **** 									{
 1507              		.loc 1 284 26 view .LVU577
 286:../application/Src/encoders.c **** 										{
 1508              		.loc 1 286 11 view .LVU578
 286:../application/Src/encoders.c **** 										{
 1509              		.loc 1 286 14 is_stmt 0 view .LVU579
 1510 06ba 209A     		ldr	r2, [sp, #128]
 1511 06bc 9045     		cmp	r8, r2
 1512 06be 3FF49EAE 		beq	.L40
 284:../application/Src/encoders.c **** 									{
 1513              		.loc 1 284 48 is_stmt 1 view .LVU580
 1514              	.LVL117:
 284:../application/Src/encoders.c **** 									{
 1515              		.loc 1 284 26 view .LVU581
 286:../application/Src/encoders.c **** 										{
 1516              		.loc 1 286 11 view .LVU582
 286:../application/Src/encoders.c **** 										{
ARM GAS  /tmp/ccz56Q5C.s 			page 43


 1517              		.loc 1 286 14 is_stmt 0 view .LVU583
 1518 06c2 219A     		ldr	r2, [sp, #132]
 1519 06c4 9045     		cmp	r8, r2
 1520 06c6 3FF49AAE 		beq	.L40
 284:../application/Src/encoders.c **** 									{
 1521              		.loc 1 284 48 is_stmt 1 view .LVU584
 1522              	.LVL118:
 284:../application/Src/encoders.c **** 									{
 1523              		.loc 1 284 26 view .LVU585
 286:../application/Src/encoders.c **** 										{
 1524              		.loc 1 286 11 view .LVU586
 286:../application/Src/encoders.c **** 										{
 1525              		.loc 1 286 14 is_stmt 0 view .LVU587
 1526 06ca 229A     		ldr	r2, [sp, #136]
 1527 06cc 9045     		cmp	r8, r2
 1528 06ce 3FF496AE 		beq	.L40
 284:../application/Src/encoders.c **** 									{
 1529              		.loc 1 284 48 is_stmt 1 view .LVU588
 1530              	.LVL119:
 284:../application/Src/encoders.c **** 									{
 1531              		.loc 1 284 26 view .LVU589
 286:../application/Src/encoders.c **** 										{
 1532              		.loc 1 286 11 view .LVU590
 286:../application/Src/encoders.c **** 										{
 1533              		.loc 1 286 14 is_stmt 0 view .LVU591
 1534 06d2 239A     		ldr	r2, [sp, #140]
 1535 06d4 9045     		cmp	r8, r2
 1536 06d6 3FF492AE 		beq	.L40
 284:../application/Src/encoders.c **** 									{
 1537              		.loc 1 284 48 is_stmt 1 view .LVU592
 1538              	.LVL120:
 284:../application/Src/encoders.c **** 									{
 1539              		.loc 1 284 26 view .LVU593
 286:../application/Src/encoders.c **** 										{
 1540              		.loc 1 286 11 view .LVU594
 286:../application/Src/encoders.c **** 										{
 1541              		.loc 1 286 14 is_stmt 0 view .LVU595
 1542 06da 249A     		ldr	r2, [sp, #144]
 1543 06dc 9045     		cmp	r8, r2
 1544 06de 3FF48EAE 		beq	.L40
 284:../application/Src/encoders.c **** 									{
 1545              		.loc 1 284 48 is_stmt 1 view .LVU596
 1546              	.LVL121:
 284:../application/Src/encoders.c **** 									{
 1547              		.loc 1 284 26 view .LVU597
 286:../application/Src/encoders.c **** 										{
 1548              		.loc 1 286 11 view .LVU598
 286:../application/Src/encoders.c **** 										{
 1549              		.loc 1 286 14 is_stmt 0 view .LVU599
 1550 06e2 259A     		ldr	r2, [sp, #148]
 1551 06e4 9045     		cmp	r8, r2
 1552 06e6 3FF48AAE 		beq	.L40
 1553              	.LVL122:
 1554              	.L107:
 284:../application/Src/encoders.c **** 									{
 1555              		.loc 1 284 48 is_stmt 1 view .LVU600
 284:../application/Src/encoders.c **** 									{
ARM GAS  /tmp/ccz56Q5C.s 			page 44


 1556              		.loc 1 284 26 view .LVU601
 284:../application/Src/encoders.c **** 									{
 1557              		.loc 1 284 26 is_stmt 0 view .LVU602
 1558              	.LBE10:
 293:../application/Src/encoders.c **** 									{
 1559              		.loc 1 293 10 is_stmt 1 view .LVU603
 295:../application/Src/encoders.c **** 									}
 1560              		.loc 1 295 11 view .LVU604
 295:../application/Src/encoders.c **** 									}
 1561              		.loc 1 295 67 is_stmt 0 view .LVU605
 1562 06ea 019A     		ldr	r2, [sp, #4]
 1563 06ec 02EBC507 		add	r7, r2, r5, lsl #3
 1564 06f0 3A79     		ldrb	r2, [r7, #4]	@ zero_extendqisi2
 1565 06f2 42F01002 		orr	r2, r2, #16
 1566 06f6 3A71     		strb	r2, [r7, #4]
 1567 06f8 81E6     		b	.L40
 1568              	.LVL123:
 1569              	.L39:
 295:../application/Src/encoders.c **** 									}
 1570              		.loc 1 295 67 view .LVU606
 1571              	.LBE24:
 235:../application/Src/encoders.c **** 							
 1572              		.loc 1 235 8 is_stmt 1 view .LVU607
 232:../application/Src/encoders.c **** 							
 1573              		.loc 1 232 30 is_stmt 0 view .LVU608
 1574 06fa 0D4E     		ldr	r6, .L123+8
 1575 06fc B242     		cmp	r2, r6
 1576 06fe B8BF     		it	lt
 1577 0700 3246     		movlt	r2, r6
 1578 0702 1A61     		str	r2, [r3, #16]
 1579 0704 7BE6     		b	.L40
 1580              	.L116:
 246:../application/Src/encoders.c **** 										 shifts_state & 1<<(p_dev_config->buttons[encoders_state[i].pin_a].shift_modificator-1)))
 1581              		.loc 1 246 83 discriminator 1 view .LVU609
 1582 0706 059E     		ldr	r6, [sp, #20]
 247:../application/Src/encoders.c **** 								{
 1583              		.loc 1 247 95 discriminator 1 view .LVU610
 1584 0708 013A     		subs	r2, r2, #1
 246:../application/Src/encoders.c **** 										 shifts_state & 1<<(p_dev_config->buttons[encoders_state[i].pin_a].shift_modificator-1)))
 1585              		.loc 1 246 83 discriminator 1 view .LVU611
 1586 070a 46FA02F2 		asr	r2, r6, r2
 1587 070e D607     		lsls	r6, r2, #31
 1588 0710 7FF575AE 		bpl	.L40
 1589 0714 2DE7     		b	.L108
 1590              	.L118:
 274:../application/Src/encoders.c **** 										 shifts_state & 1<<(p_dev_config->buttons[encoders_state[i].pin_b].shift_modificator-1)))
 1591              		.loc 1 274 83 discriminator 1 view .LVU612
 1592 0716 059E     		ldr	r6, [sp, #20]
 275:../application/Src/encoders.c **** 								{
 1593              		.loc 1 275 95 discriminator 1 view .LVU613
 1594 0718 013A     		subs	r2, r2, #1
 274:../application/Src/encoders.c **** 										 shifts_state & 1<<(p_dev_config->buttons[encoders_state[i].pin_b].shift_modificator-1)))
 1595              		.loc 1 274 83 discriminator 1 view .LVU614
 1596 071a 46FA02F2 		asr	r2, r6, r2
 1597 071e D207     		lsls	r2, r2, #31
 1598 0720 7FF56DAE 		bpl	.L40
 1599 0724 E1E7     		b	.L107
ARM GAS  /tmp/ccz56Q5C.s 			page 45


 1600              	.L124:
 1601 0726 00BF     		.align	2
 1602              	.L123:
 1603 0728 00000000 		.word	.LANCHOR1
 1604 072c 00000000 		.word	.LANCHOR2
 1605 0730 0180FFFF 		.word	-32767
 1606              	.LBE30:
 1607              	.LBE31:
 1608              		.cfi_endproc
 1609              	.LFE30:
 1611              		.section	.text.EncodersInit,"ax",%progbits
 1612              		.align	1
 1613              		.p2align 2,,3
 1614              		.global	EncodersInit
 1615              		.syntax unified
 1616              		.thumb
 1617              		.thumb_func
 1618              		.fpu softvfp
 1620              	EncodersInit:
 1621              	.LVL124:
 1622              	.LFB31:
 358:../application/Src/encoders.c **** 
 359:../application/Src/encoders.c **** void EncodersInit(dev_config_t * p_dev_config)
 360:../application/Src/encoders.c **** {
 1623              		.loc 1 360 1 is_stmt 1 view -0
 1624              		.cfi_startproc
 1625              		@ args = 0, pretend = 0, frame = 32
 1626              		@ frame_needed = 0, uses_anonymous_args = 0
 361:../application/Src/encoders.c **** 	uint8_t pos = 1;		// polling encoders start from pos = 1
 1627              		.loc 1 361 2 view .LVU616
 362:../application/Src/encoders.c **** 	int8_t prev_a = -1;
 1628              		.loc 1 362 2 view .LVU617
 363:../application/Src/encoders.c **** 	int8_t prev_b = -1;
 1629              		.loc 1 363 2 view .LVU618
 364:../application/Src/encoders.c **** 	
 365:../application/Src/encoders.c **** 	for (int i=0; i<MAX_ENCODERS_NUM; i++)
 1630              		.loc 1 365 2 view .LVU619
 1631              	.LBB37:
 1632              		.loc 1 365 7 view .LVU620
 1633              		.loc 1 365 16 view .LVU621
 366:../application/Src/encoders.c **** 	{
 367:../application/Src/encoders.c **** 		encoders_state[i].pin_a = -1;
 1634              		.loc 1 367 3 view .LVU622
 368:../application/Src/encoders.c **** 		encoders_state[i].pin_b = -1;
 1635              		.loc 1 368 3 view .LVU623
 369:../application/Src/encoders.c **** 		encoders_state[i].state = 0;
 1636              		.loc 1 369 3 view .LVU624
 370:../application/Src/encoders.c **** 		encoders_state[i].time_last = 0;
 1637              		.loc 1 370 31 is_stmt 0 view .LVU625
 1638 0000 0023     		movs	r3, #0
 369:../application/Src/encoders.c **** 		encoders_state[i].state = 0;
 1639              		.loc 1 369 27 view .LVU626
 1640 0002 4FF47F41 		mov	r1, #65280
 368:../application/Src/encoders.c **** 		encoders_state[i].pin_b = -1;
 1641              		.loc 1 368 27 view .LVU627
 1642 0006 FF22     		movs	r2, #255
 1643              	.LBE37:
ARM GAS  /tmp/ccz56Q5C.s 			page 46


 360:../application/Src/encoders.c **** 	uint8_t pos = 1;		// polling encoders start from pos = 1
 1644              		.loc 1 360 1 view .LVU628
 1645 0008 F0B5     		push	{r4, r5, r6, r7, lr}
 1646              	.LCFI6:
 1647              		.cfi_def_cfa_offset 20
 1648              		.cfi_offset 4, -20
 1649              		.cfi_offset 5, -16
 1650              		.cfi_offset 6, -12
 1651              		.cfi_offset 7, -8
 1652              		.cfi_offset 14, -4
 1653 000a 0446     		mov	r4, r0
 371:../application/Src/encoders.c **** 	}
 372:../application/Src/encoders.c **** 	
 373:../application/Src/encoders.c **** 	// check if fast encoder connected
 374:../application/Src/encoders.c **** 	if (p_dev_config->pins[8] == FAST_ENCODER &&
 1654              		.loc 1 374 5 view .LVU629
 1655 000c 40F20660 		movw	r0, #1542
 1656              	.LVL125:
 1657              	.LBB38:
 369:../application/Src/encoders.c **** 		encoders_state[i].time_last = 0;
 1658              		.loc 1 369 27 view .LVU630
 1659 0010 5E4D     		ldr	r5, .L138
 1660              	.LBE38:
 360:../application/Src/encoders.c **** 	uint8_t pos = 1;		// polling encoders start from pos = 1
 1661              		.loc 1 360 1 view .LVU631
 1662 0012 89B0     		sub	sp, sp, #36
 1663              	.LCFI7:
 1664              		.cfi_def_cfa_offset 56
 1665              	.LBB39:
 370:../application/Src/encoders.c **** 	}
 1666              		.loc 1 370 31 view .LVU632
 1667 0014 2B60     		str	r3, [r5]
 1668 0016 EB60     		str	r3, [r5, #12]
 1669 0018 AB61     		str	r3, [r5, #24]
 1670 001a 6B62     		str	r3, [r5, #36]
 1671 001c 2B63     		str	r3, [r5, #48]
 1672 001e EB63     		str	r3, [r5, #60]
 1673 0020 AB64     		str	r3, [r5, #72]
 1674 0022 6B65     		str	r3, [r5, #84]
 1675 0024 2B66     		str	r3, [r5, #96]
 369:../application/Src/encoders.c **** 		encoders_state[i].time_last = 0;
 1676              		.loc 1 369 27 view .LVU633
 1677 0026 2981     		strh	r1, [r5, #8]	@ movhi
 1678 0028 A982     		strh	r1, [r5, #20]	@ movhi
 1679 002a 2984     		strh	r1, [r5, #32]	@ movhi
 1680 002c A985     		strh	r1, [r5, #44]	@ movhi
 1681 002e 2987     		strh	r1, [r5, #56]	@ movhi
 1682 0030 A5F84410 		strh	r1, [r5, #68]	@ movhi
 1683 0034 A5F85010 		strh	r1, [r5, #80]	@ movhi
 1684 0038 A5F85C10 		strh	r1, [r5, #92]	@ movhi
 1685 003c A5F86810 		strh	r1, [r5, #104]	@ movhi
 1686 0040 A5F87410 		strh	r1, [r5, #116]	@ movhi
 1687 0044 A5F88010 		strh	r1, [r5, #128]	@ movhi
 368:../application/Src/encoders.c **** 		encoders_state[i].state = 0;
 1688              		.loc 1 368 27 view .LVU634
 1689 0048 AA72     		strb	r2, [r5, #10]
 370:../application/Src/encoders.c **** 	}
ARM GAS  /tmp/ccz56Q5C.s 			page 47


 1690              		.loc 1 370 3 is_stmt 1 view .LVU635
 365:../application/Src/encoders.c **** 	{
 1691              		.loc 1 365 36 view .LVU636
 1692              	.LVL126:
 365:../application/Src/encoders.c **** 	{
 1693              		.loc 1 365 16 view .LVU637
 367:../application/Src/encoders.c **** 		encoders_state[i].pin_b = -1;
 1694              		.loc 1 367 3 view .LVU638
 368:../application/Src/encoders.c **** 		encoders_state[i].state = 0;
 1695              		.loc 1 368 3 view .LVU639
 369:../application/Src/encoders.c **** 		encoders_state[i].time_last = 0;
 1696              		.loc 1 369 3 view .LVU640
 370:../application/Src/encoders.c **** 	}
 1697              		.loc 1 370 3 view .LVU641
 365:../application/Src/encoders.c **** 	{
 1698              		.loc 1 365 36 view .LVU642
 365:../application/Src/encoders.c **** 	{
 1699              		.loc 1 365 16 view .LVU643
 367:../application/Src/encoders.c **** 		encoders_state[i].pin_b = -1;
 1700              		.loc 1 367 3 view .LVU644
 368:../application/Src/encoders.c **** 		encoders_state[i].state = 0;
 1701              		.loc 1 368 3 view .LVU645
 369:../application/Src/encoders.c **** 		encoders_state[i].time_last = 0;
 1702              		.loc 1 369 3 view .LVU646
 370:../application/Src/encoders.c **** 	}
 1703              		.loc 1 370 3 view .LVU647
 365:../application/Src/encoders.c **** 	{
 1704              		.loc 1 365 36 view .LVU648
 365:../application/Src/encoders.c **** 	{
 1705              		.loc 1 365 16 view .LVU649
 367:../application/Src/encoders.c **** 		encoders_state[i].pin_b = -1;
 1706              		.loc 1 367 3 view .LVU650
 368:../application/Src/encoders.c **** 		encoders_state[i].state = 0;
 1707              		.loc 1 368 3 view .LVU651
 369:../application/Src/encoders.c **** 		encoders_state[i].time_last = 0;
 1708              		.loc 1 369 3 view .LVU652
 370:../application/Src/encoders.c **** 	}
 1709              		.loc 1 370 3 view .LVU653
 365:../application/Src/encoders.c **** 	{
 1710              		.loc 1 365 36 view .LVU654
 365:../application/Src/encoders.c **** 	{
 1711              		.loc 1 365 16 view .LVU655
 367:../application/Src/encoders.c **** 		encoders_state[i].pin_b = -1;
 1712              		.loc 1 367 3 view .LVU656
 368:../application/Src/encoders.c **** 		encoders_state[i].state = 0;
 1713              		.loc 1 368 3 view .LVU657
 369:../application/Src/encoders.c **** 		encoders_state[i].time_last = 0;
 1714              		.loc 1 369 3 view .LVU658
 370:../application/Src/encoders.c **** 	}
 1715              		.loc 1 370 3 view .LVU659
 365:../application/Src/encoders.c **** 	{
 1716              		.loc 1 365 36 view .LVU660
 365:../application/Src/encoders.c **** 	{
 1717              		.loc 1 365 16 view .LVU661
 367:../application/Src/encoders.c **** 		encoders_state[i].pin_b = -1;
 1718              		.loc 1 367 3 view .LVU662
 368:../application/Src/encoders.c **** 		encoders_state[i].state = 0;
ARM GAS  /tmp/ccz56Q5C.s 			page 48


 1719              		.loc 1 368 3 view .LVU663
 369:../application/Src/encoders.c **** 		encoders_state[i].time_last = 0;
 1720              		.loc 1 369 3 view .LVU664
 370:../application/Src/encoders.c **** 	}
 1721              		.loc 1 370 3 view .LVU665
 365:../application/Src/encoders.c **** 	{
 1722              		.loc 1 365 36 view .LVU666
 365:../application/Src/encoders.c **** 	{
 1723              		.loc 1 365 16 view .LVU667
 367:../application/Src/encoders.c **** 		encoders_state[i].pin_b = -1;
 1724              		.loc 1 367 3 view .LVU668
 368:../application/Src/encoders.c **** 		encoders_state[i].state = 0;
 1725              		.loc 1 368 3 view .LVU669
 369:../application/Src/encoders.c **** 		encoders_state[i].time_last = 0;
 1726              		.loc 1 369 3 view .LVU670
 370:../application/Src/encoders.c **** 	}
 1727              		.loc 1 370 3 view .LVU671
 365:../application/Src/encoders.c **** 	{
 1728              		.loc 1 365 36 view .LVU672
 365:../application/Src/encoders.c **** 	{
 1729              		.loc 1 365 16 view .LVU673
 367:../application/Src/encoders.c **** 		encoders_state[i].pin_b = -1;
 1730              		.loc 1 367 3 view .LVU674
 368:../application/Src/encoders.c **** 		encoders_state[i].state = 0;
 1731              		.loc 1 368 3 view .LVU675
 369:../application/Src/encoders.c **** 		encoders_state[i].time_last = 0;
 1732              		.loc 1 369 3 view .LVU676
 370:../application/Src/encoders.c **** 	}
 1733              		.loc 1 370 3 view .LVU677
 365:../application/Src/encoders.c **** 	{
 1734              		.loc 1 365 36 view .LVU678
 365:../application/Src/encoders.c **** 	{
 1735              		.loc 1 365 16 view .LVU679
 367:../application/Src/encoders.c **** 		encoders_state[i].pin_b = -1;
 1736              		.loc 1 367 3 view .LVU680
 368:../application/Src/encoders.c **** 		encoders_state[i].state = 0;
 1737              		.loc 1 368 3 view .LVU681
 369:../application/Src/encoders.c **** 		encoders_state[i].time_last = 0;
 1738              		.loc 1 369 3 view .LVU682
 370:../application/Src/encoders.c **** 	}
 1739              		.loc 1 370 3 view .LVU683
 365:../application/Src/encoders.c **** 	{
 1740              		.loc 1 365 36 view .LVU684
 365:../application/Src/encoders.c **** 	{
 1741              		.loc 1 365 16 view .LVU685
 367:../application/Src/encoders.c **** 		encoders_state[i].pin_b = -1;
 1742              		.loc 1 367 3 view .LVU686
 368:../application/Src/encoders.c **** 		encoders_state[i].state = 0;
 1743              		.loc 1 368 3 view .LVU687
 369:../application/Src/encoders.c **** 		encoders_state[i].time_last = 0;
 1744              		.loc 1 369 3 view .LVU688
 370:../application/Src/encoders.c **** 	}
 1745              		.loc 1 370 3 view .LVU689
 368:../application/Src/encoders.c **** 		encoders_state[i].state = 0;
 1746              		.loc 1 368 27 is_stmt 0 view .LVU690
 1747 004a AA75     		strb	r2, [r5, #22]
 1748 004c 85F82220 		strb	r2, [r5, #34]
ARM GAS  /tmp/ccz56Q5C.s 			page 49


 1749 0050 85F82E20 		strb	r2, [r5, #46]
 1750 0054 85F83A20 		strb	r2, [r5, #58]
 1751 0058 85F84620 		strb	r2, [r5, #70]
 1752 005c 85F85220 		strb	r2, [r5, #82]
 1753 0060 85F85E20 		strb	r2, [r5, #94]
 1754 0064 85F86A20 		strb	r2, [r5, #106]
 1755 0068 85F87620 		strb	r2, [r5, #118]
 1756 006c 85F88220 		strb	r2, [r5, #130]
 370:../application/Src/encoders.c **** 	}
 1757              		.loc 1 370 31 view .LVU691
 1758 0070 EB66     		str	r3, [r5, #108]
 365:../application/Src/encoders.c **** 	{
 1759              		.loc 1 365 36 is_stmt 1 view .LVU692
 1760              	.LVL127:
 365:../application/Src/encoders.c **** 	{
 1761              		.loc 1 365 16 view .LVU693
 367:../application/Src/encoders.c **** 		encoders_state[i].pin_b = -1;
 1762              		.loc 1 367 3 view .LVU694
 368:../application/Src/encoders.c **** 		encoders_state[i].state = 0;
 1763              		.loc 1 368 3 view .LVU695
 369:../application/Src/encoders.c **** 		encoders_state[i].time_last = 0;
 1764              		.loc 1 369 3 view .LVU696
 370:../application/Src/encoders.c **** 	}
 1765              		.loc 1 370 3 view .LVU697
 370:../application/Src/encoders.c **** 	}
 1766              		.loc 1 370 31 is_stmt 0 view .LVU698
 1767 0072 AB67     		str	r3, [r5, #120]
 365:../application/Src/encoders.c **** 	{
 1768              		.loc 1 365 36 is_stmt 1 view .LVU699
 1769              	.LVL128:
 365:../application/Src/encoders.c **** 	{
 1770              		.loc 1 365 16 view .LVU700
 367:../application/Src/encoders.c **** 		encoders_state[i].pin_b = -1;
 1771              		.loc 1 367 3 view .LVU701
 368:../application/Src/encoders.c **** 		encoders_state[i].state = 0;
 1772              		.loc 1 368 3 view .LVU702
 369:../application/Src/encoders.c **** 		encoders_state[i].time_last = 0;
 1773              		.loc 1 369 3 view .LVU703
 369:../application/Src/encoders.c **** 		encoders_state[i].time_last = 0;
 1774              		.loc 1 369 27 is_stmt 0 view .LVU704
 1775 0074 A5F88C10 		strh	r1, [r5, #140]	@ movhi
 368:../application/Src/encoders.c **** 		encoders_state[i].state = 0;
 1776              		.loc 1 368 27 view .LVU705
 1777 0078 85F88E20 		strb	r2, [r5, #142]
 370:../application/Src/encoders.c **** 	}
 1778              		.loc 1 370 3 is_stmt 1 view .LVU706
 370:../application/Src/encoders.c **** 	}
 1779              		.loc 1 370 31 is_stmt 0 view .LVU707
 1780 007c C5F88430 		str	r3, [r5, #132]
 365:../application/Src/encoders.c **** 	{
 1781              		.loc 1 365 36 is_stmt 1 view .LVU708
 1782              	.LVL129:
 365:../application/Src/encoders.c **** 	{
 1783              		.loc 1 365 16 view .LVU709
 367:../application/Src/encoders.c **** 		encoders_state[i].pin_b = -1;
 1784              		.loc 1 367 3 view .LVU710
 368:../application/Src/encoders.c **** 		encoders_state[i].state = 0;
ARM GAS  /tmp/ccz56Q5C.s 			page 50


 1785              		.loc 1 368 3 view .LVU711
 369:../application/Src/encoders.c **** 		encoders_state[i].time_last = 0;
 1786              		.loc 1 369 3 view .LVU712
 369:../application/Src/encoders.c **** 		encoders_state[i].time_last = 0;
 1787              		.loc 1 369 27 is_stmt 0 view .LVU713
 1788 0080 A5F89810 		strh	r1, [r5, #152]	@ movhi
 368:../application/Src/encoders.c **** 		encoders_state[i].state = 0;
 1789              		.loc 1 368 27 view .LVU714
 1790 0084 85F89A20 		strb	r2, [r5, #154]
 370:../application/Src/encoders.c **** 	}
 1791              		.loc 1 370 3 is_stmt 1 view .LVU715
 370:../application/Src/encoders.c **** 	}
 1792              		.loc 1 370 31 is_stmt 0 view .LVU716
 1793 0088 C5F89030 		str	r3, [r5, #144]
 365:../application/Src/encoders.c **** 	{
 1794              		.loc 1 365 36 is_stmt 1 view .LVU717
 1795              	.LVL130:
 365:../application/Src/encoders.c **** 	{
 1796              		.loc 1 365 16 view .LVU718
 367:../application/Src/encoders.c **** 		encoders_state[i].pin_b = -1;
 1797              		.loc 1 367 3 view .LVU719
 368:../application/Src/encoders.c **** 		encoders_state[i].state = 0;
 1798              		.loc 1 368 3 view .LVU720
 369:../application/Src/encoders.c **** 		encoders_state[i].time_last = 0;
 1799              		.loc 1 369 3 view .LVU721
 369:../application/Src/encoders.c **** 		encoders_state[i].time_last = 0;
 1800              		.loc 1 369 27 is_stmt 0 view .LVU722
 1801 008c A5F8A410 		strh	r1, [r5, #164]	@ movhi
 368:../application/Src/encoders.c **** 		encoders_state[i].state = 0;
 1802              		.loc 1 368 27 view .LVU723
 1803 0090 85F8A620 		strb	r2, [r5, #166]
 370:../application/Src/encoders.c **** 	}
 1804              		.loc 1 370 3 is_stmt 1 view .LVU724
 370:../application/Src/encoders.c **** 	}
 1805              		.loc 1 370 31 is_stmt 0 view .LVU725
 1806 0094 C5F89C30 		str	r3, [r5, #156]
 365:../application/Src/encoders.c **** 	{
 1807              		.loc 1 365 36 is_stmt 1 view .LVU726
 1808              	.LVL131:
 365:../application/Src/encoders.c **** 	{
 1809              		.loc 1 365 16 view .LVU727
 367:../application/Src/encoders.c **** 		encoders_state[i].pin_b = -1;
 1810              		.loc 1 367 3 view .LVU728
 368:../application/Src/encoders.c **** 		encoders_state[i].state = 0;
 1811              		.loc 1 368 3 view .LVU729
 369:../application/Src/encoders.c **** 		encoders_state[i].time_last = 0;
 1812              		.loc 1 369 3 view .LVU730
 369:../application/Src/encoders.c **** 		encoders_state[i].time_last = 0;
 1813              		.loc 1 369 27 is_stmt 0 view .LVU731
 1814 0098 A5F8B010 		strh	r1, [r5, #176]	@ movhi
 368:../application/Src/encoders.c **** 		encoders_state[i].state = 0;
 1815              		.loc 1 368 27 view .LVU732
 1816 009c 85F8B220 		strb	r2, [r5, #178]
 370:../application/Src/encoders.c **** 	}
 1817              		.loc 1 370 3 is_stmt 1 view .LVU733
 370:../application/Src/encoders.c **** 	}
 1818              		.loc 1 370 31 is_stmt 0 view .LVU734
ARM GAS  /tmp/ccz56Q5C.s 			page 51


 1819 00a0 C5F8A830 		str	r3, [r5, #168]
 365:../application/Src/encoders.c **** 	{
 1820              		.loc 1 365 36 is_stmt 1 view .LVU735
 1821              	.LVL132:
 365:../application/Src/encoders.c **** 	{
 1822              		.loc 1 365 16 view .LVU736
 367:../application/Src/encoders.c **** 		encoders_state[i].pin_b = -1;
 1823              		.loc 1 367 3 view .LVU737
 368:../application/Src/encoders.c **** 		encoders_state[i].state = 0;
 1824              		.loc 1 368 3 view .LVU738
 369:../application/Src/encoders.c **** 		encoders_state[i].time_last = 0;
 1825              		.loc 1 369 3 view .LVU739
 369:../application/Src/encoders.c **** 		encoders_state[i].time_last = 0;
 1826              		.loc 1 369 27 is_stmt 0 view .LVU740
 1827 00a4 A5F8BC10 		strh	r1, [r5, #188]	@ movhi
 368:../application/Src/encoders.c **** 		encoders_state[i].state = 0;
 1828              		.loc 1 368 27 view .LVU741
 1829 00a8 85F8BE20 		strb	r2, [r5, #190]
 370:../application/Src/encoders.c **** 	}
 1830              		.loc 1 370 3 is_stmt 1 view .LVU742
 370:../application/Src/encoders.c **** 	}
 1831              		.loc 1 370 31 is_stmt 0 view .LVU743
 1832 00ac C5F8B430 		str	r3, [r5, #180]
 365:../application/Src/encoders.c **** 	{
 1833              		.loc 1 365 36 is_stmt 1 view .LVU744
 1834              	.LVL133:
 365:../application/Src/encoders.c **** 	{
 1835              		.loc 1 365 16 view .LVU745
 1836              	.LBE39:
 1837              		.loc 1 374 2 view .LVU746
 1838              		.loc 1 374 5 is_stmt 0 view .LVU747
 1839 00b0 B4F92830 		ldrsh	r3, [r4, #40]
 1840 00b4 8342     		cmp	r3, r0
 1841 00b6 3CD0     		beq	.L136
 1842              	.L126:
 360:../application/Src/encoders.c **** 	uint8_t pos = 1;		// polling encoders start from pos = 1
 1843              		.loc 1 360 1 view .LVU748
 1844 00b8 4FF0FF37 		mov	r7, #-1
 1845 00bc 0023     		movs	r3, #0
 1846 00be 3846     		mov	r0, r7
 1847 00c0 0126     		movs	r6, #1
 1848              	.LBB40:
 1849              	.LBB41:
 375:../application/Src/encoders.c **** 			p_dev_config->pins[9] == FAST_ENCODER)
 376:../application/Src/encoders.c **** 	{
 377:../application/Src/encoders.c **** 		// fast ancoder always at pos=0
 378:../application/Src/encoders.c **** 		encoders_state[0].pin_a = 8;
 379:../application/Src/encoders.c **** 		encoders_state[0].pin_b = 9;
 380:../application/Src/encoders.c **** //		encoders_state[0].dir = 1;
 381:../application/Src/encoders.c **** //		encoders_state[0].last_dir = 1;
 382:../application/Src/encoders.c **** 		
 383:../application/Src/encoders.c **** 		EncoderFastInit(p_dev_config);
 384:../application/Src/encoders.c **** 	}
 385:../application/Src/encoders.c **** 	
 386:../application/Src/encoders.c **** 	// check if slow encoders connected to buttons inputs
 387:../application/Src/encoders.c **** 	for (int i=0; i<MAX_BUTTONS_NUM; i++)
 388:../application/Src/encoders.c **** 	{
ARM GAS  /tmp/ccz56Q5C.s 			page 52


 389:../application/Src/encoders.c **** 		if ((p_dev_config->buttons[i].type) == ENCODER_INPUT_A &&  i > prev_a)
 390:../application/Src/encoders.c **** 		{
 391:../application/Src/encoders.c **** 			for (int j=0; j<MAX_BUTTONS_NUM; j++)
 392:../application/Src/encoders.c **** 			{
 393:../application/Src/encoders.c **** 				if ((p_dev_config->buttons[j].type) == ENCODER_INPUT_B && j > prev_b && pos < MAX_ENCODERS_NUM)
 394:../application/Src/encoders.c **** 				{
 395:../application/Src/encoders.c **** 					encoders_state[pos].pin_a = i;
 396:../application/Src/encoders.c **** 					encoders_state[pos].pin_b = j;
 397:../application/Src/encoders.c **** 					encoders_state[pos].dir = 1;
 1850              		.loc 1 397 30 view .LVU749
 1851 00c2 4FF0110E 		mov	lr, #17
 1852 00c6 DFF8CCC0 		ldr	ip, .L138+8
 1853 00ca 02E0     		b	.L132
 1854              	.LVL134:
 1855              	.L129:
 1856              		.loc 1 397 30 view .LVU750
 1857              	.LBE41:
 387:../application/Src/encoders.c **** 	{
 1858              		.loc 1 387 35 is_stmt 1 discriminator 2 view .LVU751
 387:../application/Src/encoders.c **** 	{
 1859              		.loc 1 387 36 is_stmt 0 discriminator 2 view .LVU752
 1860 00cc 0133     		adds	r3, r3, #1
 1861              	.LVL135:
 387:../application/Src/encoders.c **** 	{
 1862              		.loc 1 387 16 is_stmt 1 discriminator 2 view .LVU753
 387:../application/Src/encoders.c **** 	{
 1863              		.loc 1 387 2 is_stmt 0 discriminator 2 view .LVU754
 1864 00ce 802B     		cmp	r3, #128
 1865 00d0 2DD0     		beq	.L137
 1866              	.LVL136:
 1867              	.L132:
 389:../application/Src/encoders.c **** 		{
 1868              		.loc 1 389 3 is_stmt 1 view .LVU755
 389:../application/Src/encoders.c **** 		{
 1869              		.loc 1 389 32 is_stmt 0 view .LVU756
 1870 00d2 03EB4302 		add	r2, r3, r3, lsl #1
 1871 00d6 2244     		add	r2, r2, r4
 1872 00d8 92F82F21 		ldrb	r2, [r2, #303]	@ zero_extendqisi2
 389:../application/Src/encoders.c **** 		{
 1873              		.loc 1 389 6 view .LVU757
 1874 00dc 02F01F02 		and	r2, r2, #31
 1875 00e0 172A     		cmp	r2, #23
 1876 00e2 F3D1     		bne	.L129
 389:../application/Src/encoders.c **** 		{
 1877              		.loc 1 389 58 discriminator 1 view .LVU758
 1878 00e4 9842     		cmp	r0, r3
 1879 00e6 F1DA     		bge	.L129
 1880 00e8 0F2E     		cmp	r6, #15
 1881 00ea EFD8     		bhi	.L129
 1882              	.LBB42:
 391:../application/Src/encoders.c **** 			{
 1883              		.loc 1 391 13 view .LVU759
 1884 00ec 0022     		movs	r2, #0
 1885 00ee 02E0     		b	.L131
 1886              	.LVL137:
 1887              	.L130:
 391:../application/Src/encoders.c **** 			{
ARM GAS  /tmp/ccz56Q5C.s 			page 53


 1888              		.loc 1 391 38 discriminator 2 view .LVU760
 1889 00f0 0132     		adds	r2, r2, #1
 1890              	.LVL138:
 391:../application/Src/encoders.c **** 			{
 1891              		.loc 1 391 18 is_stmt 1 discriminator 2 view .LVU761
 391:../application/Src/encoders.c **** 			{
 1892              		.loc 1 391 4 is_stmt 0 discriminator 2 view .LVU762
 1893 00f2 802A     		cmp	r2, #128
 1894 00f4 EAD0     		beq	.L129
 1895              	.LVL139:
 1896              	.L131:
 393:../application/Src/encoders.c **** 				{
 1897              		.loc 1 393 5 is_stmt 1 view .LVU763
 391:../application/Src/encoders.c **** 			{
 1898              		.loc 1 391 37 view .LVU764
 393:../application/Src/encoders.c **** 				{
 1899              		.loc 1 393 34 is_stmt 0 view .LVU765
 1900 00f6 02EB4201 		add	r1, r2, r2, lsl #1
 1901 00fa 2144     		add	r1, r1, r4
 1902 00fc 91F82F11 		ldrb	r1, [r1, #303]	@ zero_extendqisi2
 393:../application/Src/encoders.c **** 				{
 1903              		.loc 1 393 8 view .LVU766
 1904 0100 01F01F01 		and	r1, r1, #31
 1905 0104 1829     		cmp	r1, #24
 1906 0106 F3D1     		bne	.L130
 393:../application/Src/encoders.c **** 				{
 1907              		.loc 1 393 60 discriminator 1 view .LVU767
 1908 0108 9742     		cmp	r7, r2
 1909 010a F1DA     		bge	.L130
 395:../application/Src/encoders.c **** 					encoders_state[pos].pin_b = j;
 1910              		.loc 1 395 6 is_stmt 1 view .LVU768
 395:../application/Src/encoders.c **** 					encoders_state[pos].pin_b = j;
 1911              		.loc 1 395 32 is_stmt 0 view .LVU769
 1912 010c 06EB4601 		add	r1, r6, r6, lsl #1
 1913 0110 58B2     		sxtb	r0, r3
 1914              	.LVL140:
 395:../application/Src/encoders.c **** 					encoders_state[pos].pin_b = j;
 1915              		.loc 1 395 32 view .LVU770
 1916              	.LBE42:
 387:../application/Src/encoders.c **** 	{
 1917              		.loc 1 387 36 view .LVU771
 1918 0112 0133     		adds	r3, r3, #1
 1919              	.LVL141:
 1920              	.LBB43:
 396:../application/Src/encoders.c **** 					encoders_state[pos].dir = 1;
 1921              		.loc 1 396 32 view .LVU772
 1922 0114 57B2     		sxtb	r7, r2
 1923              	.LVL142:
 398:../application/Src/encoders.c **** 					encoders_state[pos].last_dir = 1;
 399:../application/Src/encoders.c **** 					
 400:../application/Src/encoders.c **** 					prev_a = i;
 401:../application/Src/encoders.c **** 					prev_b = j;
 402:../application/Src/encoders.c **** 					pos++;
 1924              		.loc 1 402 9 view .LVU773
 1925 0116 0136     		adds	r6, r6, #1
 1926              	.LVL143:
 395:../application/Src/encoders.c **** 					encoders_state[pos].pin_b = j;
ARM GAS  /tmp/ccz56Q5C.s 			page 54


 1927              		.loc 1 395 32 view .LVU774
 1928 0118 05EB8102 		add	r2, r5, r1, lsl #2
 1929              	.LVL144:
 395:../application/Src/encoders.c **** 					encoders_state[pos].pin_b = j;
 1930              		.loc 1 395 32 view .LVU775
 1931              	.LBE43:
 387:../application/Src/encoders.c **** 	{
 1932              		.loc 1 387 2 view .LVU776
 1933 011c 802B     		cmp	r3, #128
 1934              	.LBB44:
 397:../application/Src/encoders.c **** 					encoders_state[pos].last_dir = 1;
 1935              		.loc 1 397 30 view .LVU777
 1936 011e 0CEB8101 		add	r1, ip, r1, lsl #2
 396:../application/Src/encoders.c **** 					encoders_state[pos].dir = 1;
 1937              		.loc 1 396 32 view .LVU778
 1938 0122 9772     		strb	r7, [r2, #10]
 395:../application/Src/encoders.c **** 					encoders_state[pos].pin_b = j;
 1939              		.loc 1 395 32 view .LVU779
 1940 0124 5072     		strb	r0, [r2, #9]
 396:../application/Src/encoders.c **** 					encoders_state[pos].dir = 1;
 1941              		.loc 1 396 6 is_stmt 1 view .LVU780
 397:../application/Src/encoders.c **** 					encoders_state[pos].last_dir = 1;
 1942              		.loc 1 397 6 view .LVU781
 398:../application/Src/encoders.c **** 					
 1943              		.loc 1 398 6 view .LVU782
 1944              		.loc 1 402 9 is_stmt 0 view .LVU783
 1945 0126 F6B2     		uxtb	r6, r6
 397:../application/Src/encoders.c **** 					encoders_state[pos].last_dir = 1;
 1946              		.loc 1 397 30 view .LVU784
 1947 0128 81F803E0 		strb	lr, [r1, #3]
 400:../application/Src/encoders.c **** 					prev_b = j;
 1948              		.loc 1 400 6 is_stmt 1 view .LVU785
 1949              	.LVL145:
 401:../application/Src/encoders.c **** 					pos++;
 1950              		.loc 1 401 6 view .LVU786
 1951              		.loc 1 402 6 view .LVU787
 403:../application/Src/encoders.c **** 					break;
 1952              		.loc 1 403 6 view .LVU788
 1953              		.loc 1 403 6 is_stmt 0 view .LVU789
 1954              	.LBE44:
 387:../application/Src/encoders.c **** 	{
 1955              		.loc 1 387 35 is_stmt 1 view .LVU790
 387:../application/Src/encoders.c **** 	{
 1956              		.loc 1 387 16 view .LVU791
 387:../application/Src/encoders.c **** 	{
 1957              		.loc 1 387 2 is_stmt 0 view .LVU792
 1958 012c D1D1     		bne	.L132
 1959              	.L137:
 387:../application/Src/encoders.c **** 	{
 1960              		.loc 1 387 2 view .LVU793
 1961              	.LBE40:
 404:../application/Src/encoders.c **** 				}
 405:../application/Src/encoders.c **** 			}
 406:../application/Src/encoders.c **** 		}	
 407:../application/Src/encoders.c **** 	}
 408:../application/Src/encoders.c **** }
 1962              		.loc 1 408 1 view .LVU794
ARM GAS  /tmp/ccz56Q5C.s 			page 55


 1963 012e 09B0     		add	sp, sp, #36
 1964              	.LCFI8:
 1965              		.cfi_remember_state
 1966              		.cfi_def_cfa_offset 20
 1967              		@ sp needed
 1968 0130 F0BD     		pop	{r4, r5, r6, r7, pc}
 1969              	.LVL146:
 1970              	.L136:
 1971              	.LCFI9:
 1972              		.cfi_restore_state
 378:../application/Src/encoders.c **** 		encoders_state[0].pin_b = 9;
 1973              		.loc 1 378 3 is_stmt 1 view .LVU795
 378:../application/Src/encoders.c **** 		encoders_state[0].pin_b = 9;
 1974              		.loc 1 378 27 is_stmt 0 view .LVU796
 1975 0132 0822     		movs	r2, #8
 379:../application/Src/encoders.c **** //		encoders_state[0].dir = 1;
 1976              		.loc 1 379 27 view .LVU797
 1977 0134 0923     		movs	r3, #9
 1978              	.LBB45:
 1979              	.LBB46:
  59:../application/Src/encoders.c **** 	
 1980              		.loc 1 59 2 view .LVU798
 1981 0136 03A8     		add	r0, sp, #12
 1982              	.LBE46:
 1983              	.LBE45:
 378:../application/Src/encoders.c **** 		encoders_state[0].pin_b = 9;
 1984              		.loc 1 378 27 view .LVU799
 1985 0138 6A72     		strb	r2, [r5, #9]
 379:../application/Src/encoders.c **** //		encoders_state[0].dir = 1;
 1986              		.loc 1 379 3 is_stmt 1 view .LVU800
 379:../application/Src/encoders.c **** //		encoders_state[0].dir = 1;
 1987              		.loc 1 379 27 is_stmt 0 view .LVU801
 1988 013a AB72     		strb	r3, [r5, #10]
 383:../application/Src/encoders.c **** 	}
 1989              		.loc 1 383 3 is_stmt 1 view .LVU802
 1990              	.LBB48:
 1991              	.LBI45:
  54:../application/Src/encoders.c **** {
 1992              		.loc 1 54 13 view .LVU803
 1993              	.LVL147:
 1994              	.LBB47:
  56:../application/Src/encoders.c **** 	RCC_ClocksTypeDef RCC_Clocks;
 1995              		.loc 1 56 2 view .LVU804
  57:../application/Src/encoders.c **** 	
 1996              		.loc 1 57 2 view .LVU805
  59:../application/Src/encoders.c **** 	
 1997              		.loc 1 59 2 view .LVU806
 1998 013c FFF7FEFF 		bl	RCC_GetClocksFreq
 1999              	.LVL148:
  62:../application/Src/encoders.c **** 	//TIM_TimeBaseStructInit(&TIM_TimeBaseInitStructure);	
 2000              		.loc 1 62 2 view .LVU807
 2001 0140 0121     		movs	r1, #1
 2002 0142 4FF40060 		mov	r0, #2048
 2003 0146 FFF7FEFF 		bl	RCC_APB2PeriphClockCmd
 2004              	.LVL149:
  64:../application/Src/encoders.c **** 	TIM_TimeBaseInitStructure.TIM_Period = 65535;
 2005              		.loc 1 64 2 view .LVU808
ARM GAS  /tmp/ccz56Q5C.s 			page 56


  65:../application/Src/encoders.c **** 	TIM_TimeBaseInitStructure.TIM_ClockDivision = 0;
 2006              		.loc 1 65 2 view .LVU809
  66:../application/Src/encoders.c **** 	TIM_TimeBaseInitStructure.TIM_CounterMode = TIM_CounterMode_Up | TIM_CounterMode_Down;
 2007              		.loc 1 66 2 view .LVU810
  67:../application/Src/encoders.c **** 	TIM_TimeBaseInit(TIM1, &TIM_TimeBaseInitStructure);
 2008              		.loc 1 67 2 view .LVU811
  64:../application/Src/encoders.c **** 	TIM_TimeBaseInitStructure.TIM_Period = 65535;
 2009              		.loc 1 64 42 is_stmt 0 view .LVU812
 2010 014a 4FF6FF73 		movw	r3, #65535
 2011 014e 4FF48012 		mov	r2, #1048576
  68:../application/Src/encoders.c **** 	
 2012              		.loc 1 68 2 view .LVU813
 2013 0152 6946     		mov	r1, sp
 2014 0154 0E48     		ldr	r0, .L138+4
  64:../application/Src/encoders.c **** 	TIM_TimeBaseInitStructure.TIM_Period = 65535;
 2015              		.loc 1 64 42 view .LVU814
 2016 0156 CDE90023 		strd	r2, r3, [sp]
  68:../application/Src/encoders.c **** 	
 2017              		.loc 1 68 2 is_stmt 1 view .LVU815
 2018 015a FFF7FEFF 		bl	TIM_TimeBaseInit
 2019              	.LVL150:
  70:../application/Src/encoders.c **** 	{
 2020              		.loc 1 70 2 view .LVU816
 2021 015e 94F87833 		ldrb	r3, [r4, #888]	@ zero_extendqisi2
 2022 0162 022B     		cmp	r3, #2
 2023 0164 0CD0     		beq	.L127
  74:../application/Src/encoders.c **** 			break;
 2024              		.loc 1 74 4 view .LVU817
 2025 0166 0223     		movs	r3, #2
 2026 0168 0121     		movs	r1, #1
 2027 016a 1A46     		mov	r2, r3
 2028 016c 0848     		ldr	r0, .L138+4
 2029 016e FFF7FEFF 		bl	TIM_EncoderInterfaceConfig
 2030              	.LVL151:
  75:../application/Src/encoders.c **** 		
 2031              		.loc 1 75 4 view .LVU818
 2032              	.L128:
  82:../application/Src/encoders.c **** 	TIM_Cmd(TIM1, ENABLE);
 2033              		.loc 1 82 2 view .LVU819
  82:../application/Src/encoders.c **** 	TIM_Cmd(TIM1, ENABLE);
 2034              		.loc 1 82 12 is_stmt 0 view .LVU820
 2035 0172 0023     		movs	r3, #0
 2036 0174 0648     		ldr	r0, .L138+4
  83:../application/Src/encoders.c **** }
 2037              		.loc 1 83 2 view .LVU821
 2038 0176 0121     		movs	r1, #1
  82:../application/Src/encoders.c **** 	TIM_Cmd(TIM1, ENABLE);
 2039              		.loc 1 82 12 view .LVU822
 2040 0178 8384     		strh	r3, [r0, #36]	@ movhi
  83:../application/Src/encoders.c **** }
 2041              		.loc 1 83 2 is_stmt 1 view .LVU823
 2042 017a FFF7FEFF 		bl	TIM_Cmd
 2043              	.LVL152:
  84:../application/Src/encoders.c **** 
 2044              		.loc 1 84 1 is_stmt 0 view .LVU824
 2045 017e 9BE7     		b	.L126
 2046              	.L127:
ARM GAS  /tmp/ccz56Q5C.s 			page 57


  78:../application/Src/encoders.c **** 			break;
 2047              		.loc 1 78 4 is_stmt 1 view .LVU825
 2048 0180 1A46     		mov	r2, r3
 2049 0182 0321     		movs	r1, #3
 2050 0184 0248     		ldr	r0, .L138+4
 2051 0186 FFF7FEFF 		bl	TIM_EncoderInterfaceConfig
 2052              	.LVL153:
  79:../application/Src/encoders.c **** 	}
 2053              		.loc 1 79 4 view .LVU826
 2054 018a F2E7     		b	.L128
 2055              	.L139:
 2056              		.align	2
 2057              	.L138:
 2058 018c 00000000 		.word	encoders_state
 2059 0190 002C0140 		.word	1073818624
 2060 0194 08000000 		.word	encoders_state+8
 2061              	.LBE47:
 2062              	.LBE48:
 2063              		.cfi_endproc
 2064              	.LFE31:
 2066              		.comm	encoders_state,192,4
 2067              		.global	enc_array_4
 2068              		.global	enc_array_2
 2069              		.global	enc_array_1
 2070              		.section	.data.enc_array_1,"aw"
 2071              		.align	2
 2072              		.set	.LANCHOR0,. + 0
 2075              	enc_array_1:
 2076 0000 00000000 		.ascii	"\000\000\000\000\377\000\000\000\001\000\000\000\000"
 2076      FF000000 
 2076      01000000 
 2076      00
 2077 000d 000000   		.ascii	"\000\000\000"
 2078              		.section	.data.enc_array_2,"aw"
 2079              		.align	2
 2080              		.set	.LANCHOR1,. + 0
 2083              	enc_array_2:
 2084 0000 00000000 		.ascii	"\000\000\000\000\377\000\000\001\001\000\000\377\000"
 2084      FF000001 
 2084      010000FF 
 2084      00
 2085 000d 000000   		.ascii	"\000\000\000"
 2086              		.section	.data.enc_array_4,"aw"
 2087              		.align	2
 2088              		.set	.LANCHOR2,. + 0
 2091              	enc_array_4:
 2092 0000 0001FF00 		.ascii	"\000\001\377\000\377\000\000\001\001\000\000\377\000"
 2092      FF000001 
 2092      010000FF 
 2092      00
 2093 000d FF0100   		.ascii	"\377\001\000"
 2094              		.text
 2095              	.Letext0:
 2096              		.file 2 "/usr/lib/gcc/arm-none-eabi/9.2.1/include/stdint.h"
 2097              		.file 3 "../application/Inc/common_types.h"
 2098              		.file 4 "../Drivers/CMSIS/CM3/CoreSupport/core_cm3.h"
 2099              		.file 5 "../Drivers/CMSIS/CM3/DeviceSupport/ST/STM32F10x/system_stm32f10x.h"
ARM GAS  /tmp/ccz56Q5C.s 			page 58


 2100              		.file 6 "../Drivers/CMSIS/CM3/DeviceSupport/ST/STM32F10x/stm32f10x.h"
 2101              		.file 7 "../Drivers/STM32F10x_StdPeriph_Driver/inc/stm32f10x_rcc.h"
 2102              		.file 8 "../Drivers/STM32F10x_StdPeriph_Driver/inc/stm32f10x_tim.h"
 2103              		.file 9 "/usr/lib/gcc/arm-none-eabi/9.2.1/include/stddef.h"
 2104              		.file 10 "/usr/include/newlib/sys/_types.h"
 2105              		.file 11 "/usr/include/newlib/sys/reent.h"
 2106              		.file 12 "/usr/include/newlib/sys/lock.h"
 2107              		.file 13 "../application/Inc/periphery.h"
 2108              		.file 14 "../application/Inc/analog.h"
 2109              		.file 15 "../application/Inc/buttons.h"
 2110              		.file 16 "../application/Inc/encoders.h"
ARM GAS  /tmp/ccz56Q5C.s 			page 59

