ARM GAS  /tmp/ccF8VtoY.s 			page 1


   1              		.cpu cortex-m3
   2              		.eabi_attribute 20, 1
   3              		.eabi_attribute 21, 1
   4              		.eabi_attribute 23, 3
   5              		.eabi_attribute 24, 1
   6              		.eabi_attribute 25, 1
   7              		.eabi_attribute 26, 1
   8              		.eabi_attribute 30, 2
   9              		.eabi_attribute 34, 1
  10              		.eabi_attribute 18, 4
  11              		.file	"stm32f10x_rcc.c"
  12              		.text
  13              	.Ltext0:
  14              		.cfi_sections	.debug_frame
  15              		.section	.text.RCC_DeInit,"ax",%progbits
  16              		.align	1
  17              		.p2align 2,,3
  18              		.global	RCC_DeInit
  19              		.arch armv7-m
  20              		.syntax unified
  21              		.thumb
  22              		.thumb_func
  23              		.fpu softvfp
  25              	RCC_DeInit:
  26              	.LFB29:
  27              		.file 1 "../Drivers/STM32F10x_StdPeriph_Driver/src/stm32f10x_rcc.c"
   1:../Drivers/STM32F10x_StdPeriph_Driver/src/stm32f10x_rcc.c **** /**
   2:../Drivers/STM32F10x_StdPeriph_Driver/src/stm32f10x_rcc.c ****   ******************************************************************************
   3:../Drivers/STM32F10x_StdPeriph_Driver/src/stm32f10x_rcc.c ****   * @file    stm32f10x_rcc.c
   4:../Drivers/STM32F10x_StdPeriph_Driver/src/stm32f10x_rcc.c ****   * @author  MCD Application Team
   5:../Drivers/STM32F10x_StdPeriph_Driver/src/stm32f10x_rcc.c ****   * @version V3.5.0
   6:../Drivers/STM32F10x_StdPeriph_Driver/src/stm32f10x_rcc.c ****   * @date    11-March-2011
   7:../Drivers/STM32F10x_StdPeriph_Driver/src/stm32f10x_rcc.c ****   * @brief   This file provides all the RCC firmware functions.
   8:../Drivers/STM32F10x_StdPeriph_Driver/src/stm32f10x_rcc.c ****   ******************************************************************************
   9:../Drivers/STM32F10x_StdPeriph_Driver/src/stm32f10x_rcc.c ****   * @attention
  10:../Drivers/STM32F10x_StdPeriph_Driver/src/stm32f10x_rcc.c ****   *
  11:../Drivers/STM32F10x_StdPeriph_Driver/src/stm32f10x_rcc.c ****   * THE PRESENT FIRMWARE WHICH IS FOR GUIDANCE ONLY AIMS AT PROVIDING CUSTOMERS
  12:../Drivers/STM32F10x_StdPeriph_Driver/src/stm32f10x_rcc.c ****   * WITH CODING INFORMATION REGARDING THEIR PRODUCTS IN ORDER FOR THEM TO SAVE
  13:../Drivers/STM32F10x_StdPeriph_Driver/src/stm32f10x_rcc.c ****   * TIME. AS A RESULT, STMICROELECTRONICS SHALL NOT BE HELD LIABLE FOR ANY
  14:../Drivers/STM32F10x_StdPeriph_Driver/src/stm32f10x_rcc.c ****   * DIRECT, INDIRECT OR CONSEQUENTIAL DAMAGES WITH RESPECT TO ANY CLAIMS ARISING
  15:../Drivers/STM32F10x_StdPeriph_Driver/src/stm32f10x_rcc.c ****   * FROM THE CONTENT OF SUCH FIRMWARE AND/OR THE USE MADE BY CUSTOMERS OF THE
  16:../Drivers/STM32F10x_StdPeriph_Driver/src/stm32f10x_rcc.c ****   * CODING INFORMATION CONTAINED HEREIN IN CONNECTION WITH THEIR PRODUCTS.
  17:../Drivers/STM32F10x_StdPeriph_Driver/src/stm32f10x_rcc.c ****   *
  18:../Drivers/STM32F10x_StdPeriph_Driver/src/stm32f10x_rcc.c ****   * <h2><center>&copy; COPYRIGHT 2011 STMicroelectronics</center></h2>
  19:../Drivers/STM32F10x_StdPeriph_Driver/src/stm32f10x_rcc.c ****   ******************************************************************************
  20:../Drivers/STM32F10x_StdPeriph_Driver/src/stm32f10x_rcc.c ****   */
  21:../Drivers/STM32F10x_StdPeriph_Driver/src/stm32f10x_rcc.c **** 
  22:../Drivers/STM32F10x_StdPeriph_Driver/src/stm32f10x_rcc.c **** /* Includes ------------------------------------------------------------------*/
  23:../Drivers/STM32F10x_StdPeriph_Driver/src/stm32f10x_rcc.c **** #include "stm32f10x_rcc.h"
  24:../Drivers/STM32F10x_StdPeriph_Driver/src/stm32f10x_rcc.c **** 
  25:../Drivers/STM32F10x_StdPeriph_Driver/src/stm32f10x_rcc.c **** /** @addtogroup STM32F10x_StdPeriph_Driver
  26:../Drivers/STM32F10x_StdPeriph_Driver/src/stm32f10x_rcc.c ****   * @{
  27:../Drivers/STM32F10x_StdPeriph_Driver/src/stm32f10x_rcc.c ****   */
  28:../Drivers/STM32F10x_StdPeriph_Driver/src/stm32f10x_rcc.c **** 
  29:../Drivers/STM32F10x_StdPeriph_Driver/src/stm32f10x_rcc.c **** /** @defgroup RCC 
  30:../Drivers/STM32F10x_StdPeriph_Driver/src/stm32f10x_rcc.c ****   * @brief RCC driver modules
  31:../Drivers/STM32F10x_StdPeriph_Driver/src/stm32f10x_rcc.c ****   * @{
ARM GAS  /tmp/ccF8VtoY.s 			page 2


  32:../Drivers/STM32F10x_StdPeriph_Driver/src/stm32f10x_rcc.c ****   */ 
  33:../Drivers/STM32F10x_StdPeriph_Driver/src/stm32f10x_rcc.c **** 
  34:../Drivers/STM32F10x_StdPeriph_Driver/src/stm32f10x_rcc.c **** /** @defgroup RCC_Private_TypesDefinitions
  35:../Drivers/STM32F10x_StdPeriph_Driver/src/stm32f10x_rcc.c ****   * @{
  36:../Drivers/STM32F10x_StdPeriph_Driver/src/stm32f10x_rcc.c ****   */
  37:../Drivers/STM32F10x_StdPeriph_Driver/src/stm32f10x_rcc.c **** 
  38:../Drivers/STM32F10x_StdPeriph_Driver/src/stm32f10x_rcc.c **** /**
  39:../Drivers/STM32F10x_StdPeriph_Driver/src/stm32f10x_rcc.c ****   * @}
  40:../Drivers/STM32F10x_StdPeriph_Driver/src/stm32f10x_rcc.c ****   */
  41:../Drivers/STM32F10x_StdPeriph_Driver/src/stm32f10x_rcc.c **** 
  42:../Drivers/STM32F10x_StdPeriph_Driver/src/stm32f10x_rcc.c **** /** @defgroup RCC_Private_Defines
  43:../Drivers/STM32F10x_StdPeriph_Driver/src/stm32f10x_rcc.c ****   * @{
  44:../Drivers/STM32F10x_StdPeriph_Driver/src/stm32f10x_rcc.c ****   */
  45:../Drivers/STM32F10x_StdPeriph_Driver/src/stm32f10x_rcc.c **** 
  46:../Drivers/STM32F10x_StdPeriph_Driver/src/stm32f10x_rcc.c **** /* ------------ RCC registers bit address in the alias region ----------- */
  47:../Drivers/STM32F10x_StdPeriph_Driver/src/stm32f10x_rcc.c **** #define RCC_OFFSET                (RCC_BASE - PERIPH_BASE)
  48:../Drivers/STM32F10x_StdPeriph_Driver/src/stm32f10x_rcc.c **** 
  49:../Drivers/STM32F10x_StdPeriph_Driver/src/stm32f10x_rcc.c **** /* --- CR Register ---*/
  50:../Drivers/STM32F10x_StdPeriph_Driver/src/stm32f10x_rcc.c **** 
  51:../Drivers/STM32F10x_StdPeriph_Driver/src/stm32f10x_rcc.c **** /* Alias word address of HSION bit */
  52:../Drivers/STM32F10x_StdPeriph_Driver/src/stm32f10x_rcc.c **** #define CR_OFFSET                 (RCC_OFFSET + 0x00)
  53:../Drivers/STM32F10x_StdPeriph_Driver/src/stm32f10x_rcc.c **** #define HSION_BitNumber           0x00
  54:../Drivers/STM32F10x_StdPeriph_Driver/src/stm32f10x_rcc.c **** #define CR_HSION_BB               (PERIPH_BB_BASE + (CR_OFFSET * 32) + (HSION_BitNumber * 4))
  55:../Drivers/STM32F10x_StdPeriph_Driver/src/stm32f10x_rcc.c **** 
  56:../Drivers/STM32F10x_StdPeriph_Driver/src/stm32f10x_rcc.c **** /* Alias word address of PLLON bit */
  57:../Drivers/STM32F10x_StdPeriph_Driver/src/stm32f10x_rcc.c **** #define PLLON_BitNumber           0x18
  58:../Drivers/STM32F10x_StdPeriph_Driver/src/stm32f10x_rcc.c **** #define CR_PLLON_BB               (PERIPH_BB_BASE + (CR_OFFSET * 32) + (PLLON_BitNumber * 4))
  59:../Drivers/STM32F10x_StdPeriph_Driver/src/stm32f10x_rcc.c **** 
  60:../Drivers/STM32F10x_StdPeriph_Driver/src/stm32f10x_rcc.c **** #ifdef STM32F10X_CL
  61:../Drivers/STM32F10x_StdPeriph_Driver/src/stm32f10x_rcc.c ****  /* Alias word address of PLL2ON bit */
  62:../Drivers/STM32F10x_StdPeriph_Driver/src/stm32f10x_rcc.c ****  #define PLL2ON_BitNumber          0x1A
  63:../Drivers/STM32F10x_StdPeriph_Driver/src/stm32f10x_rcc.c ****  #define CR_PLL2ON_BB              (PERIPH_BB_BASE + (CR_OFFSET * 32) + (PLL2ON_BitNumber * 4))
  64:../Drivers/STM32F10x_StdPeriph_Driver/src/stm32f10x_rcc.c **** 
  65:../Drivers/STM32F10x_StdPeriph_Driver/src/stm32f10x_rcc.c ****  /* Alias word address of PLL3ON bit */
  66:../Drivers/STM32F10x_StdPeriph_Driver/src/stm32f10x_rcc.c ****  #define PLL3ON_BitNumber          0x1C
  67:../Drivers/STM32F10x_StdPeriph_Driver/src/stm32f10x_rcc.c ****  #define CR_PLL3ON_BB              (PERIPH_BB_BASE + (CR_OFFSET * 32) + (PLL3ON_BitNumber * 4))
  68:../Drivers/STM32F10x_StdPeriph_Driver/src/stm32f10x_rcc.c **** #endif /* STM32F10X_CL */ 
  69:../Drivers/STM32F10x_StdPeriph_Driver/src/stm32f10x_rcc.c **** 
  70:../Drivers/STM32F10x_StdPeriph_Driver/src/stm32f10x_rcc.c **** /* Alias word address of CSSON bit */
  71:../Drivers/STM32F10x_StdPeriph_Driver/src/stm32f10x_rcc.c **** #define CSSON_BitNumber           0x13
  72:../Drivers/STM32F10x_StdPeriph_Driver/src/stm32f10x_rcc.c **** #define CR_CSSON_BB               (PERIPH_BB_BASE + (CR_OFFSET * 32) + (CSSON_BitNumber * 4))
  73:../Drivers/STM32F10x_StdPeriph_Driver/src/stm32f10x_rcc.c **** 
  74:../Drivers/STM32F10x_StdPeriph_Driver/src/stm32f10x_rcc.c **** /* --- CFGR Register ---*/
  75:../Drivers/STM32F10x_StdPeriph_Driver/src/stm32f10x_rcc.c **** 
  76:../Drivers/STM32F10x_StdPeriph_Driver/src/stm32f10x_rcc.c **** /* Alias word address of USBPRE bit */
  77:../Drivers/STM32F10x_StdPeriph_Driver/src/stm32f10x_rcc.c **** #define CFGR_OFFSET               (RCC_OFFSET + 0x04)
  78:../Drivers/STM32F10x_StdPeriph_Driver/src/stm32f10x_rcc.c **** 
  79:../Drivers/STM32F10x_StdPeriph_Driver/src/stm32f10x_rcc.c **** #ifndef STM32F10X_CL
  80:../Drivers/STM32F10x_StdPeriph_Driver/src/stm32f10x_rcc.c ****  #define USBPRE_BitNumber          0x16
  81:../Drivers/STM32F10x_StdPeriph_Driver/src/stm32f10x_rcc.c ****  #define CFGR_USBPRE_BB            (PERIPH_BB_BASE + (CFGR_OFFSET * 32) + (USBPRE_BitNumber * 4))
  82:../Drivers/STM32F10x_StdPeriph_Driver/src/stm32f10x_rcc.c **** #else
  83:../Drivers/STM32F10x_StdPeriph_Driver/src/stm32f10x_rcc.c ****  #define OTGFSPRE_BitNumber        0x16
  84:../Drivers/STM32F10x_StdPeriph_Driver/src/stm32f10x_rcc.c ****  #define CFGR_OTGFSPRE_BB          (PERIPH_BB_BASE + (CFGR_OFFSET * 32) + (OTGFSPRE_BitNumber * 4))
  85:../Drivers/STM32F10x_StdPeriph_Driver/src/stm32f10x_rcc.c **** #endif /* STM32F10X_CL */ 
  86:../Drivers/STM32F10x_StdPeriph_Driver/src/stm32f10x_rcc.c **** 
  87:../Drivers/STM32F10x_StdPeriph_Driver/src/stm32f10x_rcc.c **** /* --- BDCR Register ---*/
  88:../Drivers/STM32F10x_StdPeriph_Driver/src/stm32f10x_rcc.c **** 
ARM GAS  /tmp/ccF8VtoY.s 			page 3


  89:../Drivers/STM32F10x_StdPeriph_Driver/src/stm32f10x_rcc.c **** /* Alias word address of RTCEN bit */
  90:../Drivers/STM32F10x_StdPeriph_Driver/src/stm32f10x_rcc.c **** #define BDCR_OFFSET               (RCC_OFFSET + 0x20)
  91:../Drivers/STM32F10x_StdPeriph_Driver/src/stm32f10x_rcc.c **** #define RTCEN_BitNumber           0x0F
  92:../Drivers/STM32F10x_StdPeriph_Driver/src/stm32f10x_rcc.c **** #define BDCR_RTCEN_BB             (PERIPH_BB_BASE + (BDCR_OFFSET * 32) + (RTCEN_BitNumber * 4))
  93:../Drivers/STM32F10x_StdPeriph_Driver/src/stm32f10x_rcc.c **** 
  94:../Drivers/STM32F10x_StdPeriph_Driver/src/stm32f10x_rcc.c **** /* Alias word address of BDRST bit */
  95:../Drivers/STM32F10x_StdPeriph_Driver/src/stm32f10x_rcc.c **** #define BDRST_BitNumber           0x10
  96:../Drivers/STM32F10x_StdPeriph_Driver/src/stm32f10x_rcc.c **** #define BDCR_BDRST_BB             (PERIPH_BB_BASE + (BDCR_OFFSET * 32) + (BDRST_BitNumber * 4))
  97:../Drivers/STM32F10x_StdPeriph_Driver/src/stm32f10x_rcc.c **** 
  98:../Drivers/STM32F10x_StdPeriph_Driver/src/stm32f10x_rcc.c **** /* --- CSR Register ---*/
  99:../Drivers/STM32F10x_StdPeriph_Driver/src/stm32f10x_rcc.c **** 
 100:../Drivers/STM32F10x_StdPeriph_Driver/src/stm32f10x_rcc.c **** /* Alias word address of LSION bit */
 101:../Drivers/STM32F10x_StdPeriph_Driver/src/stm32f10x_rcc.c **** #define CSR_OFFSET                (RCC_OFFSET + 0x24)
 102:../Drivers/STM32F10x_StdPeriph_Driver/src/stm32f10x_rcc.c **** #define LSION_BitNumber           0x00
 103:../Drivers/STM32F10x_StdPeriph_Driver/src/stm32f10x_rcc.c **** #define CSR_LSION_BB              (PERIPH_BB_BASE + (CSR_OFFSET * 32) + (LSION_BitNumber * 4))
 104:../Drivers/STM32F10x_StdPeriph_Driver/src/stm32f10x_rcc.c **** 
 105:../Drivers/STM32F10x_StdPeriph_Driver/src/stm32f10x_rcc.c **** #ifdef STM32F10X_CL
 106:../Drivers/STM32F10x_StdPeriph_Driver/src/stm32f10x_rcc.c **** /* --- CFGR2 Register ---*/
 107:../Drivers/STM32F10x_StdPeriph_Driver/src/stm32f10x_rcc.c **** 
 108:../Drivers/STM32F10x_StdPeriph_Driver/src/stm32f10x_rcc.c ****  /* Alias word address of I2S2SRC bit */
 109:../Drivers/STM32F10x_StdPeriph_Driver/src/stm32f10x_rcc.c ****  #define CFGR2_OFFSET              (RCC_OFFSET + 0x2C)
 110:../Drivers/STM32F10x_StdPeriph_Driver/src/stm32f10x_rcc.c ****  #define I2S2SRC_BitNumber         0x11
 111:../Drivers/STM32F10x_StdPeriph_Driver/src/stm32f10x_rcc.c ****  #define CFGR2_I2S2SRC_BB          (PERIPH_BB_BASE + (CFGR2_OFFSET * 32) + (I2S2SRC_BitNumber * 4))
 112:../Drivers/STM32F10x_StdPeriph_Driver/src/stm32f10x_rcc.c **** 
 113:../Drivers/STM32F10x_StdPeriph_Driver/src/stm32f10x_rcc.c ****  /* Alias word address of I2S3SRC bit */
 114:../Drivers/STM32F10x_StdPeriph_Driver/src/stm32f10x_rcc.c ****  #define I2S3SRC_BitNumber         0x12
 115:../Drivers/STM32F10x_StdPeriph_Driver/src/stm32f10x_rcc.c ****  #define CFGR2_I2S3SRC_BB          (PERIPH_BB_BASE + (CFGR2_OFFSET * 32) + (I2S3SRC_BitNumber * 4))
 116:../Drivers/STM32F10x_StdPeriph_Driver/src/stm32f10x_rcc.c **** #endif /* STM32F10X_CL */
 117:../Drivers/STM32F10x_StdPeriph_Driver/src/stm32f10x_rcc.c **** 
 118:../Drivers/STM32F10x_StdPeriph_Driver/src/stm32f10x_rcc.c **** /* ---------------------- RCC registers bit mask ------------------------ */
 119:../Drivers/STM32F10x_StdPeriph_Driver/src/stm32f10x_rcc.c **** 
 120:../Drivers/STM32F10x_StdPeriph_Driver/src/stm32f10x_rcc.c **** /* CR register bit mask */
 121:../Drivers/STM32F10x_StdPeriph_Driver/src/stm32f10x_rcc.c **** #define CR_HSEBYP_Reset           ((uint32_t)0xFFFBFFFF)
 122:../Drivers/STM32F10x_StdPeriph_Driver/src/stm32f10x_rcc.c **** #define CR_HSEBYP_Set             ((uint32_t)0x00040000)
 123:../Drivers/STM32F10x_StdPeriph_Driver/src/stm32f10x_rcc.c **** #define CR_HSEON_Reset            ((uint32_t)0xFFFEFFFF)
 124:../Drivers/STM32F10x_StdPeriph_Driver/src/stm32f10x_rcc.c **** #define CR_HSEON_Set              ((uint32_t)0x00010000)
 125:../Drivers/STM32F10x_StdPeriph_Driver/src/stm32f10x_rcc.c **** #define CR_HSITRIM_Mask           ((uint32_t)0xFFFFFF07)
 126:../Drivers/STM32F10x_StdPeriph_Driver/src/stm32f10x_rcc.c **** 
 127:../Drivers/STM32F10x_StdPeriph_Driver/src/stm32f10x_rcc.c **** /* CFGR register bit mask */
 128:../Drivers/STM32F10x_StdPeriph_Driver/src/stm32f10x_rcc.c **** #if defined (STM32F10X_LD_VL) || defined (STM32F10X_MD_VL) || defined (STM32F10X_HD_VL) || defined 
 129:../Drivers/STM32F10x_StdPeriph_Driver/src/stm32f10x_rcc.c ****  #define CFGR_PLL_Mask            ((uint32_t)0xFFC2FFFF)
 130:../Drivers/STM32F10x_StdPeriph_Driver/src/stm32f10x_rcc.c **** #else
 131:../Drivers/STM32F10x_StdPeriph_Driver/src/stm32f10x_rcc.c ****  #define CFGR_PLL_Mask            ((uint32_t)0xFFC0FFFF)
 132:../Drivers/STM32F10x_StdPeriph_Driver/src/stm32f10x_rcc.c **** #endif /* STM32F10X_CL */ 
 133:../Drivers/STM32F10x_StdPeriph_Driver/src/stm32f10x_rcc.c **** 
 134:../Drivers/STM32F10x_StdPeriph_Driver/src/stm32f10x_rcc.c **** #define CFGR_PLLMull_Mask         ((uint32_t)0x003C0000)
 135:../Drivers/STM32F10x_StdPeriph_Driver/src/stm32f10x_rcc.c **** #define CFGR_PLLSRC_Mask          ((uint32_t)0x00010000)
 136:../Drivers/STM32F10x_StdPeriph_Driver/src/stm32f10x_rcc.c **** #define CFGR_PLLXTPRE_Mask        ((uint32_t)0x00020000)
 137:../Drivers/STM32F10x_StdPeriph_Driver/src/stm32f10x_rcc.c **** #define CFGR_SWS_Mask             ((uint32_t)0x0000000C)
 138:../Drivers/STM32F10x_StdPeriph_Driver/src/stm32f10x_rcc.c **** #define CFGR_SW_Mask              ((uint32_t)0xFFFFFFFC)
 139:../Drivers/STM32F10x_StdPeriph_Driver/src/stm32f10x_rcc.c **** #define CFGR_HPRE_Reset_Mask      ((uint32_t)0xFFFFFF0F)
 140:../Drivers/STM32F10x_StdPeriph_Driver/src/stm32f10x_rcc.c **** #define CFGR_HPRE_Set_Mask        ((uint32_t)0x000000F0)
 141:../Drivers/STM32F10x_StdPeriph_Driver/src/stm32f10x_rcc.c **** #define CFGR_PPRE1_Reset_Mask     ((uint32_t)0xFFFFF8FF)
 142:../Drivers/STM32F10x_StdPeriph_Driver/src/stm32f10x_rcc.c **** #define CFGR_PPRE1_Set_Mask       ((uint32_t)0x00000700)
 143:../Drivers/STM32F10x_StdPeriph_Driver/src/stm32f10x_rcc.c **** #define CFGR_PPRE2_Reset_Mask     ((uint32_t)0xFFFFC7FF)
 144:../Drivers/STM32F10x_StdPeriph_Driver/src/stm32f10x_rcc.c **** #define CFGR_PPRE2_Set_Mask       ((uint32_t)0x00003800)
 145:../Drivers/STM32F10x_StdPeriph_Driver/src/stm32f10x_rcc.c **** #define CFGR_ADCPRE_Reset_Mask    ((uint32_t)0xFFFF3FFF)
ARM GAS  /tmp/ccF8VtoY.s 			page 4


 146:../Drivers/STM32F10x_StdPeriph_Driver/src/stm32f10x_rcc.c **** #define CFGR_ADCPRE_Set_Mask      ((uint32_t)0x0000C000)
 147:../Drivers/STM32F10x_StdPeriph_Driver/src/stm32f10x_rcc.c **** 
 148:../Drivers/STM32F10x_StdPeriph_Driver/src/stm32f10x_rcc.c **** /* CSR register bit mask */
 149:../Drivers/STM32F10x_StdPeriph_Driver/src/stm32f10x_rcc.c **** #define CSR_RMVF_Set              ((uint32_t)0x01000000)
 150:../Drivers/STM32F10x_StdPeriph_Driver/src/stm32f10x_rcc.c **** 
 151:../Drivers/STM32F10x_StdPeriph_Driver/src/stm32f10x_rcc.c **** #if defined (STM32F10X_LD_VL) || defined (STM32F10X_MD_VL) || defined (STM32F10X_HD_VL) || defined 
 152:../Drivers/STM32F10x_StdPeriph_Driver/src/stm32f10x_rcc.c **** /* CFGR2 register bit mask */
 153:../Drivers/STM32F10x_StdPeriph_Driver/src/stm32f10x_rcc.c ****  #define CFGR2_PREDIV1SRC         ((uint32_t)0x00010000)
 154:../Drivers/STM32F10x_StdPeriph_Driver/src/stm32f10x_rcc.c ****  #define CFGR2_PREDIV1            ((uint32_t)0x0000000F)
 155:../Drivers/STM32F10x_StdPeriph_Driver/src/stm32f10x_rcc.c **** #endif
 156:../Drivers/STM32F10x_StdPeriph_Driver/src/stm32f10x_rcc.c **** #ifdef STM32F10X_CL
 157:../Drivers/STM32F10x_StdPeriph_Driver/src/stm32f10x_rcc.c ****  #define CFGR2_PREDIV2            ((uint32_t)0x000000F0)
 158:../Drivers/STM32F10x_StdPeriph_Driver/src/stm32f10x_rcc.c ****  #define CFGR2_PLL2MUL            ((uint32_t)0x00000F00)
 159:../Drivers/STM32F10x_StdPeriph_Driver/src/stm32f10x_rcc.c ****  #define CFGR2_PLL3MUL            ((uint32_t)0x0000F000)
 160:../Drivers/STM32F10x_StdPeriph_Driver/src/stm32f10x_rcc.c **** #endif /* STM32F10X_CL */ 
 161:../Drivers/STM32F10x_StdPeriph_Driver/src/stm32f10x_rcc.c **** 
 162:../Drivers/STM32F10x_StdPeriph_Driver/src/stm32f10x_rcc.c **** /* RCC Flag Mask */
 163:../Drivers/STM32F10x_StdPeriph_Driver/src/stm32f10x_rcc.c **** #define FLAG_Mask                 ((uint8_t)0x1F)
 164:../Drivers/STM32F10x_StdPeriph_Driver/src/stm32f10x_rcc.c **** 
 165:../Drivers/STM32F10x_StdPeriph_Driver/src/stm32f10x_rcc.c **** /* CIR register byte 2 (Bits[15:8]) base address */
 166:../Drivers/STM32F10x_StdPeriph_Driver/src/stm32f10x_rcc.c **** #define CIR_BYTE2_ADDRESS         ((uint32_t)0x40021009)
 167:../Drivers/STM32F10x_StdPeriph_Driver/src/stm32f10x_rcc.c **** 
 168:../Drivers/STM32F10x_StdPeriph_Driver/src/stm32f10x_rcc.c **** /* CIR register byte 3 (Bits[23:16]) base address */
 169:../Drivers/STM32F10x_StdPeriph_Driver/src/stm32f10x_rcc.c **** #define CIR_BYTE3_ADDRESS         ((uint32_t)0x4002100A)
 170:../Drivers/STM32F10x_StdPeriph_Driver/src/stm32f10x_rcc.c **** 
 171:../Drivers/STM32F10x_StdPeriph_Driver/src/stm32f10x_rcc.c **** /* CFGR register byte 4 (Bits[31:24]) base address */
 172:../Drivers/STM32F10x_StdPeriph_Driver/src/stm32f10x_rcc.c **** #define CFGR_BYTE4_ADDRESS        ((uint32_t)0x40021007)
 173:../Drivers/STM32F10x_StdPeriph_Driver/src/stm32f10x_rcc.c **** 
 174:../Drivers/STM32F10x_StdPeriph_Driver/src/stm32f10x_rcc.c **** /* BDCR register base address */
 175:../Drivers/STM32F10x_StdPeriph_Driver/src/stm32f10x_rcc.c **** #define BDCR_ADDRESS              (PERIPH_BASE + BDCR_OFFSET)
 176:../Drivers/STM32F10x_StdPeriph_Driver/src/stm32f10x_rcc.c **** 
 177:../Drivers/STM32F10x_StdPeriph_Driver/src/stm32f10x_rcc.c **** /**
 178:../Drivers/STM32F10x_StdPeriph_Driver/src/stm32f10x_rcc.c ****   * @}
 179:../Drivers/STM32F10x_StdPeriph_Driver/src/stm32f10x_rcc.c ****   */ 
 180:../Drivers/STM32F10x_StdPeriph_Driver/src/stm32f10x_rcc.c **** 
 181:../Drivers/STM32F10x_StdPeriph_Driver/src/stm32f10x_rcc.c **** /** @defgroup RCC_Private_Macros
 182:../Drivers/STM32F10x_StdPeriph_Driver/src/stm32f10x_rcc.c ****   * @{
 183:../Drivers/STM32F10x_StdPeriph_Driver/src/stm32f10x_rcc.c ****   */ 
 184:../Drivers/STM32F10x_StdPeriph_Driver/src/stm32f10x_rcc.c **** 
 185:../Drivers/STM32F10x_StdPeriph_Driver/src/stm32f10x_rcc.c **** /**
 186:../Drivers/STM32F10x_StdPeriph_Driver/src/stm32f10x_rcc.c ****   * @}
 187:../Drivers/STM32F10x_StdPeriph_Driver/src/stm32f10x_rcc.c ****   */ 
 188:../Drivers/STM32F10x_StdPeriph_Driver/src/stm32f10x_rcc.c **** 
 189:../Drivers/STM32F10x_StdPeriph_Driver/src/stm32f10x_rcc.c **** /** @defgroup RCC_Private_Variables
 190:../Drivers/STM32F10x_StdPeriph_Driver/src/stm32f10x_rcc.c ****   * @{
 191:../Drivers/STM32F10x_StdPeriph_Driver/src/stm32f10x_rcc.c ****   */ 
 192:../Drivers/STM32F10x_StdPeriph_Driver/src/stm32f10x_rcc.c **** 
 193:../Drivers/STM32F10x_StdPeriph_Driver/src/stm32f10x_rcc.c **** static __I uint8_t APBAHBPrescTable[16] = {0, 0, 0, 0, 1, 2, 3, 4, 1, 2, 3, 4, 6, 7, 8, 9};
 194:../Drivers/STM32F10x_StdPeriph_Driver/src/stm32f10x_rcc.c **** static __I uint8_t ADCPrescTable[4] = {2, 4, 6, 8};
 195:../Drivers/STM32F10x_StdPeriph_Driver/src/stm32f10x_rcc.c **** 
 196:../Drivers/STM32F10x_StdPeriph_Driver/src/stm32f10x_rcc.c **** /**
 197:../Drivers/STM32F10x_StdPeriph_Driver/src/stm32f10x_rcc.c ****   * @}
 198:../Drivers/STM32F10x_StdPeriph_Driver/src/stm32f10x_rcc.c ****   */
 199:../Drivers/STM32F10x_StdPeriph_Driver/src/stm32f10x_rcc.c **** 
 200:../Drivers/STM32F10x_StdPeriph_Driver/src/stm32f10x_rcc.c **** /** @defgroup RCC_Private_FunctionPrototypes
 201:../Drivers/STM32F10x_StdPeriph_Driver/src/stm32f10x_rcc.c ****   * @{
 202:../Drivers/STM32F10x_StdPeriph_Driver/src/stm32f10x_rcc.c ****   */
ARM GAS  /tmp/ccF8VtoY.s 			page 5


 203:../Drivers/STM32F10x_StdPeriph_Driver/src/stm32f10x_rcc.c **** 
 204:../Drivers/STM32F10x_StdPeriph_Driver/src/stm32f10x_rcc.c **** /**
 205:../Drivers/STM32F10x_StdPeriph_Driver/src/stm32f10x_rcc.c ****   * @}
 206:../Drivers/STM32F10x_StdPeriph_Driver/src/stm32f10x_rcc.c ****   */
 207:../Drivers/STM32F10x_StdPeriph_Driver/src/stm32f10x_rcc.c **** 
 208:../Drivers/STM32F10x_StdPeriph_Driver/src/stm32f10x_rcc.c **** /** @defgroup RCC_Private_Functions
 209:../Drivers/STM32F10x_StdPeriph_Driver/src/stm32f10x_rcc.c ****   * @{
 210:../Drivers/STM32F10x_StdPeriph_Driver/src/stm32f10x_rcc.c ****   */
 211:../Drivers/STM32F10x_StdPeriph_Driver/src/stm32f10x_rcc.c **** 
 212:../Drivers/STM32F10x_StdPeriph_Driver/src/stm32f10x_rcc.c **** /**
 213:../Drivers/STM32F10x_StdPeriph_Driver/src/stm32f10x_rcc.c ****   * @brief  Resets the RCC clock configuration to the default reset state.
 214:../Drivers/STM32F10x_StdPeriph_Driver/src/stm32f10x_rcc.c ****   * @param  None
 215:../Drivers/STM32F10x_StdPeriph_Driver/src/stm32f10x_rcc.c ****   * @retval None
 216:../Drivers/STM32F10x_StdPeriph_Driver/src/stm32f10x_rcc.c ****   */
 217:../Drivers/STM32F10x_StdPeriph_Driver/src/stm32f10x_rcc.c **** void RCC_DeInit(void)
 218:../Drivers/STM32F10x_StdPeriph_Driver/src/stm32f10x_rcc.c **** {
  28              		.loc 1 218 1 view -0
  29              		.cfi_startproc
  30              		@ args = 0, pretend = 0, frame = 0
  31              		@ frame_needed = 0, uses_anonymous_args = 0
  32              		@ link register save eliminated.
 219:../Drivers/STM32F10x_StdPeriph_Driver/src/stm32f10x_rcc.c ****   /* Set HSION bit */
 220:../Drivers/STM32F10x_StdPeriph_Driver/src/stm32f10x_rcc.c ****   RCC->CR |= (uint32_t)0x00000001;
  33              		.loc 1 220 3 view .LVU1
 221:../Drivers/STM32F10x_StdPeriph_Driver/src/stm32f10x_rcc.c **** 
 222:../Drivers/STM32F10x_StdPeriph_Driver/src/stm32f10x_rcc.c ****   /* Reset SW, HPRE, PPRE1, PPRE2, ADCPRE and MCO bits */
 223:../Drivers/STM32F10x_StdPeriph_Driver/src/stm32f10x_rcc.c **** #ifndef STM32F10X_CL
 224:../Drivers/STM32F10x_StdPeriph_Driver/src/stm32f10x_rcc.c ****   RCC->CFGR &= (uint32_t)0xF8FF0000;
 225:../Drivers/STM32F10x_StdPeriph_Driver/src/stm32f10x_rcc.c **** #else
 226:../Drivers/STM32F10x_StdPeriph_Driver/src/stm32f10x_rcc.c ****   RCC->CFGR &= (uint32_t)0xF0FF0000;
 227:../Drivers/STM32F10x_StdPeriph_Driver/src/stm32f10x_rcc.c **** #endif /* STM32F10X_CL */   
 228:../Drivers/STM32F10x_StdPeriph_Driver/src/stm32f10x_rcc.c ****   
 229:../Drivers/STM32F10x_StdPeriph_Driver/src/stm32f10x_rcc.c ****   /* Reset HSEON, CSSON and PLLON bits */
 230:../Drivers/STM32F10x_StdPeriph_Driver/src/stm32f10x_rcc.c ****   RCC->CR &= (uint32_t)0xFEF6FFFF;
 231:../Drivers/STM32F10x_StdPeriph_Driver/src/stm32f10x_rcc.c **** 
 232:../Drivers/STM32F10x_StdPeriph_Driver/src/stm32f10x_rcc.c ****   /* Reset HSEBYP bit */
 233:../Drivers/STM32F10x_StdPeriph_Driver/src/stm32f10x_rcc.c ****   RCC->CR &= (uint32_t)0xFFFBFFFF;
 234:../Drivers/STM32F10x_StdPeriph_Driver/src/stm32f10x_rcc.c **** 
 235:../Drivers/STM32F10x_StdPeriph_Driver/src/stm32f10x_rcc.c ****   /* Reset PLLSRC, PLLXTPRE, PLLMUL and USBPRE/OTGFSPRE bits */
 236:../Drivers/STM32F10x_StdPeriph_Driver/src/stm32f10x_rcc.c ****   RCC->CFGR &= (uint32_t)0xFF80FFFF;
 237:../Drivers/STM32F10x_StdPeriph_Driver/src/stm32f10x_rcc.c **** 
 238:../Drivers/STM32F10x_StdPeriph_Driver/src/stm32f10x_rcc.c **** #ifdef STM32F10X_CL
 239:../Drivers/STM32F10x_StdPeriph_Driver/src/stm32f10x_rcc.c ****   /* Reset PLL2ON and PLL3ON bits */
 240:../Drivers/STM32F10x_StdPeriph_Driver/src/stm32f10x_rcc.c ****   RCC->CR &= (uint32_t)0xEBFFFFFF;
 241:../Drivers/STM32F10x_StdPeriph_Driver/src/stm32f10x_rcc.c **** 
 242:../Drivers/STM32F10x_StdPeriph_Driver/src/stm32f10x_rcc.c ****   /* Disable all interrupts and clear pending bits  */
 243:../Drivers/STM32F10x_StdPeriph_Driver/src/stm32f10x_rcc.c ****   RCC->CIR = 0x00FF0000;
 244:../Drivers/STM32F10x_StdPeriph_Driver/src/stm32f10x_rcc.c **** 
 245:../Drivers/STM32F10x_StdPeriph_Driver/src/stm32f10x_rcc.c ****   /* Reset CFGR2 register */
 246:../Drivers/STM32F10x_StdPeriph_Driver/src/stm32f10x_rcc.c ****   RCC->CFGR2 = 0x00000000;
 247:../Drivers/STM32F10x_StdPeriph_Driver/src/stm32f10x_rcc.c **** #elif defined (STM32F10X_LD_VL) || defined (STM32F10X_MD_VL) || defined (STM32F10X_HD_VL)
 248:../Drivers/STM32F10x_StdPeriph_Driver/src/stm32f10x_rcc.c ****   /* Disable all interrupts and clear pending bits  */
 249:../Drivers/STM32F10x_StdPeriph_Driver/src/stm32f10x_rcc.c ****   RCC->CIR = 0x009F0000;
 250:../Drivers/STM32F10x_StdPeriph_Driver/src/stm32f10x_rcc.c **** 
 251:../Drivers/STM32F10x_StdPeriph_Driver/src/stm32f10x_rcc.c ****   /* Reset CFGR2 register */
 252:../Drivers/STM32F10x_StdPeriph_Driver/src/stm32f10x_rcc.c ****   RCC->CFGR2 = 0x00000000;      
 253:../Drivers/STM32F10x_StdPeriph_Driver/src/stm32f10x_rcc.c **** #else
ARM GAS  /tmp/ccF8VtoY.s 			page 6


 254:../Drivers/STM32F10x_StdPeriph_Driver/src/stm32f10x_rcc.c ****   /* Disable all interrupts and clear pending bits  */
 255:../Drivers/STM32F10x_StdPeriph_Driver/src/stm32f10x_rcc.c ****   RCC->CIR = 0x009F0000;
  34              		.loc 1 255 12 is_stmt 0 view .LVU2
  35 0000 4FF41F00 		mov	r0, #10420224
 220:../Drivers/STM32F10x_StdPeriph_Driver/src/stm32f10x_rcc.c **** 
  36              		.loc 1 220 11 view .LVU3
  37 0004 0C4B     		ldr	r3, .L3
 224:../Drivers/STM32F10x_StdPeriph_Driver/src/stm32f10x_rcc.c **** #else
  38              		.loc 1 224 13 view .LVU4
  39 0006 0D4A     		ldr	r2, .L3+4
 220:../Drivers/STM32F10x_StdPeriph_Driver/src/stm32f10x_rcc.c **** 
  40              		.loc 1 220 11 view .LVU5
  41 0008 1968     		ldr	r1, [r3]
  42 000a 41F00101 		orr	r1, r1, #1
  43 000e 1960     		str	r1, [r3]
 224:../Drivers/STM32F10x_StdPeriph_Driver/src/stm32f10x_rcc.c **** #else
  44              		.loc 1 224 3 is_stmt 1 view .LVU6
 224:../Drivers/STM32F10x_StdPeriph_Driver/src/stm32f10x_rcc.c **** #else
  45              		.loc 1 224 13 is_stmt 0 view .LVU7
  46 0010 5968     		ldr	r1, [r3, #4]
  47 0012 0A40     		ands	r2, r2, r1
  48 0014 5A60     		str	r2, [r3, #4]
 230:../Drivers/STM32F10x_StdPeriph_Driver/src/stm32f10x_rcc.c **** 
  49              		.loc 1 230 3 is_stmt 1 view .LVU8
 230:../Drivers/STM32F10x_StdPeriph_Driver/src/stm32f10x_rcc.c **** 
  50              		.loc 1 230 11 is_stmt 0 view .LVU9
  51 0016 1A68     		ldr	r2, [r3]
  52 0018 22F08472 		bic	r2, r2, #17301504
  53 001c 22F48032 		bic	r2, r2, #65536
  54 0020 1A60     		str	r2, [r3]
 233:../Drivers/STM32F10x_StdPeriph_Driver/src/stm32f10x_rcc.c **** 
  55              		.loc 1 233 3 is_stmt 1 view .LVU10
 233:../Drivers/STM32F10x_StdPeriph_Driver/src/stm32f10x_rcc.c **** 
  56              		.loc 1 233 11 is_stmt 0 view .LVU11
  57 0022 1A68     		ldr	r2, [r3]
  58 0024 22F48022 		bic	r2, r2, #262144
  59 0028 1A60     		str	r2, [r3]
 236:../Drivers/STM32F10x_StdPeriph_Driver/src/stm32f10x_rcc.c **** 
  60              		.loc 1 236 3 is_stmt 1 view .LVU12
 236:../Drivers/STM32F10x_StdPeriph_Driver/src/stm32f10x_rcc.c **** 
  61              		.loc 1 236 13 is_stmt 0 view .LVU13
  62 002a 5A68     		ldr	r2, [r3, #4]
  63 002c 22F4FE02 		bic	r2, r2, #8323072
  64 0030 5A60     		str	r2, [r3, #4]
  65              		.loc 1 255 3 is_stmt 1 view .LVU14
  66              		.loc 1 255 12 is_stmt 0 view .LVU15
  67 0032 9860     		str	r0, [r3, #8]
 256:../Drivers/STM32F10x_StdPeriph_Driver/src/stm32f10x_rcc.c **** #endif /* STM32F10X_CL */
 257:../Drivers/STM32F10x_StdPeriph_Driver/src/stm32f10x_rcc.c **** 
 258:../Drivers/STM32F10x_StdPeriph_Driver/src/stm32f10x_rcc.c **** }
  68              		.loc 1 258 1 view .LVU16
  69 0034 7047     		bx	lr
  70              	.L4:
  71 0036 00BF     		.align	2
  72              	.L3:
  73 0038 00100240 		.word	1073876992
  74 003c 0000FFF8 		.word	-117506048
ARM GAS  /tmp/ccF8VtoY.s 			page 7


  75              		.cfi_endproc
  76              	.LFE29:
  78              		.section	.text.RCC_HSEConfig,"ax",%progbits
  79              		.align	1
  80              		.p2align 2,,3
  81              		.global	RCC_HSEConfig
  82              		.syntax unified
  83              		.thumb
  84              		.thumb_func
  85              		.fpu softvfp
  87              	RCC_HSEConfig:
  88              	.LVL0:
  89              	.LFB30:
 259:../Drivers/STM32F10x_StdPeriph_Driver/src/stm32f10x_rcc.c **** 
 260:../Drivers/STM32F10x_StdPeriph_Driver/src/stm32f10x_rcc.c **** /**
 261:../Drivers/STM32F10x_StdPeriph_Driver/src/stm32f10x_rcc.c ****   * @brief  Configures the External High Speed oscillator (HSE).
 262:../Drivers/STM32F10x_StdPeriph_Driver/src/stm32f10x_rcc.c ****   * @note   HSE can not be stopped if it is used directly or through the PLL as system clock.
 263:../Drivers/STM32F10x_StdPeriph_Driver/src/stm32f10x_rcc.c ****   * @param  RCC_HSE: specifies the new state of the HSE.
 264:../Drivers/STM32F10x_StdPeriph_Driver/src/stm32f10x_rcc.c ****   *   This parameter can be one of the following values:
 265:../Drivers/STM32F10x_StdPeriph_Driver/src/stm32f10x_rcc.c ****   *     @arg RCC_HSE_OFF: HSE oscillator OFF
 266:../Drivers/STM32F10x_StdPeriph_Driver/src/stm32f10x_rcc.c ****   *     @arg RCC_HSE_ON: HSE oscillator ON
 267:../Drivers/STM32F10x_StdPeriph_Driver/src/stm32f10x_rcc.c ****   *     @arg RCC_HSE_Bypass: HSE oscillator bypassed with external clock
 268:../Drivers/STM32F10x_StdPeriph_Driver/src/stm32f10x_rcc.c ****   * @retval None
 269:../Drivers/STM32F10x_StdPeriph_Driver/src/stm32f10x_rcc.c ****   */
 270:../Drivers/STM32F10x_StdPeriph_Driver/src/stm32f10x_rcc.c **** void RCC_HSEConfig(uint32_t RCC_HSE)
 271:../Drivers/STM32F10x_StdPeriph_Driver/src/stm32f10x_rcc.c **** {
  90              		.loc 1 271 1 is_stmt 1 view -0
  91              		.cfi_startproc
  92              		@ args = 0, pretend = 0, frame = 0
  93              		@ frame_needed = 0, uses_anonymous_args = 0
  94              		@ link register save eliminated.
 272:../Drivers/STM32F10x_StdPeriph_Driver/src/stm32f10x_rcc.c ****   /* Check the parameters */
 273:../Drivers/STM32F10x_StdPeriph_Driver/src/stm32f10x_rcc.c ****   assert_param(IS_RCC_HSE(RCC_HSE));
  95              		.loc 1 273 3 view .LVU18
 274:../Drivers/STM32F10x_StdPeriph_Driver/src/stm32f10x_rcc.c ****   /* Reset HSEON and HSEBYP bits before configuring the HSE ------------------*/
 275:../Drivers/STM32F10x_StdPeriph_Driver/src/stm32f10x_rcc.c ****   /* Reset HSEON bit */
 276:../Drivers/STM32F10x_StdPeriph_Driver/src/stm32f10x_rcc.c ****   RCC->CR &= CR_HSEON_Reset;
  96              		.loc 1 276 3 view .LVU19
  97              		.loc 1 276 11 is_stmt 0 view .LVU20
  98 0000 0C4B     		ldr	r3, .L10
 277:../Drivers/STM32F10x_StdPeriph_Driver/src/stm32f10x_rcc.c ****   /* Reset HSEBYP bit */
 278:../Drivers/STM32F10x_StdPeriph_Driver/src/stm32f10x_rcc.c ****   RCC->CR &= CR_HSEBYP_Reset;
 279:../Drivers/STM32F10x_StdPeriph_Driver/src/stm32f10x_rcc.c ****   /* Configure HSE (RCC_HSE_OFF is already covered by the code section above) */
 280:../Drivers/STM32F10x_StdPeriph_Driver/src/stm32f10x_rcc.c ****   switch(RCC_HSE)
  99              		.loc 1 280 3 view .LVU21
 100 0002 B0F5803F 		cmp	r0, #65536
 276:../Drivers/STM32F10x_StdPeriph_Driver/src/stm32f10x_rcc.c ****   /* Reset HSEBYP bit */
 101              		.loc 1 276 11 view .LVU22
 102 0006 1A68     		ldr	r2, [r3]
 103 0008 22F48032 		bic	r2, r2, #65536
 104 000c 1A60     		str	r2, [r3]
 278:../Drivers/STM32F10x_StdPeriph_Driver/src/stm32f10x_rcc.c ****   /* Configure HSE (RCC_HSE_OFF is already covered by the code section above) */
 105              		.loc 1 278 3 is_stmt 1 view .LVU23
 278:../Drivers/STM32F10x_StdPeriph_Driver/src/stm32f10x_rcc.c ****   /* Configure HSE (RCC_HSE_OFF is already covered by the code section above) */
 106              		.loc 1 278 11 is_stmt 0 view .LVU24
 107 000e 1A68     		ldr	r2, [r3]
 108 0010 22F48022 		bic	r2, r2, #262144
ARM GAS  /tmp/ccF8VtoY.s 			page 8


 109 0014 1A60     		str	r2, [r3]
 110              		.loc 1 280 3 is_stmt 1 view .LVU25
 111 0016 08D0     		beq	.L6
 112 0018 B0F5802F 		cmp	r0, #262144
 113 001c 04D1     		bne	.L9
 281:../Drivers/STM32F10x_StdPeriph_Driver/src/stm32f10x_rcc.c ****   {
 282:../Drivers/STM32F10x_StdPeriph_Driver/src/stm32f10x_rcc.c ****     case RCC_HSE_ON:
 283:../Drivers/STM32F10x_StdPeriph_Driver/src/stm32f10x_rcc.c ****       /* Set HSEON bit */
 284:../Drivers/STM32F10x_StdPeriph_Driver/src/stm32f10x_rcc.c ****       RCC->CR |= CR_HSEON_Set;
 285:../Drivers/STM32F10x_StdPeriph_Driver/src/stm32f10x_rcc.c ****       break;
 286:../Drivers/STM32F10x_StdPeriph_Driver/src/stm32f10x_rcc.c ****       
 287:../Drivers/STM32F10x_StdPeriph_Driver/src/stm32f10x_rcc.c ****     case RCC_HSE_Bypass:
 288:../Drivers/STM32F10x_StdPeriph_Driver/src/stm32f10x_rcc.c ****       /* Set HSEBYP and HSEON bits */
 289:../Drivers/STM32F10x_StdPeriph_Driver/src/stm32f10x_rcc.c ****       RCC->CR |= CR_HSEBYP_Set | CR_HSEON_Set;
 114              		.loc 1 289 7 view .LVU26
 115              		.loc 1 289 15 is_stmt 0 view .LVU27
 116 001e 1A68     		ldr	r2, [r3]
 117 0020 42F4A022 		orr	r2, r2, #327680
 118 0024 1A60     		str	r2, [r3]
 290:../Drivers/STM32F10x_StdPeriph_Driver/src/stm32f10x_rcc.c ****       break;
 119              		.loc 1 290 7 is_stmt 1 view .LVU28
 291:../Drivers/STM32F10x_StdPeriph_Driver/src/stm32f10x_rcc.c ****       
 292:../Drivers/STM32F10x_StdPeriph_Driver/src/stm32f10x_rcc.c ****     default:
 293:../Drivers/STM32F10x_StdPeriph_Driver/src/stm32f10x_rcc.c ****       break;
 294:../Drivers/STM32F10x_StdPeriph_Driver/src/stm32f10x_rcc.c ****   }
 295:../Drivers/STM32F10x_StdPeriph_Driver/src/stm32f10x_rcc.c **** }
 120              		.loc 1 295 1 is_stmt 0 view .LVU29
 121 0026 7047     		bx	lr
 122              	.L9:
 123 0028 7047     		bx	lr
 124              	.L6:
 284:../Drivers/STM32F10x_StdPeriph_Driver/src/stm32f10x_rcc.c ****       break;
 125              		.loc 1 284 7 is_stmt 1 view .LVU30
 284:../Drivers/STM32F10x_StdPeriph_Driver/src/stm32f10x_rcc.c ****       break;
 126              		.loc 1 284 15 is_stmt 0 view .LVU31
 127 002a 1A68     		ldr	r2, [r3]
 128 002c 42F48032 		orr	r2, r2, #65536
 129 0030 1A60     		str	r2, [r3]
 285:../Drivers/STM32F10x_StdPeriph_Driver/src/stm32f10x_rcc.c ****       
 130              		.loc 1 285 7 is_stmt 1 view .LVU32
 131 0032 7047     		bx	lr
 132              	.L11:
 133              		.align	2
 134              	.L10:
 135 0034 00100240 		.word	1073876992
 136              		.cfi_endproc
 137              	.LFE30:
 139              		.section	.text.RCC_WaitForHSEStartUp,"ax",%progbits
 140              		.align	1
 141              		.p2align 2,,3
 142              		.global	RCC_WaitForHSEStartUp
 143              		.syntax unified
 144              		.thumb
 145              		.thumb_func
 146              		.fpu softvfp
 148              	RCC_WaitForHSEStartUp:
 149              	.LFB31:
ARM GAS  /tmp/ccF8VtoY.s 			page 9


 296:../Drivers/STM32F10x_StdPeriph_Driver/src/stm32f10x_rcc.c **** 
 297:../Drivers/STM32F10x_StdPeriph_Driver/src/stm32f10x_rcc.c **** /**
 298:../Drivers/STM32F10x_StdPeriph_Driver/src/stm32f10x_rcc.c ****   * @brief  Waits for HSE start-up.
 299:../Drivers/STM32F10x_StdPeriph_Driver/src/stm32f10x_rcc.c ****   * @param  None
 300:../Drivers/STM32F10x_StdPeriph_Driver/src/stm32f10x_rcc.c ****   * @retval An ErrorStatus enumuration value:
 301:../Drivers/STM32F10x_StdPeriph_Driver/src/stm32f10x_rcc.c ****   * - SUCCESS: HSE oscillator is stable and ready to use
 302:../Drivers/STM32F10x_StdPeriph_Driver/src/stm32f10x_rcc.c ****   * - ERROR: HSE oscillator not yet ready
 303:../Drivers/STM32F10x_StdPeriph_Driver/src/stm32f10x_rcc.c ****   */
 304:../Drivers/STM32F10x_StdPeriph_Driver/src/stm32f10x_rcc.c **** ErrorStatus RCC_WaitForHSEStartUp(void)
 305:../Drivers/STM32F10x_StdPeriph_Driver/src/stm32f10x_rcc.c **** {
 150              		.loc 1 305 1 view -0
 151              		.cfi_startproc
 152              		@ args = 0, pretend = 0, frame = 8
 153              		@ frame_needed = 0, uses_anonymous_args = 0
 154              		@ link register save eliminated.
 306:../Drivers/STM32F10x_StdPeriph_Driver/src/stm32f10x_rcc.c ****   __IO uint32_t StartUpCounter = 0;
 155              		.loc 1 306 3 view .LVU34
 156              		.loc 1 306 17 is_stmt 0 view .LVU35
 157 0000 0023     		movs	r3, #0
 305:../Drivers/STM32F10x_StdPeriph_Driver/src/stm32f10x_rcc.c ****   __IO uint32_t StartUpCounter = 0;
 158              		.loc 1 305 1 view .LVU36
 159 0002 82B0     		sub	sp, sp, #8
 160              	.LCFI0:
 161              		.cfi_def_cfa_offset 8
 162              	.LBB6:
 163              	.LBB7:
 307:../Drivers/STM32F10x_StdPeriph_Driver/src/stm32f10x_rcc.c ****   ErrorStatus status = ERROR;
 308:../Drivers/STM32F10x_StdPeriph_Driver/src/stm32f10x_rcc.c ****   FlagStatus HSEStatus = RESET;
 309:../Drivers/STM32F10x_StdPeriph_Driver/src/stm32f10x_rcc.c ****   
 310:../Drivers/STM32F10x_StdPeriph_Driver/src/stm32f10x_rcc.c ****   /* Wait till HSE is ready and if Time out is reached exit */
 311:../Drivers/STM32F10x_StdPeriph_Driver/src/stm32f10x_rcc.c ****   do
 312:../Drivers/STM32F10x_StdPeriph_Driver/src/stm32f10x_rcc.c ****   {
 313:../Drivers/STM32F10x_StdPeriph_Driver/src/stm32f10x_rcc.c ****     HSEStatus = RCC_GetFlagStatus(RCC_FLAG_HSERDY);
 314:../Drivers/STM32F10x_StdPeriph_Driver/src/stm32f10x_rcc.c ****     StartUpCounter++;  
 315:../Drivers/STM32F10x_StdPeriph_Driver/src/stm32f10x_rcc.c ****   } while((StartUpCounter != HSE_STARTUP_TIMEOUT) && (HSEStatus == RESET));
 316:../Drivers/STM32F10x_StdPeriph_Driver/src/stm32f10x_rcc.c ****   
 317:../Drivers/STM32F10x_StdPeriph_Driver/src/stm32f10x_rcc.c ****   if (RCC_GetFlagStatus(RCC_FLAG_HSERDY) != RESET)
 318:../Drivers/STM32F10x_StdPeriph_Driver/src/stm32f10x_rcc.c ****   {
 319:../Drivers/STM32F10x_StdPeriph_Driver/src/stm32f10x_rcc.c ****     status = SUCCESS;
 320:../Drivers/STM32F10x_StdPeriph_Driver/src/stm32f10x_rcc.c ****   }
 321:../Drivers/STM32F10x_StdPeriph_Driver/src/stm32f10x_rcc.c ****   else
 322:../Drivers/STM32F10x_StdPeriph_Driver/src/stm32f10x_rcc.c ****   {
 323:../Drivers/STM32F10x_StdPeriph_Driver/src/stm32f10x_rcc.c ****     status = ERROR;
 324:../Drivers/STM32F10x_StdPeriph_Driver/src/stm32f10x_rcc.c ****   }  
 325:../Drivers/STM32F10x_StdPeriph_Driver/src/stm32f10x_rcc.c ****   return (status);
 326:../Drivers/STM32F10x_StdPeriph_Driver/src/stm32f10x_rcc.c **** }
 327:../Drivers/STM32F10x_StdPeriph_Driver/src/stm32f10x_rcc.c **** 
 328:../Drivers/STM32F10x_StdPeriph_Driver/src/stm32f10x_rcc.c **** /**
 329:../Drivers/STM32F10x_StdPeriph_Driver/src/stm32f10x_rcc.c ****   * @brief  Adjusts the Internal High Speed oscillator (HSI) calibration value.
 330:../Drivers/STM32F10x_StdPeriph_Driver/src/stm32f10x_rcc.c ****   * @param  HSICalibrationValue: specifies the calibration trimming value.
 331:../Drivers/STM32F10x_StdPeriph_Driver/src/stm32f10x_rcc.c ****   *   This parameter must be a number between 0 and 0x1F.
 332:../Drivers/STM32F10x_StdPeriph_Driver/src/stm32f10x_rcc.c ****   * @retval None
 333:../Drivers/STM32F10x_StdPeriph_Driver/src/stm32f10x_rcc.c ****   */
 334:../Drivers/STM32F10x_StdPeriph_Driver/src/stm32f10x_rcc.c **** void RCC_AdjustHSICalibrationValue(uint8_t HSICalibrationValue)
 335:../Drivers/STM32F10x_StdPeriph_Driver/src/stm32f10x_rcc.c **** {
 336:../Drivers/STM32F10x_StdPeriph_Driver/src/stm32f10x_rcc.c ****   uint32_t tmpreg = 0;
 337:../Drivers/STM32F10x_StdPeriph_Driver/src/stm32f10x_rcc.c ****   /* Check the parameters */
ARM GAS  /tmp/ccF8VtoY.s 			page 10


 338:../Drivers/STM32F10x_StdPeriph_Driver/src/stm32f10x_rcc.c ****   assert_param(IS_RCC_CALIBRATION_VALUE(HSICalibrationValue));
 339:../Drivers/STM32F10x_StdPeriph_Driver/src/stm32f10x_rcc.c ****   tmpreg = RCC->CR;
 340:../Drivers/STM32F10x_StdPeriph_Driver/src/stm32f10x_rcc.c ****   /* Clear HSITRIM[4:0] bits */
 341:../Drivers/STM32F10x_StdPeriph_Driver/src/stm32f10x_rcc.c ****   tmpreg &= CR_HSITRIM_Mask;
 342:../Drivers/STM32F10x_StdPeriph_Driver/src/stm32f10x_rcc.c ****   /* Set the HSITRIM[4:0] bits according to HSICalibrationValue value */
 343:../Drivers/STM32F10x_StdPeriph_Driver/src/stm32f10x_rcc.c ****   tmpreg |= (uint32_t)HSICalibrationValue << 3;
 344:../Drivers/STM32F10x_StdPeriph_Driver/src/stm32f10x_rcc.c ****   /* Store the new value */
 345:../Drivers/STM32F10x_StdPeriph_Driver/src/stm32f10x_rcc.c ****   RCC->CR = tmpreg;
 346:../Drivers/STM32F10x_StdPeriph_Driver/src/stm32f10x_rcc.c **** }
 347:../Drivers/STM32F10x_StdPeriph_Driver/src/stm32f10x_rcc.c **** 
 348:../Drivers/STM32F10x_StdPeriph_Driver/src/stm32f10x_rcc.c **** /**
 349:../Drivers/STM32F10x_StdPeriph_Driver/src/stm32f10x_rcc.c ****   * @brief  Enables or disables the Internal High Speed oscillator (HSI).
 350:../Drivers/STM32F10x_StdPeriph_Driver/src/stm32f10x_rcc.c ****   * @note   HSI can not be stopped if it is used directly or through the PLL as system clock.
 351:../Drivers/STM32F10x_StdPeriph_Driver/src/stm32f10x_rcc.c ****   * @param  NewState: new state of the HSI. This parameter can be: ENABLE or DISABLE.
 352:../Drivers/STM32F10x_StdPeriph_Driver/src/stm32f10x_rcc.c ****   * @retval None
 353:../Drivers/STM32F10x_StdPeriph_Driver/src/stm32f10x_rcc.c ****   */
 354:../Drivers/STM32F10x_StdPeriph_Driver/src/stm32f10x_rcc.c **** void RCC_HSICmd(FunctionalState NewState)
 355:../Drivers/STM32F10x_StdPeriph_Driver/src/stm32f10x_rcc.c **** {
 356:../Drivers/STM32F10x_StdPeriph_Driver/src/stm32f10x_rcc.c ****   /* Check the parameters */
 357:../Drivers/STM32F10x_StdPeriph_Driver/src/stm32f10x_rcc.c ****   assert_param(IS_FUNCTIONAL_STATE(NewState));
 358:../Drivers/STM32F10x_StdPeriph_Driver/src/stm32f10x_rcc.c ****   *(__IO uint32_t *) CR_HSION_BB = (uint32_t)NewState;
 359:../Drivers/STM32F10x_StdPeriph_Driver/src/stm32f10x_rcc.c **** }
 360:../Drivers/STM32F10x_StdPeriph_Driver/src/stm32f10x_rcc.c **** 
 361:../Drivers/STM32F10x_StdPeriph_Driver/src/stm32f10x_rcc.c **** /**
 362:../Drivers/STM32F10x_StdPeriph_Driver/src/stm32f10x_rcc.c ****   * @brief  Configures the PLL clock source and multiplication factor.
 363:../Drivers/STM32F10x_StdPeriph_Driver/src/stm32f10x_rcc.c ****   * @note   This function must be used only when the PLL is disabled.
 364:../Drivers/STM32F10x_StdPeriph_Driver/src/stm32f10x_rcc.c ****   * @param  RCC_PLLSource: specifies the PLL entry clock source.
 365:../Drivers/STM32F10x_StdPeriph_Driver/src/stm32f10x_rcc.c ****   *   For @b STM32_Connectivity_line_devices or @b STM32_Value_line_devices, 
 366:../Drivers/STM32F10x_StdPeriph_Driver/src/stm32f10x_rcc.c ****   *   this parameter can be one of the following values:
 367:../Drivers/STM32F10x_StdPeriph_Driver/src/stm32f10x_rcc.c ****   *     @arg RCC_PLLSource_HSI_Div2: HSI oscillator clock divided by 2 selected as PLL clock entry
 368:../Drivers/STM32F10x_StdPeriph_Driver/src/stm32f10x_rcc.c ****   *     @arg RCC_PLLSource_PREDIV1: PREDIV1 clock selected as PLL clock entry
 369:../Drivers/STM32F10x_StdPeriph_Driver/src/stm32f10x_rcc.c ****   *   For @b other_STM32_devices, this parameter can be one of the following values:
 370:../Drivers/STM32F10x_StdPeriph_Driver/src/stm32f10x_rcc.c ****   *     @arg RCC_PLLSource_HSI_Div2: HSI oscillator clock divided by 2 selected as PLL clock entry
 371:../Drivers/STM32F10x_StdPeriph_Driver/src/stm32f10x_rcc.c ****   *     @arg RCC_PLLSource_HSE_Div1: HSE oscillator clock selected as PLL clock entry
 372:../Drivers/STM32F10x_StdPeriph_Driver/src/stm32f10x_rcc.c ****   *     @arg RCC_PLLSource_HSE_Div2: HSE oscillator clock divided by 2 selected as PLL clock entry 
 373:../Drivers/STM32F10x_StdPeriph_Driver/src/stm32f10x_rcc.c ****   * @param  RCC_PLLMul: specifies the PLL multiplication factor.
 374:../Drivers/STM32F10x_StdPeriph_Driver/src/stm32f10x_rcc.c ****   *   For @b STM32_Connectivity_line_devices, this parameter can be RCC_PLLMul_x where x:{[4,9], 6_
 375:../Drivers/STM32F10x_StdPeriph_Driver/src/stm32f10x_rcc.c ****   *   For @b other_STM32_devices, this parameter can be RCC_PLLMul_x where x:[2,16]  
 376:../Drivers/STM32F10x_StdPeriph_Driver/src/stm32f10x_rcc.c ****   * @retval None
 377:../Drivers/STM32F10x_StdPeriph_Driver/src/stm32f10x_rcc.c ****   */
 378:../Drivers/STM32F10x_StdPeriph_Driver/src/stm32f10x_rcc.c **** void RCC_PLLConfig(uint32_t RCC_PLLSource, uint32_t RCC_PLLMul)
 379:../Drivers/STM32F10x_StdPeriph_Driver/src/stm32f10x_rcc.c **** {
 380:../Drivers/STM32F10x_StdPeriph_Driver/src/stm32f10x_rcc.c ****   uint32_t tmpreg = 0;
 381:../Drivers/STM32F10x_StdPeriph_Driver/src/stm32f10x_rcc.c **** 
 382:../Drivers/STM32F10x_StdPeriph_Driver/src/stm32f10x_rcc.c ****   /* Check the parameters */
 383:../Drivers/STM32F10x_StdPeriph_Driver/src/stm32f10x_rcc.c ****   assert_param(IS_RCC_PLL_SOURCE(RCC_PLLSource));
 384:../Drivers/STM32F10x_StdPeriph_Driver/src/stm32f10x_rcc.c ****   assert_param(IS_RCC_PLL_MUL(RCC_PLLMul));
 385:../Drivers/STM32F10x_StdPeriph_Driver/src/stm32f10x_rcc.c **** 
 386:../Drivers/STM32F10x_StdPeriph_Driver/src/stm32f10x_rcc.c ****   tmpreg = RCC->CFGR;
 387:../Drivers/STM32F10x_StdPeriph_Driver/src/stm32f10x_rcc.c ****   /* Clear PLLSRC, PLLXTPRE and PLLMUL[3:0] bits */
 388:../Drivers/STM32F10x_StdPeriph_Driver/src/stm32f10x_rcc.c ****   tmpreg &= CFGR_PLL_Mask;
 389:../Drivers/STM32F10x_StdPeriph_Driver/src/stm32f10x_rcc.c ****   /* Set the PLL configuration bits */
 390:../Drivers/STM32F10x_StdPeriph_Driver/src/stm32f10x_rcc.c ****   tmpreg |= RCC_PLLSource | RCC_PLLMul;
 391:../Drivers/STM32F10x_StdPeriph_Driver/src/stm32f10x_rcc.c ****   /* Store the new value */
 392:../Drivers/STM32F10x_StdPeriph_Driver/src/stm32f10x_rcc.c ****   RCC->CFGR = tmpreg;
 393:../Drivers/STM32F10x_StdPeriph_Driver/src/stm32f10x_rcc.c **** }
 394:../Drivers/STM32F10x_StdPeriph_Driver/src/stm32f10x_rcc.c **** 
ARM GAS  /tmp/ccF8VtoY.s 			page 11


 395:../Drivers/STM32F10x_StdPeriph_Driver/src/stm32f10x_rcc.c **** /**
 396:../Drivers/STM32F10x_StdPeriph_Driver/src/stm32f10x_rcc.c ****   * @brief  Enables or disables the PLL.
 397:../Drivers/STM32F10x_StdPeriph_Driver/src/stm32f10x_rcc.c ****   * @note   The PLL can not be disabled if it is used as system clock.
 398:../Drivers/STM32F10x_StdPeriph_Driver/src/stm32f10x_rcc.c ****   * @param  NewState: new state of the PLL. This parameter can be: ENABLE or DISABLE.
 399:../Drivers/STM32F10x_StdPeriph_Driver/src/stm32f10x_rcc.c ****   * @retval None
 400:../Drivers/STM32F10x_StdPeriph_Driver/src/stm32f10x_rcc.c ****   */
 401:../Drivers/STM32F10x_StdPeriph_Driver/src/stm32f10x_rcc.c **** void RCC_PLLCmd(FunctionalState NewState)
 402:../Drivers/STM32F10x_StdPeriph_Driver/src/stm32f10x_rcc.c **** {
 403:../Drivers/STM32F10x_StdPeriph_Driver/src/stm32f10x_rcc.c ****   /* Check the parameters */
 404:../Drivers/STM32F10x_StdPeriph_Driver/src/stm32f10x_rcc.c ****   assert_param(IS_FUNCTIONAL_STATE(NewState));
 405:../Drivers/STM32F10x_StdPeriph_Driver/src/stm32f10x_rcc.c **** 
 406:../Drivers/STM32F10x_StdPeriph_Driver/src/stm32f10x_rcc.c ****   *(__IO uint32_t *) CR_PLLON_BB = (uint32_t)NewState;
 407:../Drivers/STM32F10x_StdPeriph_Driver/src/stm32f10x_rcc.c **** }
 408:../Drivers/STM32F10x_StdPeriph_Driver/src/stm32f10x_rcc.c **** 
 409:../Drivers/STM32F10x_StdPeriph_Driver/src/stm32f10x_rcc.c **** #if defined (STM32F10X_LD_VL) || defined (STM32F10X_MD_VL) || defined (STM32F10X_HD_VL) || defined 
 410:../Drivers/STM32F10x_StdPeriph_Driver/src/stm32f10x_rcc.c **** /**
 411:../Drivers/STM32F10x_StdPeriph_Driver/src/stm32f10x_rcc.c ****   * @brief  Configures the PREDIV1 division factor.
 412:../Drivers/STM32F10x_StdPeriph_Driver/src/stm32f10x_rcc.c ****   * @note 
 413:../Drivers/STM32F10x_StdPeriph_Driver/src/stm32f10x_rcc.c ****   *   - This function must be used only when the PLL is disabled.
 414:../Drivers/STM32F10x_StdPeriph_Driver/src/stm32f10x_rcc.c ****   *   - This function applies only to STM32 Connectivity line and Value line 
 415:../Drivers/STM32F10x_StdPeriph_Driver/src/stm32f10x_rcc.c ****   *     devices.
 416:../Drivers/STM32F10x_StdPeriph_Driver/src/stm32f10x_rcc.c ****   * @param  RCC_PREDIV1_Source: specifies the PREDIV1 clock source.
 417:../Drivers/STM32F10x_StdPeriph_Driver/src/stm32f10x_rcc.c ****   *   This parameter can be one of the following values:
 418:../Drivers/STM32F10x_StdPeriph_Driver/src/stm32f10x_rcc.c ****   *     @arg RCC_PREDIV1_Source_HSE: HSE selected as PREDIV1 clock
 419:../Drivers/STM32F10x_StdPeriph_Driver/src/stm32f10x_rcc.c ****   *     @arg RCC_PREDIV1_Source_PLL2: PLL2 selected as PREDIV1 clock
 420:../Drivers/STM32F10x_StdPeriph_Driver/src/stm32f10x_rcc.c ****   * @note 
 421:../Drivers/STM32F10x_StdPeriph_Driver/src/stm32f10x_rcc.c ****   *   For @b STM32_Value_line_devices this parameter is always RCC_PREDIV1_Source_HSE  
 422:../Drivers/STM32F10x_StdPeriph_Driver/src/stm32f10x_rcc.c ****   * @param  RCC_PREDIV1_Div: specifies the PREDIV1 clock division factor.
 423:../Drivers/STM32F10x_StdPeriph_Driver/src/stm32f10x_rcc.c ****   *   This parameter can be RCC_PREDIV1_Divx where x:[1,16]
 424:../Drivers/STM32F10x_StdPeriph_Driver/src/stm32f10x_rcc.c ****   * @retval None
 425:../Drivers/STM32F10x_StdPeriph_Driver/src/stm32f10x_rcc.c ****   */
 426:../Drivers/STM32F10x_StdPeriph_Driver/src/stm32f10x_rcc.c **** void RCC_PREDIV1Config(uint32_t RCC_PREDIV1_Source, uint32_t RCC_PREDIV1_Div)
 427:../Drivers/STM32F10x_StdPeriph_Driver/src/stm32f10x_rcc.c **** {
 428:../Drivers/STM32F10x_StdPeriph_Driver/src/stm32f10x_rcc.c ****   uint32_t tmpreg = 0;
 429:../Drivers/STM32F10x_StdPeriph_Driver/src/stm32f10x_rcc.c ****   
 430:../Drivers/STM32F10x_StdPeriph_Driver/src/stm32f10x_rcc.c ****   /* Check the parameters */
 431:../Drivers/STM32F10x_StdPeriph_Driver/src/stm32f10x_rcc.c ****   assert_param(IS_RCC_PREDIV1_SOURCE(RCC_PREDIV1_Source));
 432:../Drivers/STM32F10x_StdPeriph_Driver/src/stm32f10x_rcc.c ****   assert_param(IS_RCC_PREDIV1(RCC_PREDIV1_Div));
 433:../Drivers/STM32F10x_StdPeriph_Driver/src/stm32f10x_rcc.c **** 
 434:../Drivers/STM32F10x_StdPeriph_Driver/src/stm32f10x_rcc.c ****   tmpreg = RCC->CFGR2;
 435:../Drivers/STM32F10x_StdPeriph_Driver/src/stm32f10x_rcc.c ****   /* Clear PREDIV1[3:0] and PREDIV1SRC bits */
 436:../Drivers/STM32F10x_StdPeriph_Driver/src/stm32f10x_rcc.c ****   tmpreg &= ~(CFGR2_PREDIV1 | CFGR2_PREDIV1SRC);
 437:../Drivers/STM32F10x_StdPeriph_Driver/src/stm32f10x_rcc.c ****   /* Set the PREDIV1 clock source and division factor */
 438:../Drivers/STM32F10x_StdPeriph_Driver/src/stm32f10x_rcc.c ****   tmpreg |= RCC_PREDIV1_Source | RCC_PREDIV1_Div ;
 439:../Drivers/STM32F10x_StdPeriph_Driver/src/stm32f10x_rcc.c ****   /* Store the new value */
 440:../Drivers/STM32F10x_StdPeriph_Driver/src/stm32f10x_rcc.c ****   RCC->CFGR2 = tmpreg;
 441:../Drivers/STM32F10x_StdPeriph_Driver/src/stm32f10x_rcc.c **** }
 442:../Drivers/STM32F10x_StdPeriph_Driver/src/stm32f10x_rcc.c **** #endif
 443:../Drivers/STM32F10x_StdPeriph_Driver/src/stm32f10x_rcc.c **** 
 444:../Drivers/STM32F10x_StdPeriph_Driver/src/stm32f10x_rcc.c **** #ifdef STM32F10X_CL
 445:../Drivers/STM32F10x_StdPeriph_Driver/src/stm32f10x_rcc.c **** /**
 446:../Drivers/STM32F10x_StdPeriph_Driver/src/stm32f10x_rcc.c ****   * @brief  Configures the PREDIV2 division factor.
 447:../Drivers/STM32F10x_StdPeriph_Driver/src/stm32f10x_rcc.c ****   * @note 
 448:../Drivers/STM32F10x_StdPeriph_Driver/src/stm32f10x_rcc.c ****   *   - This function must be used only when both PLL2 and PLL3 are disabled.
 449:../Drivers/STM32F10x_StdPeriph_Driver/src/stm32f10x_rcc.c ****   *   - This function applies only to STM32 Connectivity line devices.
 450:../Drivers/STM32F10x_StdPeriph_Driver/src/stm32f10x_rcc.c ****   * @param  RCC_PREDIV2_Div: specifies the PREDIV2 clock division factor.
 451:../Drivers/STM32F10x_StdPeriph_Driver/src/stm32f10x_rcc.c ****   *   This parameter can be RCC_PREDIV2_Divx where x:[1,16]
ARM GAS  /tmp/ccF8VtoY.s 			page 12


 452:../Drivers/STM32F10x_StdPeriph_Driver/src/stm32f10x_rcc.c ****   * @retval None
 453:../Drivers/STM32F10x_StdPeriph_Driver/src/stm32f10x_rcc.c ****   */
 454:../Drivers/STM32F10x_StdPeriph_Driver/src/stm32f10x_rcc.c **** void RCC_PREDIV2Config(uint32_t RCC_PREDIV2_Div)
 455:../Drivers/STM32F10x_StdPeriph_Driver/src/stm32f10x_rcc.c **** {
 456:../Drivers/STM32F10x_StdPeriph_Driver/src/stm32f10x_rcc.c ****   uint32_t tmpreg = 0;
 457:../Drivers/STM32F10x_StdPeriph_Driver/src/stm32f10x_rcc.c **** 
 458:../Drivers/STM32F10x_StdPeriph_Driver/src/stm32f10x_rcc.c ****   /* Check the parameters */
 459:../Drivers/STM32F10x_StdPeriph_Driver/src/stm32f10x_rcc.c ****   assert_param(IS_RCC_PREDIV2(RCC_PREDIV2_Div));
 460:../Drivers/STM32F10x_StdPeriph_Driver/src/stm32f10x_rcc.c **** 
 461:../Drivers/STM32F10x_StdPeriph_Driver/src/stm32f10x_rcc.c ****   tmpreg = RCC->CFGR2;
 462:../Drivers/STM32F10x_StdPeriph_Driver/src/stm32f10x_rcc.c ****   /* Clear PREDIV2[3:0] bits */
 463:../Drivers/STM32F10x_StdPeriph_Driver/src/stm32f10x_rcc.c ****   tmpreg &= ~CFGR2_PREDIV2;
 464:../Drivers/STM32F10x_StdPeriph_Driver/src/stm32f10x_rcc.c ****   /* Set the PREDIV2 division factor */
 465:../Drivers/STM32F10x_StdPeriph_Driver/src/stm32f10x_rcc.c ****   tmpreg |= RCC_PREDIV2_Div;
 466:../Drivers/STM32F10x_StdPeriph_Driver/src/stm32f10x_rcc.c ****   /* Store the new value */
 467:../Drivers/STM32F10x_StdPeriph_Driver/src/stm32f10x_rcc.c ****   RCC->CFGR2 = tmpreg;
 468:../Drivers/STM32F10x_StdPeriph_Driver/src/stm32f10x_rcc.c **** }
 469:../Drivers/STM32F10x_StdPeriph_Driver/src/stm32f10x_rcc.c **** 
 470:../Drivers/STM32F10x_StdPeriph_Driver/src/stm32f10x_rcc.c **** /**
 471:../Drivers/STM32F10x_StdPeriph_Driver/src/stm32f10x_rcc.c ****   * @brief  Configures the PLL2 multiplication factor.
 472:../Drivers/STM32F10x_StdPeriph_Driver/src/stm32f10x_rcc.c ****   * @note
 473:../Drivers/STM32F10x_StdPeriph_Driver/src/stm32f10x_rcc.c ****   *   - This function must be used only when the PLL2 is disabled.
 474:../Drivers/STM32F10x_StdPeriph_Driver/src/stm32f10x_rcc.c ****   *   - This function applies only to STM32 Connectivity line devices.
 475:../Drivers/STM32F10x_StdPeriph_Driver/src/stm32f10x_rcc.c ****   * @param  RCC_PLL2Mul: specifies the PLL2 multiplication factor.
 476:../Drivers/STM32F10x_StdPeriph_Driver/src/stm32f10x_rcc.c ****   *   This parameter can be RCC_PLL2Mul_x where x:{[8,14], 16, 20}
 477:../Drivers/STM32F10x_StdPeriph_Driver/src/stm32f10x_rcc.c ****   * @retval None
 478:../Drivers/STM32F10x_StdPeriph_Driver/src/stm32f10x_rcc.c ****   */
 479:../Drivers/STM32F10x_StdPeriph_Driver/src/stm32f10x_rcc.c **** void RCC_PLL2Config(uint32_t RCC_PLL2Mul)
 480:../Drivers/STM32F10x_StdPeriph_Driver/src/stm32f10x_rcc.c **** {
 481:../Drivers/STM32F10x_StdPeriph_Driver/src/stm32f10x_rcc.c ****   uint32_t tmpreg = 0;
 482:../Drivers/STM32F10x_StdPeriph_Driver/src/stm32f10x_rcc.c **** 
 483:../Drivers/STM32F10x_StdPeriph_Driver/src/stm32f10x_rcc.c ****   /* Check the parameters */
 484:../Drivers/STM32F10x_StdPeriph_Driver/src/stm32f10x_rcc.c ****   assert_param(IS_RCC_PLL2_MUL(RCC_PLL2Mul));
 485:../Drivers/STM32F10x_StdPeriph_Driver/src/stm32f10x_rcc.c **** 
 486:../Drivers/STM32F10x_StdPeriph_Driver/src/stm32f10x_rcc.c ****   tmpreg = RCC->CFGR2;
 487:../Drivers/STM32F10x_StdPeriph_Driver/src/stm32f10x_rcc.c ****   /* Clear PLL2Mul[3:0] bits */
 488:../Drivers/STM32F10x_StdPeriph_Driver/src/stm32f10x_rcc.c ****   tmpreg &= ~CFGR2_PLL2MUL;
 489:../Drivers/STM32F10x_StdPeriph_Driver/src/stm32f10x_rcc.c ****   /* Set the PLL2 configuration bits */
 490:../Drivers/STM32F10x_StdPeriph_Driver/src/stm32f10x_rcc.c ****   tmpreg |= RCC_PLL2Mul;
 491:../Drivers/STM32F10x_StdPeriph_Driver/src/stm32f10x_rcc.c ****   /* Store the new value */
 492:../Drivers/STM32F10x_StdPeriph_Driver/src/stm32f10x_rcc.c ****   RCC->CFGR2 = tmpreg;
 493:../Drivers/STM32F10x_StdPeriph_Driver/src/stm32f10x_rcc.c **** }
 494:../Drivers/STM32F10x_StdPeriph_Driver/src/stm32f10x_rcc.c **** 
 495:../Drivers/STM32F10x_StdPeriph_Driver/src/stm32f10x_rcc.c **** 
 496:../Drivers/STM32F10x_StdPeriph_Driver/src/stm32f10x_rcc.c **** /**
 497:../Drivers/STM32F10x_StdPeriph_Driver/src/stm32f10x_rcc.c ****   * @brief  Enables or disables the PLL2.
 498:../Drivers/STM32F10x_StdPeriph_Driver/src/stm32f10x_rcc.c ****   * @note 
 499:../Drivers/STM32F10x_StdPeriph_Driver/src/stm32f10x_rcc.c ****   *   - The PLL2 can not be disabled if it is used indirectly as system clock
 500:../Drivers/STM32F10x_StdPeriph_Driver/src/stm32f10x_rcc.c ****   *     (i.e. it is used as PLL clock entry that is used as System clock).
 501:../Drivers/STM32F10x_StdPeriph_Driver/src/stm32f10x_rcc.c ****   *   - This function applies only to STM32 Connectivity line devices.
 502:../Drivers/STM32F10x_StdPeriph_Driver/src/stm32f10x_rcc.c ****   * @param  NewState: new state of the PLL2. This parameter can be: ENABLE or DISABLE.
 503:../Drivers/STM32F10x_StdPeriph_Driver/src/stm32f10x_rcc.c ****   * @retval None
 504:../Drivers/STM32F10x_StdPeriph_Driver/src/stm32f10x_rcc.c ****   */
 505:../Drivers/STM32F10x_StdPeriph_Driver/src/stm32f10x_rcc.c **** void RCC_PLL2Cmd(FunctionalState NewState)
 506:../Drivers/STM32F10x_StdPeriph_Driver/src/stm32f10x_rcc.c **** {
 507:../Drivers/STM32F10x_StdPeriph_Driver/src/stm32f10x_rcc.c ****   /* Check the parameters */
 508:../Drivers/STM32F10x_StdPeriph_Driver/src/stm32f10x_rcc.c ****   assert_param(IS_FUNCTIONAL_STATE(NewState));
ARM GAS  /tmp/ccF8VtoY.s 			page 13


 509:../Drivers/STM32F10x_StdPeriph_Driver/src/stm32f10x_rcc.c **** 
 510:../Drivers/STM32F10x_StdPeriph_Driver/src/stm32f10x_rcc.c ****   *(__IO uint32_t *) CR_PLL2ON_BB = (uint32_t)NewState;
 511:../Drivers/STM32F10x_StdPeriph_Driver/src/stm32f10x_rcc.c **** }
 512:../Drivers/STM32F10x_StdPeriph_Driver/src/stm32f10x_rcc.c **** 
 513:../Drivers/STM32F10x_StdPeriph_Driver/src/stm32f10x_rcc.c **** 
 514:../Drivers/STM32F10x_StdPeriph_Driver/src/stm32f10x_rcc.c **** /**
 515:../Drivers/STM32F10x_StdPeriph_Driver/src/stm32f10x_rcc.c ****   * @brief  Configures the PLL3 multiplication factor.
 516:../Drivers/STM32F10x_StdPeriph_Driver/src/stm32f10x_rcc.c ****   * @note 
 517:../Drivers/STM32F10x_StdPeriph_Driver/src/stm32f10x_rcc.c ****   *   - This function must be used only when the PLL3 is disabled.
 518:../Drivers/STM32F10x_StdPeriph_Driver/src/stm32f10x_rcc.c ****   *   - This function applies only to STM32 Connectivity line devices.
 519:../Drivers/STM32F10x_StdPeriph_Driver/src/stm32f10x_rcc.c ****   * @param  RCC_PLL3Mul: specifies the PLL3 multiplication factor.
 520:../Drivers/STM32F10x_StdPeriph_Driver/src/stm32f10x_rcc.c ****   *   This parameter can be RCC_PLL3Mul_x where x:{[8,14], 16, 20}
 521:../Drivers/STM32F10x_StdPeriph_Driver/src/stm32f10x_rcc.c ****   * @retval None
 522:../Drivers/STM32F10x_StdPeriph_Driver/src/stm32f10x_rcc.c ****   */
 523:../Drivers/STM32F10x_StdPeriph_Driver/src/stm32f10x_rcc.c **** void RCC_PLL3Config(uint32_t RCC_PLL3Mul)
 524:../Drivers/STM32F10x_StdPeriph_Driver/src/stm32f10x_rcc.c **** {
 525:../Drivers/STM32F10x_StdPeriph_Driver/src/stm32f10x_rcc.c ****   uint32_t tmpreg = 0;
 526:../Drivers/STM32F10x_StdPeriph_Driver/src/stm32f10x_rcc.c **** 
 527:../Drivers/STM32F10x_StdPeriph_Driver/src/stm32f10x_rcc.c ****   /* Check the parameters */
 528:../Drivers/STM32F10x_StdPeriph_Driver/src/stm32f10x_rcc.c ****   assert_param(IS_RCC_PLL3_MUL(RCC_PLL3Mul));
 529:../Drivers/STM32F10x_StdPeriph_Driver/src/stm32f10x_rcc.c **** 
 530:../Drivers/STM32F10x_StdPeriph_Driver/src/stm32f10x_rcc.c ****   tmpreg = RCC->CFGR2;
 531:../Drivers/STM32F10x_StdPeriph_Driver/src/stm32f10x_rcc.c ****   /* Clear PLL3Mul[3:0] bits */
 532:../Drivers/STM32F10x_StdPeriph_Driver/src/stm32f10x_rcc.c ****   tmpreg &= ~CFGR2_PLL3MUL;
 533:../Drivers/STM32F10x_StdPeriph_Driver/src/stm32f10x_rcc.c ****   /* Set the PLL3 configuration bits */
 534:../Drivers/STM32F10x_StdPeriph_Driver/src/stm32f10x_rcc.c ****   tmpreg |= RCC_PLL3Mul;
 535:../Drivers/STM32F10x_StdPeriph_Driver/src/stm32f10x_rcc.c ****   /* Store the new value */
 536:../Drivers/STM32F10x_StdPeriph_Driver/src/stm32f10x_rcc.c ****   RCC->CFGR2 = tmpreg;
 537:../Drivers/STM32F10x_StdPeriph_Driver/src/stm32f10x_rcc.c **** }
 538:../Drivers/STM32F10x_StdPeriph_Driver/src/stm32f10x_rcc.c **** 
 539:../Drivers/STM32F10x_StdPeriph_Driver/src/stm32f10x_rcc.c **** 
 540:../Drivers/STM32F10x_StdPeriph_Driver/src/stm32f10x_rcc.c **** /**
 541:../Drivers/STM32F10x_StdPeriph_Driver/src/stm32f10x_rcc.c ****   * @brief  Enables or disables the PLL3.
 542:../Drivers/STM32F10x_StdPeriph_Driver/src/stm32f10x_rcc.c ****   * @note   This function applies only to STM32 Connectivity line devices.
 543:../Drivers/STM32F10x_StdPeriph_Driver/src/stm32f10x_rcc.c ****   * @param  NewState: new state of the PLL3. This parameter can be: ENABLE or DISABLE.
 544:../Drivers/STM32F10x_StdPeriph_Driver/src/stm32f10x_rcc.c ****   * @retval None
 545:../Drivers/STM32F10x_StdPeriph_Driver/src/stm32f10x_rcc.c ****   */
 546:../Drivers/STM32F10x_StdPeriph_Driver/src/stm32f10x_rcc.c **** void RCC_PLL3Cmd(FunctionalState NewState)
 547:../Drivers/STM32F10x_StdPeriph_Driver/src/stm32f10x_rcc.c **** {
 548:../Drivers/STM32F10x_StdPeriph_Driver/src/stm32f10x_rcc.c ****   /* Check the parameters */
 549:../Drivers/STM32F10x_StdPeriph_Driver/src/stm32f10x_rcc.c **** 
 550:../Drivers/STM32F10x_StdPeriph_Driver/src/stm32f10x_rcc.c ****   assert_param(IS_FUNCTIONAL_STATE(NewState));
 551:../Drivers/STM32F10x_StdPeriph_Driver/src/stm32f10x_rcc.c ****   *(__IO uint32_t *) CR_PLL3ON_BB = (uint32_t)NewState;
 552:../Drivers/STM32F10x_StdPeriph_Driver/src/stm32f10x_rcc.c **** }
 553:../Drivers/STM32F10x_StdPeriph_Driver/src/stm32f10x_rcc.c **** #endif /* STM32F10X_CL */
 554:../Drivers/STM32F10x_StdPeriph_Driver/src/stm32f10x_rcc.c **** 
 555:../Drivers/STM32F10x_StdPeriph_Driver/src/stm32f10x_rcc.c **** /**
 556:../Drivers/STM32F10x_StdPeriph_Driver/src/stm32f10x_rcc.c ****   * @brief  Configures the system clock (SYSCLK).
 557:../Drivers/STM32F10x_StdPeriph_Driver/src/stm32f10x_rcc.c ****   * @param  RCC_SYSCLKSource: specifies the clock source used as system clock.
 558:../Drivers/STM32F10x_StdPeriph_Driver/src/stm32f10x_rcc.c ****   *   This parameter can be one of the following values:
 559:../Drivers/STM32F10x_StdPeriph_Driver/src/stm32f10x_rcc.c ****   *     @arg RCC_SYSCLKSource_HSI: HSI selected as system clock
 560:../Drivers/STM32F10x_StdPeriph_Driver/src/stm32f10x_rcc.c ****   *     @arg RCC_SYSCLKSource_HSE: HSE selected as system clock
 561:../Drivers/STM32F10x_StdPeriph_Driver/src/stm32f10x_rcc.c ****   *     @arg RCC_SYSCLKSource_PLLCLK: PLL selected as system clock
 562:../Drivers/STM32F10x_StdPeriph_Driver/src/stm32f10x_rcc.c ****   * @retval None
 563:../Drivers/STM32F10x_StdPeriph_Driver/src/stm32f10x_rcc.c ****   */
 564:../Drivers/STM32F10x_StdPeriph_Driver/src/stm32f10x_rcc.c **** void RCC_SYSCLKConfig(uint32_t RCC_SYSCLKSource)
 565:../Drivers/STM32F10x_StdPeriph_Driver/src/stm32f10x_rcc.c **** {
ARM GAS  /tmp/ccF8VtoY.s 			page 14


 566:../Drivers/STM32F10x_StdPeriph_Driver/src/stm32f10x_rcc.c ****   uint32_t tmpreg = 0;
 567:../Drivers/STM32F10x_StdPeriph_Driver/src/stm32f10x_rcc.c ****   /* Check the parameters */
 568:../Drivers/STM32F10x_StdPeriph_Driver/src/stm32f10x_rcc.c ****   assert_param(IS_RCC_SYSCLK_SOURCE(RCC_SYSCLKSource));
 569:../Drivers/STM32F10x_StdPeriph_Driver/src/stm32f10x_rcc.c ****   tmpreg = RCC->CFGR;
 570:../Drivers/STM32F10x_StdPeriph_Driver/src/stm32f10x_rcc.c ****   /* Clear SW[1:0] bits */
 571:../Drivers/STM32F10x_StdPeriph_Driver/src/stm32f10x_rcc.c ****   tmpreg &= CFGR_SW_Mask;
 572:../Drivers/STM32F10x_StdPeriph_Driver/src/stm32f10x_rcc.c ****   /* Set SW[1:0] bits according to RCC_SYSCLKSource value */
 573:../Drivers/STM32F10x_StdPeriph_Driver/src/stm32f10x_rcc.c ****   tmpreg |= RCC_SYSCLKSource;
 574:../Drivers/STM32F10x_StdPeriph_Driver/src/stm32f10x_rcc.c ****   /* Store the new value */
 575:../Drivers/STM32F10x_StdPeriph_Driver/src/stm32f10x_rcc.c ****   RCC->CFGR = tmpreg;
 576:../Drivers/STM32F10x_StdPeriph_Driver/src/stm32f10x_rcc.c **** }
 577:../Drivers/STM32F10x_StdPeriph_Driver/src/stm32f10x_rcc.c **** 
 578:../Drivers/STM32F10x_StdPeriph_Driver/src/stm32f10x_rcc.c **** /**
 579:../Drivers/STM32F10x_StdPeriph_Driver/src/stm32f10x_rcc.c ****   * @brief  Returns the clock source used as system clock.
 580:../Drivers/STM32F10x_StdPeriph_Driver/src/stm32f10x_rcc.c ****   * @param  None
 581:../Drivers/STM32F10x_StdPeriph_Driver/src/stm32f10x_rcc.c ****   * @retval The clock source used as system clock. The returned value can
 582:../Drivers/STM32F10x_StdPeriph_Driver/src/stm32f10x_rcc.c ****   *   be one of the following:
 583:../Drivers/STM32F10x_StdPeriph_Driver/src/stm32f10x_rcc.c ****   *     - 0x00: HSI used as system clock
 584:../Drivers/STM32F10x_StdPeriph_Driver/src/stm32f10x_rcc.c ****   *     - 0x04: HSE used as system clock
 585:../Drivers/STM32F10x_StdPeriph_Driver/src/stm32f10x_rcc.c ****   *     - 0x08: PLL used as system clock
 586:../Drivers/STM32F10x_StdPeriph_Driver/src/stm32f10x_rcc.c ****   */
 587:../Drivers/STM32F10x_StdPeriph_Driver/src/stm32f10x_rcc.c **** uint8_t RCC_GetSYSCLKSource(void)
 588:../Drivers/STM32F10x_StdPeriph_Driver/src/stm32f10x_rcc.c **** {
 589:../Drivers/STM32F10x_StdPeriph_Driver/src/stm32f10x_rcc.c ****   return ((uint8_t)(RCC->CFGR & CFGR_SWS_Mask));
 590:../Drivers/STM32F10x_StdPeriph_Driver/src/stm32f10x_rcc.c **** }
 591:../Drivers/STM32F10x_StdPeriph_Driver/src/stm32f10x_rcc.c **** 
 592:../Drivers/STM32F10x_StdPeriph_Driver/src/stm32f10x_rcc.c **** /**
 593:../Drivers/STM32F10x_StdPeriph_Driver/src/stm32f10x_rcc.c ****   * @brief  Configures the AHB clock (HCLK).
 594:../Drivers/STM32F10x_StdPeriph_Driver/src/stm32f10x_rcc.c ****   * @param  RCC_SYSCLK: defines the AHB clock divider. This clock is derived from 
 595:../Drivers/STM32F10x_StdPeriph_Driver/src/stm32f10x_rcc.c ****   *   the system clock (SYSCLK).
 596:../Drivers/STM32F10x_StdPeriph_Driver/src/stm32f10x_rcc.c ****   *   This parameter can be one of the following values:
 597:../Drivers/STM32F10x_StdPeriph_Driver/src/stm32f10x_rcc.c ****   *     @arg RCC_SYSCLK_Div1: AHB clock = SYSCLK
 598:../Drivers/STM32F10x_StdPeriph_Driver/src/stm32f10x_rcc.c ****   *     @arg RCC_SYSCLK_Div2: AHB clock = SYSCLK/2
 599:../Drivers/STM32F10x_StdPeriph_Driver/src/stm32f10x_rcc.c ****   *     @arg RCC_SYSCLK_Div4: AHB clock = SYSCLK/4
 600:../Drivers/STM32F10x_StdPeriph_Driver/src/stm32f10x_rcc.c ****   *     @arg RCC_SYSCLK_Div8: AHB clock = SYSCLK/8
 601:../Drivers/STM32F10x_StdPeriph_Driver/src/stm32f10x_rcc.c ****   *     @arg RCC_SYSCLK_Div16: AHB clock = SYSCLK/16
 602:../Drivers/STM32F10x_StdPeriph_Driver/src/stm32f10x_rcc.c ****   *     @arg RCC_SYSCLK_Div64: AHB clock = SYSCLK/64
 603:../Drivers/STM32F10x_StdPeriph_Driver/src/stm32f10x_rcc.c ****   *     @arg RCC_SYSCLK_Div128: AHB clock = SYSCLK/128
 604:../Drivers/STM32F10x_StdPeriph_Driver/src/stm32f10x_rcc.c ****   *     @arg RCC_SYSCLK_Div256: AHB clock = SYSCLK/256
 605:../Drivers/STM32F10x_StdPeriph_Driver/src/stm32f10x_rcc.c ****   *     @arg RCC_SYSCLK_Div512: AHB clock = SYSCLK/512
 606:../Drivers/STM32F10x_StdPeriph_Driver/src/stm32f10x_rcc.c ****   * @retval None
 607:../Drivers/STM32F10x_StdPeriph_Driver/src/stm32f10x_rcc.c ****   */
 608:../Drivers/STM32F10x_StdPeriph_Driver/src/stm32f10x_rcc.c **** void RCC_HCLKConfig(uint32_t RCC_SYSCLK)
 609:../Drivers/STM32F10x_StdPeriph_Driver/src/stm32f10x_rcc.c **** {
 610:../Drivers/STM32F10x_StdPeriph_Driver/src/stm32f10x_rcc.c ****   uint32_t tmpreg = 0;
 611:../Drivers/STM32F10x_StdPeriph_Driver/src/stm32f10x_rcc.c ****   /* Check the parameters */
 612:../Drivers/STM32F10x_StdPeriph_Driver/src/stm32f10x_rcc.c ****   assert_param(IS_RCC_HCLK(RCC_SYSCLK));
 613:../Drivers/STM32F10x_StdPeriph_Driver/src/stm32f10x_rcc.c ****   tmpreg = RCC->CFGR;
 614:../Drivers/STM32F10x_StdPeriph_Driver/src/stm32f10x_rcc.c ****   /* Clear HPRE[3:0] bits */
 615:../Drivers/STM32F10x_StdPeriph_Driver/src/stm32f10x_rcc.c ****   tmpreg &= CFGR_HPRE_Reset_Mask;
 616:../Drivers/STM32F10x_StdPeriph_Driver/src/stm32f10x_rcc.c ****   /* Set HPRE[3:0] bits according to RCC_SYSCLK value */
 617:../Drivers/STM32F10x_StdPeriph_Driver/src/stm32f10x_rcc.c ****   tmpreg |= RCC_SYSCLK;
 618:../Drivers/STM32F10x_StdPeriph_Driver/src/stm32f10x_rcc.c ****   /* Store the new value */
 619:../Drivers/STM32F10x_StdPeriph_Driver/src/stm32f10x_rcc.c ****   RCC->CFGR = tmpreg;
 620:../Drivers/STM32F10x_StdPeriph_Driver/src/stm32f10x_rcc.c **** }
 621:../Drivers/STM32F10x_StdPeriph_Driver/src/stm32f10x_rcc.c **** 
 622:../Drivers/STM32F10x_StdPeriph_Driver/src/stm32f10x_rcc.c **** /**
ARM GAS  /tmp/ccF8VtoY.s 			page 15


 623:../Drivers/STM32F10x_StdPeriph_Driver/src/stm32f10x_rcc.c ****   * @brief  Configures the Low Speed APB clock (PCLK1).
 624:../Drivers/STM32F10x_StdPeriph_Driver/src/stm32f10x_rcc.c ****   * @param  RCC_HCLK: defines the APB1 clock divider. This clock is derived from 
 625:../Drivers/STM32F10x_StdPeriph_Driver/src/stm32f10x_rcc.c ****   *   the AHB clock (HCLK).
 626:../Drivers/STM32F10x_StdPeriph_Driver/src/stm32f10x_rcc.c ****   *   This parameter can be one of the following values:
 627:../Drivers/STM32F10x_StdPeriph_Driver/src/stm32f10x_rcc.c ****   *     @arg RCC_HCLK_Div1: APB1 clock = HCLK
 628:../Drivers/STM32F10x_StdPeriph_Driver/src/stm32f10x_rcc.c ****   *     @arg RCC_HCLK_Div2: APB1 clock = HCLK/2
 629:../Drivers/STM32F10x_StdPeriph_Driver/src/stm32f10x_rcc.c ****   *     @arg RCC_HCLK_Div4: APB1 clock = HCLK/4
 630:../Drivers/STM32F10x_StdPeriph_Driver/src/stm32f10x_rcc.c ****   *     @arg RCC_HCLK_Div8: APB1 clock = HCLK/8
 631:../Drivers/STM32F10x_StdPeriph_Driver/src/stm32f10x_rcc.c ****   *     @arg RCC_HCLK_Div16: APB1 clock = HCLK/16
 632:../Drivers/STM32F10x_StdPeriph_Driver/src/stm32f10x_rcc.c ****   * @retval None
 633:../Drivers/STM32F10x_StdPeriph_Driver/src/stm32f10x_rcc.c ****   */
 634:../Drivers/STM32F10x_StdPeriph_Driver/src/stm32f10x_rcc.c **** void RCC_PCLK1Config(uint32_t RCC_HCLK)
 635:../Drivers/STM32F10x_StdPeriph_Driver/src/stm32f10x_rcc.c **** {
 636:../Drivers/STM32F10x_StdPeriph_Driver/src/stm32f10x_rcc.c ****   uint32_t tmpreg = 0;
 637:../Drivers/STM32F10x_StdPeriph_Driver/src/stm32f10x_rcc.c ****   /* Check the parameters */
 638:../Drivers/STM32F10x_StdPeriph_Driver/src/stm32f10x_rcc.c ****   assert_param(IS_RCC_PCLK(RCC_HCLK));
 639:../Drivers/STM32F10x_StdPeriph_Driver/src/stm32f10x_rcc.c ****   tmpreg = RCC->CFGR;
 640:../Drivers/STM32F10x_StdPeriph_Driver/src/stm32f10x_rcc.c ****   /* Clear PPRE1[2:0] bits */
 641:../Drivers/STM32F10x_StdPeriph_Driver/src/stm32f10x_rcc.c ****   tmpreg &= CFGR_PPRE1_Reset_Mask;
 642:../Drivers/STM32F10x_StdPeriph_Driver/src/stm32f10x_rcc.c ****   /* Set PPRE1[2:0] bits according to RCC_HCLK value */
 643:../Drivers/STM32F10x_StdPeriph_Driver/src/stm32f10x_rcc.c ****   tmpreg |= RCC_HCLK;
 644:../Drivers/STM32F10x_StdPeriph_Driver/src/stm32f10x_rcc.c ****   /* Store the new value */
 645:../Drivers/STM32F10x_StdPeriph_Driver/src/stm32f10x_rcc.c ****   RCC->CFGR = tmpreg;
 646:../Drivers/STM32F10x_StdPeriph_Driver/src/stm32f10x_rcc.c **** }
 647:../Drivers/STM32F10x_StdPeriph_Driver/src/stm32f10x_rcc.c **** 
 648:../Drivers/STM32F10x_StdPeriph_Driver/src/stm32f10x_rcc.c **** /**
 649:../Drivers/STM32F10x_StdPeriph_Driver/src/stm32f10x_rcc.c ****   * @brief  Configures the High Speed APB clock (PCLK2).
 650:../Drivers/STM32F10x_StdPeriph_Driver/src/stm32f10x_rcc.c ****   * @param  RCC_HCLK: defines the APB2 clock divider. This clock is derived from 
 651:../Drivers/STM32F10x_StdPeriph_Driver/src/stm32f10x_rcc.c ****   *   the AHB clock (HCLK).
 652:../Drivers/STM32F10x_StdPeriph_Driver/src/stm32f10x_rcc.c ****   *   This parameter can be one of the following values:
 653:../Drivers/STM32F10x_StdPeriph_Driver/src/stm32f10x_rcc.c ****   *     @arg RCC_HCLK_Div1: APB2 clock = HCLK
 654:../Drivers/STM32F10x_StdPeriph_Driver/src/stm32f10x_rcc.c ****   *     @arg RCC_HCLK_Div2: APB2 clock = HCLK/2
 655:../Drivers/STM32F10x_StdPeriph_Driver/src/stm32f10x_rcc.c ****   *     @arg RCC_HCLK_Div4: APB2 clock = HCLK/4
 656:../Drivers/STM32F10x_StdPeriph_Driver/src/stm32f10x_rcc.c ****   *     @arg RCC_HCLK_Div8: APB2 clock = HCLK/8
 657:../Drivers/STM32F10x_StdPeriph_Driver/src/stm32f10x_rcc.c ****   *     @arg RCC_HCLK_Div16: APB2 clock = HCLK/16
 658:../Drivers/STM32F10x_StdPeriph_Driver/src/stm32f10x_rcc.c ****   * @retval None
 659:../Drivers/STM32F10x_StdPeriph_Driver/src/stm32f10x_rcc.c ****   */
 660:../Drivers/STM32F10x_StdPeriph_Driver/src/stm32f10x_rcc.c **** void RCC_PCLK2Config(uint32_t RCC_HCLK)
 661:../Drivers/STM32F10x_StdPeriph_Driver/src/stm32f10x_rcc.c **** {
 662:../Drivers/STM32F10x_StdPeriph_Driver/src/stm32f10x_rcc.c ****   uint32_t tmpreg = 0;
 663:../Drivers/STM32F10x_StdPeriph_Driver/src/stm32f10x_rcc.c ****   /* Check the parameters */
 664:../Drivers/STM32F10x_StdPeriph_Driver/src/stm32f10x_rcc.c ****   assert_param(IS_RCC_PCLK(RCC_HCLK));
 665:../Drivers/STM32F10x_StdPeriph_Driver/src/stm32f10x_rcc.c ****   tmpreg = RCC->CFGR;
 666:../Drivers/STM32F10x_StdPeriph_Driver/src/stm32f10x_rcc.c ****   /* Clear PPRE2[2:0] bits */
 667:../Drivers/STM32F10x_StdPeriph_Driver/src/stm32f10x_rcc.c ****   tmpreg &= CFGR_PPRE2_Reset_Mask;
 668:../Drivers/STM32F10x_StdPeriph_Driver/src/stm32f10x_rcc.c ****   /* Set PPRE2[2:0] bits according to RCC_HCLK value */
 669:../Drivers/STM32F10x_StdPeriph_Driver/src/stm32f10x_rcc.c ****   tmpreg |= RCC_HCLK << 3;
 670:../Drivers/STM32F10x_StdPeriph_Driver/src/stm32f10x_rcc.c ****   /* Store the new value */
 671:../Drivers/STM32F10x_StdPeriph_Driver/src/stm32f10x_rcc.c ****   RCC->CFGR = tmpreg;
 672:../Drivers/STM32F10x_StdPeriph_Driver/src/stm32f10x_rcc.c **** }
 673:../Drivers/STM32F10x_StdPeriph_Driver/src/stm32f10x_rcc.c **** 
 674:../Drivers/STM32F10x_StdPeriph_Driver/src/stm32f10x_rcc.c **** /**
 675:../Drivers/STM32F10x_StdPeriph_Driver/src/stm32f10x_rcc.c ****   * @brief  Enables or disables the specified RCC interrupts.
 676:../Drivers/STM32F10x_StdPeriph_Driver/src/stm32f10x_rcc.c ****   * @param  RCC_IT: specifies the RCC interrupt sources to be enabled or disabled.
 677:../Drivers/STM32F10x_StdPeriph_Driver/src/stm32f10x_rcc.c ****   * 
 678:../Drivers/STM32F10x_StdPeriph_Driver/src/stm32f10x_rcc.c ****   *   For @b STM32_Connectivity_line_devices, this parameter can be any combination
 679:../Drivers/STM32F10x_StdPeriph_Driver/src/stm32f10x_rcc.c ****   *   of the following values        
ARM GAS  /tmp/ccF8VtoY.s 			page 16


 680:../Drivers/STM32F10x_StdPeriph_Driver/src/stm32f10x_rcc.c ****   *     @arg RCC_IT_LSIRDY: LSI ready interrupt
 681:../Drivers/STM32F10x_StdPeriph_Driver/src/stm32f10x_rcc.c ****   *     @arg RCC_IT_LSERDY: LSE ready interrupt
 682:../Drivers/STM32F10x_StdPeriph_Driver/src/stm32f10x_rcc.c ****   *     @arg RCC_IT_HSIRDY: HSI ready interrupt
 683:../Drivers/STM32F10x_StdPeriph_Driver/src/stm32f10x_rcc.c ****   *     @arg RCC_IT_HSERDY: HSE ready interrupt
 684:../Drivers/STM32F10x_StdPeriph_Driver/src/stm32f10x_rcc.c ****   *     @arg RCC_IT_PLLRDY: PLL ready interrupt
 685:../Drivers/STM32F10x_StdPeriph_Driver/src/stm32f10x_rcc.c ****   *     @arg RCC_IT_PLL2RDY: PLL2 ready interrupt
 686:../Drivers/STM32F10x_StdPeriph_Driver/src/stm32f10x_rcc.c ****   *     @arg RCC_IT_PLL3RDY: PLL3 ready interrupt
 687:../Drivers/STM32F10x_StdPeriph_Driver/src/stm32f10x_rcc.c ****   * 
 688:../Drivers/STM32F10x_StdPeriph_Driver/src/stm32f10x_rcc.c ****   *   For @b other_STM32_devices, this parameter can be any combination of the 
 689:../Drivers/STM32F10x_StdPeriph_Driver/src/stm32f10x_rcc.c ****   *   following values        
 690:../Drivers/STM32F10x_StdPeriph_Driver/src/stm32f10x_rcc.c ****   *     @arg RCC_IT_LSIRDY: LSI ready interrupt
 691:../Drivers/STM32F10x_StdPeriph_Driver/src/stm32f10x_rcc.c ****   *     @arg RCC_IT_LSERDY: LSE ready interrupt
 692:../Drivers/STM32F10x_StdPeriph_Driver/src/stm32f10x_rcc.c ****   *     @arg RCC_IT_HSIRDY: HSI ready interrupt
 693:../Drivers/STM32F10x_StdPeriph_Driver/src/stm32f10x_rcc.c ****   *     @arg RCC_IT_HSERDY: HSE ready interrupt
 694:../Drivers/STM32F10x_StdPeriph_Driver/src/stm32f10x_rcc.c ****   *     @arg RCC_IT_PLLRDY: PLL ready interrupt
 695:../Drivers/STM32F10x_StdPeriph_Driver/src/stm32f10x_rcc.c ****   *       
 696:../Drivers/STM32F10x_StdPeriph_Driver/src/stm32f10x_rcc.c ****   * @param  NewState: new state of the specified RCC interrupts.
 697:../Drivers/STM32F10x_StdPeriph_Driver/src/stm32f10x_rcc.c ****   *   This parameter can be: ENABLE or DISABLE.
 698:../Drivers/STM32F10x_StdPeriph_Driver/src/stm32f10x_rcc.c ****   * @retval None
 699:../Drivers/STM32F10x_StdPeriph_Driver/src/stm32f10x_rcc.c ****   */
 700:../Drivers/STM32F10x_StdPeriph_Driver/src/stm32f10x_rcc.c **** void RCC_ITConfig(uint8_t RCC_IT, FunctionalState NewState)
 701:../Drivers/STM32F10x_StdPeriph_Driver/src/stm32f10x_rcc.c **** {
 702:../Drivers/STM32F10x_StdPeriph_Driver/src/stm32f10x_rcc.c ****   /* Check the parameters */
 703:../Drivers/STM32F10x_StdPeriph_Driver/src/stm32f10x_rcc.c ****   assert_param(IS_RCC_IT(RCC_IT));
 704:../Drivers/STM32F10x_StdPeriph_Driver/src/stm32f10x_rcc.c ****   assert_param(IS_FUNCTIONAL_STATE(NewState));
 705:../Drivers/STM32F10x_StdPeriph_Driver/src/stm32f10x_rcc.c ****   if (NewState != DISABLE)
 706:../Drivers/STM32F10x_StdPeriph_Driver/src/stm32f10x_rcc.c ****   {
 707:../Drivers/STM32F10x_StdPeriph_Driver/src/stm32f10x_rcc.c ****     /* Perform Byte access to RCC_CIR bits to enable the selected interrupts */
 708:../Drivers/STM32F10x_StdPeriph_Driver/src/stm32f10x_rcc.c ****     *(__IO uint8_t *) CIR_BYTE2_ADDRESS |= RCC_IT;
 709:../Drivers/STM32F10x_StdPeriph_Driver/src/stm32f10x_rcc.c ****   }
 710:../Drivers/STM32F10x_StdPeriph_Driver/src/stm32f10x_rcc.c ****   else
 711:../Drivers/STM32F10x_StdPeriph_Driver/src/stm32f10x_rcc.c ****   {
 712:../Drivers/STM32F10x_StdPeriph_Driver/src/stm32f10x_rcc.c ****     /* Perform Byte access to RCC_CIR bits to disable the selected interrupts */
 713:../Drivers/STM32F10x_StdPeriph_Driver/src/stm32f10x_rcc.c ****     *(__IO uint8_t *) CIR_BYTE2_ADDRESS &= (uint8_t)~RCC_IT;
 714:../Drivers/STM32F10x_StdPeriph_Driver/src/stm32f10x_rcc.c ****   }
 715:../Drivers/STM32F10x_StdPeriph_Driver/src/stm32f10x_rcc.c **** }
 716:../Drivers/STM32F10x_StdPeriph_Driver/src/stm32f10x_rcc.c **** 
 717:../Drivers/STM32F10x_StdPeriph_Driver/src/stm32f10x_rcc.c **** #ifndef STM32F10X_CL
 718:../Drivers/STM32F10x_StdPeriph_Driver/src/stm32f10x_rcc.c **** /**
 719:../Drivers/STM32F10x_StdPeriph_Driver/src/stm32f10x_rcc.c ****   * @brief  Configures the USB clock (USBCLK).
 720:../Drivers/STM32F10x_StdPeriph_Driver/src/stm32f10x_rcc.c ****   * @param  RCC_USBCLKSource: specifies the USB clock source. This clock is 
 721:../Drivers/STM32F10x_StdPeriph_Driver/src/stm32f10x_rcc.c ****   *   derived from the PLL output.
 722:../Drivers/STM32F10x_StdPeriph_Driver/src/stm32f10x_rcc.c ****   *   This parameter can be one of the following values:
 723:../Drivers/STM32F10x_StdPeriph_Driver/src/stm32f10x_rcc.c ****   *     @arg RCC_USBCLKSource_PLLCLK_1Div5: PLL clock divided by 1,5 selected as USB 
 724:../Drivers/STM32F10x_StdPeriph_Driver/src/stm32f10x_rcc.c ****   *                                     clock source
 725:../Drivers/STM32F10x_StdPeriph_Driver/src/stm32f10x_rcc.c ****   *     @arg RCC_USBCLKSource_PLLCLK_Div1: PLL clock selected as USB clock source
 726:../Drivers/STM32F10x_StdPeriph_Driver/src/stm32f10x_rcc.c ****   * @retval None
 727:../Drivers/STM32F10x_StdPeriph_Driver/src/stm32f10x_rcc.c ****   */
 728:../Drivers/STM32F10x_StdPeriph_Driver/src/stm32f10x_rcc.c **** void RCC_USBCLKConfig(uint32_t RCC_USBCLKSource)
 729:../Drivers/STM32F10x_StdPeriph_Driver/src/stm32f10x_rcc.c **** {
 730:../Drivers/STM32F10x_StdPeriph_Driver/src/stm32f10x_rcc.c ****   /* Check the parameters */
 731:../Drivers/STM32F10x_StdPeriph_Driver/src/stm32f10x_rcc.c ****   assert_param(IS_RCC_USBCLK_SOURCE(RCC_USBCLKSource));
 732:../Drivers/STM32F10x_StdPeriph_Driver/src/stm32f10x_rcc.c **** 
 733:../Drivers/STM32F10x_StdPeriph_Driver/src/stm32f10x_rcc.c ****   *(__IO uint32_t *) CFGR_USBPRE_BB = RCC_USBCLKSource;
 734:../Drivers/STM32F10x_StdPeriph_Driver/src/stm32f10x_rcc.c **** }
 735:../Drivers/STM32F10x_StdPeriph_Driver/src/stm32f10x_rcc.c **** #else
 736:../Drivers/STM32F10x_StdPeriph_Driver/src/stm32f10x_rcc.c **** /**
ARM GAS  /tmp/ccF8VtoY.s 			page 17


 737:../Drivers/STM32F10x_StdPeriph_Driver/src/stm32f10x_rcc.c ****   * @brief  Configures the USB OTG FS clock (OTGFSCLK).
 738:../Drivers/STM32F10x_StdPeriph_Driver/src/stm32f10x_rcc.c ****   *   This function applies only to STM32 Connectivity line devices.
 739:../Drivers/STM32F10x_StdPeriph_Driver/src/stm32f10x_rcc.c ****   * @param  RCC_OTGFSCLKSource: specifies the USB OTG FS clock source.
 740:../Drivers/STM32F10x_StdPeriph_Driver/src/stm32f10x_rcc.c ****   *   This clock is derived from the PLL output.
 741:../Drivers/STM32F10x_StdPeriph_Driver/src/stm32f10x_rcc.c ****   *   This parameter can be one of the following values:
 742:../Drivers/STM32F10x_StdPeriph_Driver/src/stm32f10x_rcc.c ****   *     @arg  RCC_OTGFSCLKSource_PLLVCO_Div3: PLL VCO clock divided by 2 selected as USB OTG FS clo
 743:../Drivers/STM32F10x_StdPeriph_Driver/src/stm32f10x_rcc.c ****   *     @arg  RCC_OTGFSCLKSource_PLLVCO_Div2: PLL VCO clock divided by 2 selected as USB OTG FS clo
 744:../Drivers/STM32F10x_StdPeriph_Driver/src/stm32f10x_rcc.c ****   * @retval None
 745:../Drivers/STM32F10x_StdPeriph_Driver/src/stm32f10x_rcc.c ****   */
 746:../Drivers/STM32F10x_StdPeriph_Driver/src/stm32f10x_rcc.c **** void RCC_OTGFSCLKConfig(uint32_t RCC_OTGFSCLKSource)
 747:../Drivers/STM32F10x_StdPeriph_Driver/src/stm32f10x_rcc.c **** {
 748:../Drivers/STM32F10x_StdPeriph_Driver/src/stm32f10x_rcc.c ****   /* Check the parameters */
 749:../Drivers/STM32F10x_StdPeriph_Driver/src/stm32f10x_rcc.c ****   assert_param(IS_RCC_OTGFSCLK_SOURCE(RCC_OTGFSCLKSource));
 750:../Drivers/STM32F10x_StdPeriph_Driver/src/stm32f10x_rcc.c **** 
 751:../Drivers/STM32F10x_StdPeriph_Driver/src/stm32f10x_rcc.c ****   *(__IO uint32_t *) CFGR_OTGFSPRE_BB = RCC_OTGFSCLKSource;
 752:../Drivers/STM32F10x_StdPeriph_Driver/src/stm32f10x_rcc.c **** }
 753:../Drivers/STM32F10x_StdPeriph_Driver/src/stm32f10x_rcc.c **** #endif /* STM32F10X_CL */ 
 754:../Drivers/STM32F10x_StdPeriph_Driver/src/stm32f10x_rcc.c **** 
 755:../Drivers/STM32F10x_StdPeriph_Driver/src/stm32f10x_rcc.c **** /**
 756:../Drivers/STM32F10x_StdPeriph_Driver/src/stm32f10x_rcc.c ****   * @brief  Configures the ADC clock (ADCCLK).
 757:../Drivers/STM32F10x_StdPeriph_Driver/src/stm32f10x_rcc.c ****   * @param  RCC_PCLK2: defines the ADC clock divider. This clock is derived from 
 758:../Drivers/STM32F10x_StdPeriph_Driver/src/stm32f10x_rcc.c ****   *   the APB2 clock (PCLK2).
 759:../Drivers/STM32F10x_StdPeriph_Driver/src/stm32f10x_rcc.c ****   *   This parameter can be one of the following values:
 760:../Drivers/STM32F10x_StdPeriph_Driver/src/stm32f10x_rcc.c ****   *     @arg RCC_PCLK2_Div2: ADC clock = PCLK2/2
 761:../Drivers/STM32F10x_StdPeriph_Driver/src/stm32f10x_rcc.c ****   *     @arg RCC_PCLK2_Div4: ADC clock = PCLK2/4
 762:../Drivers/STM32F10x_StdPeriph_Driver/src/stm32f10x_rcc.c ****   *     @arg RCC_PCLK2_Div6: ADC clock = PCLK2/6
 763:../Drivers/STM32F10x_StdPeriph_Driver/src/stm32f10x_rcc.c ****   *     @arg RCC_PCLK2_Div8: ADC clock = PCLK2/8
 764:../Drivers/STM32F10x_StdPeriph_Driver/src/stm32f10x_rcc.c ****   * @retval None
 765:../Drivers/STM32F10x_StdPeriph_Driver/src/stm32f10x_rcc.c ****   */
 766:../Drivers/STM32F10x_StdPeriph_Driver/src/stm32f10x_rcc.c **** void RCC_ADCCLKConfig(uint32_t RCC_PCLK2)
 767:../Drivers/STM32F10x_StdPeriph_Driver/src/stm32f10x_rcc.c **** {
 768:../Drivers/STM32F10x_StdPeriph_Driver/src/stm32f10x_rcc.c ****   uint32_t tmpreg = 0;
 769:../Drivers/STM32F10x_StdPeriph_Driver/src/stm32f10x_rcc.c ****   /* Check the parameters */
 770:../Drivers/STM32F10x_StdPeriph_Driver/src/stm32f10x_rcc.c ****   assert_param(IS_RCC_ADCCLK(RCC_PCLK2));
 771:../Drivers/STM32F10x_StdPeriph_Driver/src/stm32f10x_rcc.c ****   tmpreg = RCC->CFGR;
 772:../Drivers/STM32F10x_StdPeriph_Driver/src/stm32f10x_rcc.c ****   /* Clear ADCPRE[1:0] bits */
 773:../Drivers/STM32F10x_StdPeriph_Driver/src/stm32f10x_rcc.c ****   tmpreg &= CFGR_ADCPRE_Reset_Mask;
 774:../Drivers/STM32F10x_StdPeriph_Driver/src/stm32f10x_rcc.c ****   /* Set ADCPRE[1:0] bits according to RCC_PCLK2 value */
 775:../Drivers/STM32F10x_StdPeriph_Driver/src/stm32f10x_rcc.c ****   tmpreg |= RCC_PCLK2;
 776:../Drivers/STM32F10x_StdPeriph_Driver/src/stm32f10x_rcc.c ****   /* Store the new value */
 777:../Drivers/STM32F10x_StdPeriph_Driver/src/stm32f10x_rcc.c ****   RCC->CFGR = tmpreg;
 778:../Drivers/STM32F10x_StdPeriph_Driver/src/stm32f10x_rcc.c **** }
 779:../Drivers/STM32F10x_StdPeriph_Driver/src/stm32f10x_rcc.c **** 
 780:../Drivers/STM32F10x_StdPeriph_Driver/src/stm32f10x_rcc.c **** #ifdef STM32F10X_CL
 781:../Drivers/STM32F10x_StdPeriph_Driver/src/stm32f10x_rcc.c **** /**
 782:../Drivers/STM32F10x_StdPeriph_Driver/src/stm32f10x_rcc.c ****   * @brief  Configures the I2S2 clock source(I2S2CLK).
 783:../Drivers/STM32F10x_StdPeriph_Driver/src/stm32f10x_rcc.c ****   * @note
 784:../Drivers/STM32F10x_StdPeriph_Driver/src/stm32f10x_rcc.c ****   *   - This function must be called before enabling I2S2 APB clock.
 785:../Drivers/STM32F10x_StdPeriph_Driver/src/stm32f10x_rcc.c ****   *   - This function applies only to STM32 Connectivity line devices.
 786:../Drivers/STM32F10x_StdPeriph_Driver/src/stm32f10x_rcc.c ****   * @param  RCC_I2S2CLKSource: specifies the I2S2 clock source.
 787:../Drivers/STM32F10x_StdPeriph_Driver/src/stm32f10x_rcc.c ****   *   This parameter can be one of the following values:
 788:../Drivers/STM32F10x_StdPeriph_Driver/src/stm32f10x_rcc.c ****   *     @arg RCC_I2S2CLKSource_SYSCLK: system clock selected as I2S2 clock entry
 789:../Drivers/STM32F10x_StdPeriph_Driver/src/stm32f10x_rcc.c ****   *     @arg RCC_I2S2CLKSource_PLL3_VCO: PLL3 VCO clock selected as I2S2 clock entry
 790:../Drivers/STM32F10x_StdPeriph_Driver/src/stm32f10x_rcc.c ****   * @retval None
 791:../Drivers/STM32F10x_StdPeriph_Driver/src/stm32f10x_rcc.c ****   */
 792:../Drivers/STM32F10x_StdPeriph_Driver/src/stm32f10x_rcc.c **** void RCC_I2S2CLKConfig(uint32_t RCC_I2S2CLKSource)
 793:../Drivers/STM32F10x_StdPeriph_Driver/src/stm32f10x_rcc.c **** {
ARM GAS  /tmp/ccF8VtoY.s 			page 18


 794:../Drivers/STM32F10x_StdPeriph_Driver/src/stm32f10x_rcc.c ****   /* Check the parameters */
 795:../Drivers/STM32F10x_StdPeriph_Driver/src/stm32f10x_rcc.c ****   assert_param(IS_RCC_I2S2CLK_SOURCE(RCC_I2S2CLKSource));
 796:../Drivers/STM32F10x_StdPeriph_Driver/src/stm32f10x_rcc.c **** 
 797:../Drivers/STM32F10x_StdPeriph_Driver/src/stm32f10x_rcc.c ****   *(__IO uint32_t *) CFGR2_I2S2SRC_BB = RCC_I2S2CLKSource;
 798:../Drivers/STM32F10x_StdPeriph_Driver/src/stm32f10x_rcc.c **** }
 799:../Drivers/STM32F10x_StdPeriph_Driver/src/stm32f10x_rcc.c **** 
 800:../Drivers/STM32F10x_StdPeriph_Driver/src/stm32f10x_rcc.c **** /**
 801:../Drivers/STM32F10x_StdPeriph_Driver/src/stm32f10x_rcc.c ****   * @brief  Configures the I2S3 clock source(I2S2CLK).
 802:../Drivers/STM32F10x_StdPeriph_Driver/src/stm32f10x_rcc.c ****   * @note
 803:../Drivers/STM32F10x_StdPeriph_Driver/src/stm32f10x_rcc.c ****   *   - This function must be called before enabling I2S3 APB clock.
 804:../Drivers/STM32F10x_StdPeriph_Driver/src/stm32f10x_rcc.c ****   *   - This function applies only to STM32 Connectivity line devices.
 805:../Drivers/STM32F10x_StdPeriph_Driver/src/stm32f10x_rcc.c ****   * @param  RCC_I2S3CLKSource: specifies the I2S3 clock source.
 806:../Drivers/STM32F10x_StdPeriph_Driver/src/stm32f10x_rcc.c ****   *   This parameter can be one of the following values:
 807:../Drivers/STM32F10x_StdPeriph_Driver/src/stm32f10x_rcc.c ****   *     @arg RCC_I2S3CLKSource_SYSCLK: system clock selected as I2S3 clock entry
 808:../Drivers/STM32F10x_StdPeriph_Driver/src/stm32f10x_rcc.c ****   *     @arg RCC_I2S3CLKSource_PLL3_VCO: PLL3 VCO clock selected as I2S3 clock entry
 809:../Drivers/STM32F10x_StdPeriph_Driver/src/stm32f10x_rcc.c ****   * @retval None
 810:../Drivers/STM32F10x_StdPeriph_Driver/src/stm32f10x_rcc.c ****   */
 811:../Drivers/STM32F10x_StdPeriph_Driver/src/stm32f10x_rcc.c **** void RCC_I2S3CLKConfig(uint32_t RCC_I2S3CLKSource)
 812:../Drivers/STM32F10x_StdPeriph_Driver/src/stm32f10x_rcc.c **** {
 813:../Drivers/STM32F10x_StdPeriph_Driver/src/stm32f10x_rcc.c ****   /* Check the parameters */
 814:../Drivers/STM32F10x_StdPeriph_Driver/src/stm32f10x_rcc.c ****   assert_param(IS_RCC_I2S3CLK_SOURCE(RCC_I2S3CLKSource));
 815:../Drivers/STM32F10x_StdPeriph_Driver/src/stm32f10x_rcc.c **** 
 816:../Drivers/STM32F10x_StdPeriph_Driver/src/stm32f10x_rcc.c ****   *(__IO uint32_t *) CFGR2_I2S3SRC_BB = RCC_I2S3CLKSource;
 817:../Drivers/STM32F10x_StdPeriph_Driver/src/stm32f10x_rcc.c **** }
 818:../Drivers/STM32F10x_StdPeriph_Driver/src/stm32f10x_rcc.c **** #endif /* STM32F10X_CL */
 819:../Drivers/STM32F10x_StdPeriph_Driver/src/stm32f10x_rcc.c **** 
 820:../Drivers/STM32F10x_StdPeriph_Driver/src/stm32f10x_rcc.c **** /**
 821:../Drivers/STM32F10x_StdPeriph_Driver/src/stm32f10x_rcc.c ****   * @brief  Configures the External Low Speed oscillator (LSE).
 822:../Drivers/STM32F10x_StdPeriph_Driver/src/stm32f10x_rcc.c ****   * @param  RCC_LSE: specifies the new state of the LSE.
 823:../Drivers/STM32F10x_StdPeriph_Driver/src/stm32f10x_rcc.c ****   *   This parameter can be one of the following values:
 824:../Drivers/STM32F10x_StdPeriph_Driver/src/stm32f10x_rcc.c ****   *     @arg RCC_LSE_OFF: LSE oscillator OFF
 825:../Drivers/STM32F10x_StdPeriph_Driver/src/stm32f10x_rcc.c ****   *     @arg RCC_LSE_ON: LSE oscillator ON
 826:../Drivers/STM32F10x_StdPeriph_Driver/src/stm32f10x_rcc.c ****   *     @arg RCC_LSE_Bypass: LSE oscillator bypassed with external clock
 827:../Drivers/STM32F10x_StdPeriph_Driver/src/stm32f10x_rcc.c ****   * @retval None
 828:../Drivers/STM32F10x_StdPeriph_Driver/src/stm32f10x_rcc.c ****   */
 829:../Drivers/STM32F10x_StdPeriph_Driver/src/stm32f10x_rcc.c **** void RCC_LSEConfig(uint8_t RCC_LSE)
 830:../Drivers/STM32F10x_StdPeriph_Driver/src/stm32f10x_rcc.c **** {
 831:../Drivers/STM32F10x_StdPeriph_Driver/src/stm32f10x_rcc.c ****   /* Check the parameters */
 832:../Drivers/STM32F10x_StdPeriph_Driver/src/stm32f10x_rcc.c ****   assert_param(IS_RCC_LSE(RCC_LSE));
 833:../Drivers/STM32F10x_StdPeriph_Driver/src/stm32f10x_rcc.c ****   /* Reset LSEON and LSEBYP bits before configuring the LSE ------------------*/
 834:../Drivers/STM32F10x_StdPeriph_Driver/src/stm32f10x_rcc.c ****   /* Reset LSEON bit */
 835:../Drivers/STM32F10x_StdPeriph_Driver/src/stm32f10x_rcc.c ****   *(__IO uint8_t *) BDCR_ADDRESS = RCC_LSE_OFF;
 836:../Drivers/STM32F10x_StdPeriph_Driver/src/stm32f10x_rcc.c ****   /* Reset LSEBYP bit */
 837:../Drivers/STM32F10x_StdPeriph_Driver/src/stm32f10x_rcc.c ****   *(__IO uint8_t *) BDCR_ADDRESS = RCC_LSE_OFF;
 838:../Drivers/STM32F10x_StdPeriph_Driver/src/stm32f10x_rcc.c ****   /* Configure LSE (RCC_LSE_OFF is already covered by the code section above) */
 839:../Drivers/STM32F10x_StdPeriph_Driver/src/stm32f10x_rcc.c ****   switch(RCC_LSE)
 840:../Drivers/STM32F10x_StdPeriph_Driver/src/stm32f10x_rcc.c ****   {
 841:../Drivers/STM32F10x_StdPeriph_Driver/src/stm32f10x_rcc.c ****     case RCC_LSE_ON:
 842:../Drivers/STM32F10x_StdPeriph_Driver/src/stm32f10x_rcc.c ****       /* Set LSEON bit */
 843:../Drivers/STM32F10x_StdPeriph_Driver/src/stm32f10x_rcc.c ****       *(__IO uint8_t *) BDCR_ADDRESS = RCC_LSE_ON;
 844:../Drivers/STM32F10x_StdPeriph_Driver/src/stm32f10x_rcc.c ****       break;
 845:../Drivers/STM32F10x_StdPeriph_Driver/src/stm32f10x_rcc.c ****       
 846:../Drivers/STM32F10x_StdPeriph_Driver/src/stm32f10x_rcc.c ****     case RCC_LSE_Bypass:
 847:../Drivers/STM32F10x_StdPeriph_Driver/src/stm32f10x_rcc.c ****       /* Set LSEBYP and LSEON bits */
 848:../Drivers/STM32F10x_StdPeriph_Driver/src/stm32f10x_rcc.c ****       *(__IO uint8_t *) BDCR_ADDRESS = RCC_LSE_Bypass | RCC_LSE_ON;
 849:../Drivers/STM32F10x_StdPeriph_Driver/src/stm32f10x_rcc.c ****       break;            
 850:../Drivers/STM32F10x_StdPeriph_Driver/src/stm32f10x_rcc.c ****       
ARM GAS  /tmp/ccF8VtoY.s 			page 19


 851:../Drivers/STM32F10x_StdPeriph_Driver/src/stm32f10x_rcc.c ****     default:
 852:../Drivers/STM32F10x_StdPeriph_Driver/src/stm32f10x_rcc.c ****       break;      
 853:../Drivers/STM32F10x_StdPeriph_Driver/src/stm32f10x_rcc.c ****   }
 854:../Drivers/STM32F10x_StdPeriph_Driver/src/stm32f10x_rcc.c **** }
 855:../Drivers/STM32F10x_StdPeriph_Driver/src/stm32f10x_rcc.c **** 
 856:../Drivers/STM32F10x_StdPeriph_Driver/src/stm32f10x_rcc.c **** /**
 857:../Drivers/STM32F10x_StdPeriph_Driver/src/stm32f10x_rcc.c ****   * @brief  Enables or disables the Internal Low Speed oscillator (LSI).
 858:../Drivers/STM32F10x_StdPeriph_Driver/src/stm32f10x_rcc.c ****   * @note   LSI can not be disabled if the IWDG is running.
 859:../Drivers/STM32F10x_StdPeriph_Driver/src/stm32f10x_rcc.c ****   * @param  NewState: new state of the LSI. This parameter can be: ENABLE or DISABLE.
 860:../Drivers/STM32F10x_StdPeriph_Driver/src/stm32f10x_rcc.c ****   * @retval None
 861:../Drivers/STM32F10x_StdPeriph_Driver/src/stm32f10x_rcc.c ****   */
 862:../Drivers/STM32F10x_StdPeriph_Driver/src/stm32f10x_rcc.c **** void RCC_LSICmd(FunctionalState NewState)
 863:../Drivers/STM32F10x_StdPeriph_Driver/src/stm32f10x_rcc.c **** {
 864:../Drivers/STM32F10x_StdPeriph_Driver/src/stm32f10x_rcc.c ****   /* Check the parameters */
 865:../Drivers/STM32F10x_StdPeriph_Driver/src/stm32f10x_rcc.c ****   assert_param(IS_FUNCTIONAL_STATE(NewState));
 866:../Drivers/STM32F10x_StdPeriph_Driver/src/stm32f10x_rcc.c ****   *(__IO uint32_t *) CSR_LSION_BB = (uint32_t)NewState;
 867:../Drivers/STM32F10x_StdPeriph_Driver/src/stm32f10x_rcc.c **** }
 868:../Drivers/STM32F10x_StdPeriph_Driver/src/stm32f10x_rcc.c **** 
 869:../Drivers/STM32F10x_StdPeriph_Driver/src/stm32f10x_rcc.c **** /**
 870:../Drivers/STM32F10x_StdPeriph_Driver/src/stm32f10x_rcc.c ****   * @brief  Configures the RTC clock (RTCCLK).
 871:../Drivers/STM32F10x_StdPeriph_Driver/src/stm32f10x_rcc.c ****   * @note   Once the RTC clock is selected it can't be changed unless the Backup domain is reset.
 872:../Drivers/STM32F10x_StdPeriph_Driver/src/stm32f10x_rcc.c ****   * @param  RCC_RTCCLKSource: specifies the RTC clock source.
 873:../Drivers/STM32F10x_StdPeriph_Driver/src/stm32f10x_rcc.c ****   *   This parameter can be one of the following values:
 874:../Drivers/STM32F10x_StdPeriph_Driver/src/stm32f10x_rcc.c ****   *     @arg RCC_RTCCLKSource_LSE: LSE selected as RTC clock
 875:../Drivers/STM32F10x_StdPeriph_Driver/src/stm32f10x_rcc.c ****   *     @arg RCC_RTCCLKSource_LSI: LSI selected as RTC clock
 876:../Drivers/STM32F10x_StdPeriph_Driver/src/stm32f10x_rcc.c ****   *     @arg RCC_RTCCLKSource_HSE_Div128: HSE clock divided by 128 selected as RTC clock
 877:../Drivers/STM32F10x_StdPeriph_Driver/src/stm32f10x_rcc.c ****   * @retval None
 878:../Drivers/STM32F10x_StdPeriph_Driver/src/stm32f10x_rcc.c ****   */
 879:../Drivers/STM32F10x_StdPeriph_Driver/src/stm32f10x_rcc.c **** void RCC_RTCCLKConfig(uint32_t RCC_RTCCLKSource)
 880:../Drivers/STM32F10x_StdPeriph_Driver/src/stm32f10x_rcc.c **** {
 881:../Drivers/STM32F10x_StdPeriph_Driver/src/stm32f10x_rcc.c ****   /* Check the parameters */
 882:../Drivers/STM32F10x_StdPeriph_Driver/src/stm32f10x_rcc.c ****   assert_param(IS_RCC_RTCCLK_SOURCE(RCC_RTCCLKSource));
 883:../Drivers/STM32F10x_StdPeriph_Driver/src/stm32f10x_rcc.c ****   /* Select the RTC clock source */
 884:../Drivers/STM32F10x_StdPeriph_Driver/src/stm32f10x_rcc.c ****   RCC->BDCR |= RCC_RTCCLKSource;
 885:../Drivers/STM32F10x_StdPeriph_Driver/src/stm32f10x_rcc.c **** }
 886:../Drivers/STM32F10x_StdPeriph_Driver/src/stm32f10x_rcc.c **** 
 887:../Drivers/STM32F10x_StdPeriph_Driver/src/stm32f10x_rcc.c **** /**
 888:../Drivers/STM32F10x_StdPeriph_Driver/src/stm32f10x_rcc.c ****   * @brief  Enables or disables the RTC clock.
 889:../Drivers/STM32F10x_StdPeriph_Driver/src/stm32f10x_rcc.c ****   * @note   This function must be used only after the RTC clock was selected using the RCC_RTCCLKCo
 890:../Drivers/STM32F10x_StdPeriph_Driver/src/stm32f10x_rcc.c ****   * @param  NewState: new state of the RTC clock. This parameter can be: ENABLE or DISABLE.
 891:../Drivers/STM32F10x_StdPeriph_Driver/src/stm32f10x_rcc.c ****   * @retval None
 892:../Drivers/STM32F10x_StdPeriph_Driver/src/stm32f10x_rcc.c ****   */
 893:../Drivers/STM32F10x_StdPeriph_Driver/src/stm32f10x_rcc.c **** void RCC_RTCCLKCmd(FunctionalState NewState)
 894:../Drivers/STM32F10x_StdPeriph_Driver/src/stm32f10x_rcc.c **** {
 895:../Drivers/STM32F10x_StdPeriph_Driver/src/stm32f10x_rcc.c ****   /* Check the parameters */
 896:../Drivers/STM32F10x_StdPeriph_Driver/src/stm32f10x_rcc.c ****   assert_param(IS_FUNCTIONAL_STATE(NewState));
 897:../Drivers/STM32F10x_StdPeriph_Driver/src/stm32f10x_rcc.c ****   *(__IO uint32_t *) BDCR_RTCEN_BB = (uint32_t)NewState;
 898:../Drivers/STM32F10x_StdPeriph_Driver/src/stm32f10x_rcc.c **** }
 899:../Drivers/STM32F10x_StdPeriph_Driver/src/stm32f10x_rcc.c **** 
 900:../Drivers/STM32F10x_StdPeriph_Driver/src/stm32f10x_rcc.c **** /**
 901:../Drivers/STM32F10x_StdPeriph_Driver/src/stm32f10x_rcc.c ****   * @brief  Returns the frequencies of different on chip clocks.
 902:../Drivers/STM32F10x_StdPeriph_Driver/src/stm32f10x_rcc.c ****   * @param  RCC_Clocks: pointer to a RCC_ClocksTypeDef structure which will hold
 903:../Drivers/STM32F10x_StdPeriph_Driver/src/stm32f10x_rcc.c ****   *         the clocks frequencies.
 904:../Drivers/STM32F10x_StdPeriph_Driver/src/stm32f10x_rcc.c ****   * @note   The result of this function could be not correct when using 
 905:../Drivers/STM32F10x_StdPeriph_Driver/src/stm32f10x_rcc.c ****   *         fractional value for HSE crystal.  
 906:../Drivers/STM32F10x_StdPeriph_Driver/src/stm32f10x_rcc.c ****   * @retval None
 907:../Drivers/STM32F10x_StdPeriph_Driver/src/stm32f10x_rcc.c ****   */
ARM GAS  /tmp/ccF8VtoY.s 			page 20


 908:../Drivers/STM32F10x_StdPeriph_Driver/src/stm32f10x_rcc.c **** void RCC_GetClocksFreq(RCC_ClocksTypeDef* RCC_Clocks)
 909:../Drivers/STM32F10x_StdPeriph_Driver/src/stm32f10x_rcc.c **** {
 910:../Drivers/STM32F10x_StdPeriph_Driver/src/stm32f10x_rcc.c ****   uint32_t tmp = 0, pllmull = 0, pllsource = 0, presc = 0;
 911:../Drivers/STM32F10x_StdPeriph_Driver/src/stm32f10x_rcc.c **** 
 912:../Drivers/STM32F10x_StdPeriph_Driver/src/stm32f10x_rcc.c **** #ifdef  STM32F10X_CL
 913:../Drivers/STM32F10x_StdPeriph_Driver/src/stm32f10x_rcc.c ****   uint32_t prediv1source = 0, prediv1factor = 0, prediv2factor = 0, pll2mull = 0;
 914:../Drivers/STM32F10x_StdPeriph_Driver/src/stm32f10x_rcc.c **** #endif /* STM32F10X_CL */
 915:../Drivers/STM32F10x_StdPeriph_Driver/src/stm32f10x_rcc.c **** 
 916:../Drivers/STM32F10x_StdPeriph_Driver/src/stm32f10x_rcc.c **** #if defined (STM32F10X_LD_VL) || defined (STM32F10X_MD_VL) || defined (STM32F10X_HD_VL)
 917:../Drivers/STM32F10x_StdPeriph_Driver/src/stm32f10x_rcc.c ****   uint32_t prediv1factor = 0;
 918:../Drivers/STM32F10x_StdPeriph_Driver/src/stm32f10x_rcc.c **** #endif
 919:../Drivers/STM32F10x_StdPeriph_Driver/src/stm32f10x_rcc.c ****     
 920:../Drivers/STM32F10x_StdPeriph_Driver/src/stm32f10x_rcc.c ****   /* Get SYSCLK source -------------------------------------------------------*/
 921:../Drivers/STM32F10x_StdPeriph_Driver/src/stm32f10x_rcc.c ****   tmp = RCC->CFGR & CFGR_SWS_Mask;
 922:../Drivers/STM32F10x_StdPeriph_Driver/src/stm32f10x_rcc.c ****   
 923:../Drivers/STM32F10x_StdPeriph_Driver/src/stm32f10x_rcc.c ****   switch (tmp)
 924:../Drivers/STM32F10x_StdPeriph_Driver/src/stm32f10x_rcc.c ****   {
 925:../Drivers/STM32F10x_StdPeriph_Driver/src/stm32f10x_rcc.c ****     case 0x00:  /* HSI used as system clock */
 926:../Drivers/STM32F10x_StdPeriph_Driver/src/stm32f10x_rcc.c ****       RCC_Clocks->SYSCLK_Frequency = HSI_VALUE;
 927:../Drivers/STM32F10x_StdPeriph_Driver/src/stm32f10x_rcc.c ****       break;
 928:../Drivers/STM32F10x_StdPeriph_Driver/src/stm32f10x_rcc.c ****     case 0x04:  /* HSE used as system clock */
 929:../Drivers/STM32F10x_StdPeriph_Driver/src/stm32f10x_rcc.c ****       RCC_Clocks->SYSCLK_Frequency = HSE_VALUE;
 930:../Drivers/STM32F10x_StdPeriph_Driver/src/stm32f10x_rcc.c ****       break;
 931:../Drivers/STM32F10x_StdPeriph_Driver/src/stm32f10x_rcc.c ****     case 0x08:  /* PLL used as system clock */
 932:../Drivers/STM32F10x_StdPeriph_Driver/src/stm32f10x_rcc.c **** 
 933:../Drivers/STM32F10x_StdPeriph_Driver/src/stm32f10x_rcc.c ****       /* Get PLL clock source and multiplication factor ----------------------*/
 934:../Drivers/STM32F10x_StdPeriph_Driver/src/stm32f10x_rcc.c ****       pllmull = RCC->CFGR & CFGR_PLLMull_Mask;
 935:../Drivers/STM32F10x_StdPeriph_Driver/src/stm32f10x_rcc.c ****       pllsource = RCC->CFGR & CFGR_PLLSRC_Mask;
 936:../Drivers/STM32F10x_StdPeriph_Driver/src/stm32f10x_rcc.c ****       
 937:../Drivers/STM32F10x_StdPeriph_Driver/src/stm32f10x_rcc.c **** #ifndef STM32F10X_CL      
 938:../Drivers/STM32F10x_StdPeriph_Driver/src/stm32f10x_rcc.c ****       pllmull = ( pllmull >> 18) + 2;
 939:../Drivers/STM32F10x_StdPeriph_Driver/src/stm32f10x_rcc.c ****       
 940:../Drivers/STM32F10x_StdPeriph_Driver/src/stm32f10x_rcc.c ****       if (pllsource == 0x00)
 941:../Drivers/STM32F10x_StdPeriph_Driver/src/stm32f10x_rcc.c ****       {/* HSI oscillator clock divided by 2 selected as PLL clock entry */
 942:../Drivers/STM32F10x_StdPeriph_Driver/src/stm32f10x_rcc.c ****         RCC_Clocks->SYSCLK_Frequency = (HSI_VALUE >> 1) * pllmull;
 943:../Drivers/STM32F10x_StdPeriph_Driver/src/stm32f10x_rcc.c ****       }
 944:../Drivers/STM32F10x_StdPeriph_Driver/src/stm32f10x_rcc.c ****       else
 945:../Drivers/STM32F10x_StdPeriph_Driver/src/stm32f10x_rcc.c ****       {
 946:../Drivers/STM32F10x_StdPeriph_Driver/src/stm32f10x_rcc.c ****  #if defined (STM32F10X_LD_VL) || defined (STM32F10X_MD_VL) || defined (STM32F10X_HD_VL)
 947:../Drivers/STM32F10x_StdPeriph_Driver/src/stm32f10x_rcc.c ****        prediv1factor = (RCC->CFGR2 & CFGR2_PREDIV1) + 1;
 948:../Drivers/STM32F10x_StdPeriph_Driver/src/stm32f10x_rcc.c ****        /* HSE oscillator clock selected as PREDIV1 clock entry */
 949:../Drivers/STM32F10x_StdPeriph_Driver/src/stm32f10x_rcc.c ****        RCC_Clocks->SYSCLK_Frequency = (HSE_VALUE / prediv1factor) * pllmull; 
 950:../Drivers/STM32F10x_StdPeriph_Driver/src/stm32f10x_rcc.c ****  #else
 951:../Drivers/STM32F10x_StdPeriph_Driver/src/stm32f10x_rcc.c ****         /* HSE selected as PLL clock entry */
 952:../Drivers/STM32F10x_StdPeriph_Driver/src/stm32f10x_rcc.c ****         if ((RCC->CFGR & CFGR_PLLXTPRE_Mask) != (uint32_t)RESET)
 953:../Drivers/STM32F10x_StdPeriph_Driver/src/stm32f10x_rcc.c ****         {/* HSE oscillator clock divided by 2 */
 954:../Drivers/STM32F10x_StdPeriph_Driver/src/stm32f10x_rcc.c ****           RCC_Clocks->SYSCLK_Frequency = (HSE_VALUE >> 1) * pllmull;
 955:../Drivers/STM32F10x_StdPeriph_Driver/src/stm32f10x_rcc.c ****         }
 956:../Drivers/STM32F10x_StdPeriph_Driver/src/stm32f10x_rcc.c ****         else
 957:../Drivers/STM32F10x_StdPeriph_Driver/src/stm32f10x_rcc.c ****         {
 958:../Drivers/STM32F10x_StdPeriph_Driver/src/stm32f10x_rcc.c ****           RCC_Clocks->SYSCLK_Frequency = HSE_VALUE * pllmull;
 959:../Drivers/STM32F10x_StdPeriph_Driver/src/stm32f10x_rcc.c ****         }
 960:../Drivers/STM32F10x_StdPeriph_Driver/src/stm32f10x_rcc.c ****  #endif
 961:../Drivers/STM32F10x_StdPeriph_Driver/src/stm32f10x_rcc.c ****       }
 962:../Drivers/STM32F10x_StdPeriph_Driver/src/stm32f10x_rcc.c **** #else
 963:../Drivers/STM32F10x_StdPeriph_Driver/src/stm32f10x_rcc.c ****       pllmull = pllmull >> 18;
 964:../Drivers/STM32F10x_StdPeriph_Driver/src/stm32f10x_rcc.c ****       
ARM GAS  /tmp/ccF8VtoY.s 			page 21


 965:../Drivers/STM32F10x_StdPeriph_Driver/src/stm32f10x_rcc.c ****       if (pllmull != 0x0D)
 966:../Drivers/STM32F10x_StdPeriph_Driver/src/stm32f10x_rcc.c ****       {
 967:../Drivers/STM32F10x_StdPeriph_Driver/src/stm32f10x_rcc.c ****          pllmull += 2;
 968:../Drivers/STM32F10x_StdPeriph_Driver/src/stm32f10x_rcc.c ****       }
 969:../Drivers/STM32F10x_StdPeriph_Driver/src/stm32f10x_rcc.c ****       else
 970:../Drivers/STM32F10x_StdPeriph_Driver/src/stm32f10x_rcc.c ****       { /* PLL multiplication factor = PLL input clock * 6.5 */
 971:../Drivers/STM32F10x_StdPeriph_Driver/src/stm32f10x_rcc.c ****         pllmull = 13 / 2; 
 972:../Drivers/STM32F10x_StdPeriph_Driver/src/stm32f10x_rcc.c ****       }
 973:../Drivers/STM32F10x_StdPeriph_Driver/src/stm32f10x_rcc.c ****             
 974:../Drivers/STM32F10x_StdPeriph_Driver/src/stm32f10x_rcc.c ****       if (pllsource == 0x00)
 975:../Drivers/STM32F10x_StdPeriph_Driver/src/stm32f10x_rcc.c ****       {/* HSI oscillator clock divided by 2 selected as PLL clock entry */
 976:../Drivers/STM32F10x_StdPeriph_Driver/src/stm32f10x_rcc.c ****         RCC_Clocks->SYSCLK_Frequency = (HSI_VALUE >> 1) * pllmull;
 977:../Drivers/STM32F10x_StdPeriph_Driver/src/stm32f10x_rcc.c ****       }
 978:../Drivers/STM32F10x_StdPeriph_Driver/src/stm32f10x_rcc.c ****       else
 979:../Drivers/STM32F10x_StdPeriph_Driver/src/stm32f10x_rcc.c ****       {/* PREDIV1 selected as PLL clock entry */
 980:../Drivers/STM32F10x_StdPeriph_Driver/src/stm32f10x_rcc.c ****         
 981:../Drivers/STM32F10x_StdPeriph_Driver/src/stm32f10x_rcc.c ****         /* Get PREDIV1 clock source and division factor */
 982:../Drivers/STM32F10x_StdPeriph_Driver/src/stm32f10x_rcc.c ****         prediv1source = RCC->CFGR2 & CFGR2_PREDIV1SRC;
 983:../Drivers/STM32F10x_StdPeriph_Driver/src/stm32f10x_rcc.c ****         prediv1factor = (RCC->CFGR2 & CFGR2_PREDIV1) + 1;
 984:../Drivers/STM32F10x_StdPeriph_Driver/src/stm32f10x_rcc.c ****         
 985:../Drivers/STM32F10x_StdPeriph_Driver/src/stm32f10x_rcc.c ****         if (prediv1source == 0)
 986:../Drivers/STM32F10x_StdPeriph_Driver/src/stm32f10x_rcc.c ****         { /* HSE oscillator clock selected as PREDIV1 clock entry */
 987:../Drivers/STM32F10x_StdPeriph_Driver/src/stm32f10x_rcc.c ****           RCC_Clocks->SYSCLK_Frequency = (HSE_VALUE / prediv1factor) * pllmull;          
 988:../Drivers/STM32F10x_StdPeriph_Driver/src/stm32f10x_rcc.c ****         }
 989:../Drivers/STM32F10x_StdPeriph_Driver/src/stm32f10x_rcc.c ****         else
 990:../Drivers/STM32F10x_StdPeriph_Driver/src/stm32f10x_rcc.c ****         {/* PLL2 clock selected as PREDIV1 clock entry */
 991:../Drivers/STM32F10x_StdPeriph_Driver/src/stm32f10x_rcc.c ****           
 992:../Drivers/STM32F10x_StdPeriph_Driver/src/stm32f10x_rcc.c ****           /* Get PREDIV2 division factor and PLL2 multiplication factor */
 993:../Drivers/STM32F10x_StdPeriph_Driver/src/stm32f10x_rcc.c ****           prediv2factor = ((RCC->CFGR2 & CFGR2_PREDIV2) >> 4) + 1;
 994:../Drivers/STM32F10x_StdPeriph_Driver/src/stm32f10x_rcc.c ****           pll2mull = ((RCC->CFGR2 & CFGR2_PLL2MUL) >> 8 ) + 2; 
 995:../Drivers/STM32F10x_StdPeriph_Driver/src/stm32f10x_rcc.c ****           RCC_Clocks->SYSCLK_Frequency = (((HSE_VALUE / prediv2factor) * pll2mull) / prediv1factor)
 996:../Drivers/STM32F10x_StdPeriph_Driver/src/stm32f10x_rcc.c ****         }
 997:../Drivers/STM32F10x_StdPeriph_Driver/src/stm32f10x_rcc.c ****       }
 998:../Drivers/STM32F10x_StdPeriph_Driver/src/stm32f10x_rcc.c **** #endif /* STM32F10X_CL */ 
 999:../Drivers/STM32F10x_StdPeriph_Driver/src/stm32f10x_rcc.c ****       break;
1000:../Drivers/STM32F10x_StdPeriph_Driver/src/stm32f10x_rcc.c **** 
1001:../Drivers/STM32F10x_StdPeriph_Driver/src/stm32f10x_rcc.c ****     default:
1002:../Drivers/STM32F10x_StdPeriph_Driver/src/stm32f10x_rcc.c ****       RCC_Clocks->SYSCLK_Frequency = HSI_VALUE;
1003:../Drivers/STM32F10x_StdPeriph_Driver/src/stm32f10x_rcc.c ****       break;
1004:../Drivers/STM32F10x_StdPeriph_Driver/src/stm32f10x_rcc.c ****   }
1005:../Drivers/STM32F10x_StdPeriph_Driver/src/stm32f10x_rcc.c **** 
1006:../Drivers/STM32F10x_StdPeriph_Driver/src/stm32f10x_rcc.c ****   /* Compute HCLK, PCLK1, PCLK2 and ADCCLK clocks frequencies ----------------*/
1007:../Drivers/STM32F10x_StdPeriph_Driver/src/stm32f10x_rcc.c ****   /* Get HCLK prescaler */
1008:../Drivers/STM32F10x_StdPeriph_Driver/src/stm32f10x_rcc.c ****   tmp = RCC->CFGR & CFGR_HPRE_Set_Mask;
1009:../Drivers/STM32F10x_StdPeriph_Driver/src/stm32f10x_rcc.c ****   tmp = tmp >> 4;
1010:../Drivers/STM32F10x_StdPeriph_Driver/src/stm32f10x_rcc.c ****   presc = APBAHBPrescTable[tmp];
1011:../Drivers/STM32F10x_StdPeriph_Driver/src/stm32f10x_rcc.c ****   /* HCLK clock frequency */
1012:../Drivers/STM32F10x_StdPeriph_Driver/src/stm32f10x_rcc.c ****   RCC_Clocks->HCLK_Frequency = RCC_Clocks->SYSCLK_Frequency >> presc;
1013:../Drivers/STM32F10x_StdPeriph_Driver/src/stm32f10x_rcc.c ****   /* Get PCLK1 prescaler */
1014:../Drivers/STM32F10x_StdPeriph_Driver/src/stm32f10x_rcc.c ****   tmp = RCC->CFGR & CFGR_PPRE1_Set_Mask;
1015:../Drivers/STM32F10x_StdPeriph_Driver/src/stm32f10x_rcc.c ****   tmp = tmp >> 8;
1016:../Drivers/STM32F10x_StdPeriph_Driver/src/stm32f10x_rcc.c ****   presc = APBAHBPrescTable[tmp];
1017:../Drivers/STM32F10x_StdPeriph_Driver/src/stm32f10x_rcc.c ****   /* PCLK1 clock frequency */
1018:../Drivers/STM32F10x_StdPeriph_Driver/src/stm32f10x_rcc.c ****   RCC_Clocks->PCLK1_Frequency = RCC_Clocks->HCLK_Frequency >> presc;
1019:../Drivers/STM32F10x_StdPeriph_Driver/src/stm32f10x_rcc.c ****   /* Get PCLK2 prescaler */
1020:../Drivers/STM32F10x_StdPeriph_Driver/src/stm32f10x_rcc.c ****   tmp = RCC->CFGR & CFGR_PPRE2_Set_Mask;
1021:../Drivers/STM32F10x_StdPeriph_Driver/src/stm32f10x_rcc.c ****   tmp = tmp >> 11;
ARM GAS  /tmp/ccF8VtoY.s 			page 22


1022:../Drivers/STM32F10x_StdPeriph_Driver/src/stm32f10x_rcc.c ****   presc = APBAHBPrescTable[tmp];
1023:../Drivers/STM32F10x_StdPeriph_Driver/src/stm32f10x_rcc.c ****   /* PCLK2 clock frequency */
1024:../Drivers/STM32F10x_StdPeriph_Driver/src/stm32f10x_rcc.c ****   RCC_Clocks->PCLK2_Frequency = RCC_Clocks->HCLK_Frequency >> presc;
1025:../Drivers/STM32F10x_StdPeriph_Driver/src/stm32f10x_rcc.c ****   /* Get ADCCLK prescaler */
1026:../Drivers/STM32F10x_StdPeriph_Driver/src/stm32f10x_rcc.c ****   tmp = RCC->CFGR & CFGR_ADCPRE_Set_Mask;
1027:../Drivers/STM32F10x_StdPeriph_Driver/src/stm32f10x_rcc.c ****   tmp = tmp >> 14;
1028:../Drivers/STM32F10x_StdPeriph_Driver/src/stm32f10x_rcc.c ****   presc = ADCPrescTable[tmp];
1029:../Drivers/STM32F10x_StdPeriph_Driver/src/stm32f10x_rcc.c ****   /* ADCCLK clock frequency */
1030:../Drivers/STM32F10x_StdPeriph_Driver/src/stm32f10x_rcc.c ****   RCC_Clocks->ADCCLK_Frequency = RCC_Clocks->PCLK2_Frequency / presc;
1031:../Drivers/STM32F10x_StdPeriph_Driver/src/stm32f10x_rcc.c **** }
1032:../Drivers/STM32F10x_StdPeriph_Driver/src/stm32f10x_rcc.c **** 
1033:../Drivers/STM32F10x_StdPeriph_Driver/src/stm32f10x_rcc.c **** /**
1034:../Drivers/STM32F10x_StdPeriph_Driver/src/stm32f10x_rcc.c ****   * @brief  Enables or disables the AHB peripheral clock.
1035:../Drivers/STM32F10x_StdPeriph_Driver/src/stm32f10x_rcc.c ****   * @param  RCC_AHBPeriph: specifies the AHB peripheral to gates its clock.
1036:../Drivers/STM32F10x_StdPeriph_Driver/src/stm32f10x_rcc.c ****   *   
1037:../Drivers/STM32F10x_StdPeriph_Driver/src/stm32f10x_rcc.c ****   *   For @b STM32_Connectivity_line_devices, this parameter can be any combination
1038:../Drivers/STM32F10x_StdPeriph_Driver/src/stm32f10x_rcc.c ****   *   of the following values:        
1039:../Drivers/STM32F10x_StdPeriph_Driver/src/stm32f10x_rcc.c ****   *     @arg RCC_AHBPeriph_DMA1
1040:../Drivers/STM32F10x_StdPeriph_Driver/src/stm32f10x_rcc.c ****   *     @arg RCC_AHBPeriph_DMA2
1041:../Drivers/STM32F10x_StdPeriph_Driver/src/stm32f10x_rcc.c ****   *     @arg RCC_AHBPeriph_SRAM
1042:../Drivers/STM32F10x_StdPeriph_Driver/src/stm32f10x_rcc.c ****   *     @arg RCC_AHBPeriph_FLITF
1043:../Drivers/STM32F10x_StdPeriph_Driver/src/stm32f10x_rcc.c ****   *     @arg RCC_AHBPeriph_CRC
1044:../Drivers/STM32F10x_StdPeriph_Driver/src/stm32f10x_rcc.c ****   *     @arg RCC_AHBPeriph_OTG_FS    
1045:../Drivers/STM32F10x_StdPeriph_Driver/src/stm32f10x_rcc.c ****   *     @arg RCC_AHBPeriph_ETH_MAC   
1046:../Drivers/STM32F10x_StdPeriph_Driver/src/stm32f10x_rcc.c ****   *     @arg RCC_AHBPeriph_ETH_MAC_Tx
1047:../Drivers/STM32F10x_StdPeriph_Driver/src/stm32f10x_rcc.c ****   *     @arg RCC_AHBPeriph_ETH_MAC_Rx
1048:../Drivers/STM32F10x_StdPeriph_Driver/src/stm32f10x_rcc.c ****   * 
1049:../Drivers/STM32F10x_StdPeriph_Driver/src/stm32f10x_rcc.c ****   *   For @b other_STM32_devices, this parameter can be any combination of the 
1050:../Drivers/STM32F10x_StdPeriph_Driver/src/stm32f10x_rcc.c ****   *   following values:        
1051:../Drivers/STM32F10x_StdPeriph_Driver/src/stm32f10x_rcc.c ****   *     @arg RCC_AHBPeriph_DMA1
1052:../Drivers/STM32F10x_StdPeriph_Driver/src/stm32f10x_rcc.c ****   *     @arg RCC_AHBPeriph_DMA2
1053:../Drivers/STM32F10x_StdPeriph_Driver/src/stm32f10x_rcc.c ****   *     @arg RCC_AHBPeriph_SRAM
1054:../Drivers/STM32F10x_StdPeriph_Driver/src/stm32f10x_rcc.c ****   *     @arg RCC_AHBPeriph_FLITF
1055:../Drivers/STM32F10x_StdPeriph_Driver/src/stm32f10x_rcc.c ****   *     @arg RCC_AHBPeriph_CRC
1056:../Drivers/STM32F10x_StdPeriph_Driver/src/stm32f10x_rcc.c ****   *     @arg RCC_AHBPeriph_FSMC
1057:../Drivers/STM32F10x_StdPeriph_Driver/src/stm32f10x_rcc.c ****   *     @arg RCC_AHBPeriph_SDIO
1058:../Drivers/STM32F10x_StdPeriph_Driver/src/stm32f10x_rcc.c ****   *   
1059:../Drivers/STM32F10x_StdPeriph_Driver/src/stm32f10x_rcc.c ****   * @note SRAM and FLITF clock can be disabled only during sleep mode.
1060:../Drivers/STM32F10x_StdPeriph_Driver/src/stm32f10x_rcc.c ****   * @param  NewState: new state of the specified peripheral clock.
1061:../Drivers/STM32F10x_StdPeriph_Driver/src/stm32f10x_rcc.c ****   *   This parameter can be: ENABLE or DISABLE.
1062:../Drivers/STM32F10x_StdPeriph_Driver/src/stm32f10x_rcc.c ****   * @retval None
1063:../Drivers/STM32F10x_StdPeriph_Driver/src/stm32f10x_rcc.c ****   */
1064:../Drivers/STM32F10x_StdPeriph_Driver/src/stm32f10x_rcc.c **** void RCC_AHBPeriphClockCmd(uint32_t RCC_AHBPeriph, FunctionalState NewState)
1065:../Drivers/STM32F10x_StdPeriph_Driver/src/stm32f10x_rcc.c **** {
1066:../Drivers/STM32F10x_StdPeriph_Driver/src/stm32f10x_rcc.c ****   /* Check the parameters */
1067:../Drivers/STM32F10x_StdPeriph_Driver/src/stm32f10x_rcc.c ****   assert_param(IS_RCC_AHB_PERIPH(RCC_AHBPeriph));
1068:../Drivers/STM32F10x_StdPeriph_Driver/src/stm32f10x_rcc.c ****   assert_param(IS_FUNCTIONAL_STATE(NewState));
1069:../Drivers/STM32F10x_StdPeriph_Driver/src/stm32f10x_rcc.c **** 
1070:../Drivers/STM32F10x_StdPeriph_Driver/src/stm32f10x_rcc.c ****   if (NewState != DISABLE)
1071:../Drivers/STM32F10x_StdPeriph_Driver/src/stm32f10x_rcc.c ****   {
1072:../Drivers/STM32F10x_StdPeriph_Driver/src/stm32f10x_rcc.c ****     RCC->AHBENR |= RCC_AHBPeriph;
1073:../Drivers/STM32F10x_StdPeriph_Driver/src/stm32f10x_rcc.c ****   }
1074:../Drivers/STM32F10x_StdPeriph_Driver/src/stm32f10x_rcc.c ****   else
1075:../Drivers/STM32F10x_StdPeriph_Driver/src/stm32f10x_rcc.c ****   {
1076:../Drivers/STM32F10x_StdPeriph_Driver/src/stm32f10x_rcc.c ****     RCC->AHBENR &= ~RCC_AHBPeriph;
1077:../Drivers/STM32F10x_StdPeriph_Driver/src/stm32f10x_rcc.c ****   }
1078:../Drivers/STM32F10x_StdPeriph_Driver/src/stm32f10x_rcc.c **** }
ARM GAS  /tmp/ccF8VtoY.s 			page 23


1079:../Drivers/STM32F10x_StdPeriph_Driver/src/stm32f10x_rcc.c **** 
1080:../Drivers/STM32F10x_StdPeriph_Driver/src/stm32f10x_rcc.c **** /**
1081:../Drivers/STM32F10x_StdPeriph_Driver/src/stm32f10x_rcc.c ****   * @brief  Enables or disables the High Speed APB (APB2) peripheral clock.
1082:../Drivers/STM32F10x_StdPeriph_Driver/src/stm32f10x_rcc.c ****   * @param  RCC_APB2Periph: specifies the APB2 peripheral to gates its clock.
1083:../Drivers/STM32F10x_StdPeriph_Driver/src/stm32f10x_rcc.c ****   *   This parameter can be any combination of the following values:
1084:../Drivers/STM32F10x_StdPeriph_Driver/src/stm32f10x_rcc.c ****   *     @arg RCC_APB2Periph_AFIO, RCC_APB2Periph_GPIOA, RCC_APB2Periph_GPIOB,
1085:../Drivers/STM32F10x_StdPeriph_Driver/src/stm32f10x_rcc.c ****   *          RCC_APB2Periph_GPIOC, RCC_APB2Periph_GPIOD, RCC_APB2Periph_GPIOE,
1086:../Drivers/STM32F10x_StdPeriph_Driver/src/stm32f10x_rcc.c ****   *          RCC_APB2Periph_GPIOF, RCC_APB2Periph_GPIOG, RCC_APB2Periph_ADC1,
1087:../Drivers/STM32F10x_StdPeriph_Driver/src/stm32f10x_rcc.c ****   *          RCC_APB2Periph_ADC2, RCC_APB2Periph_TIM1, RCC_APB2Periph_SPI1,
1088:../Drivers/STM32F10x_StdPeriph_Driver/src/stm32f10x_rcc.c ****   *          RCC_APB2Periph_TIM8, RCC_APB2Periph_USART1, RCC_APB2Periph_ADC3,
1089:../Drivers/STM32F10x_StdPeriph_Driver/src/stm32f10x_rcc.c ****   *          RCC_APB2Periph_TIM15, RCC_APB2Periph_TIM16, RCC_APB2Periph_TIM17,
1090:../Drivers/STM32F10x_StdPeriph_Driver/src/stm32f10x_rcc.c ****   *          RCC_APB2Periph_TIM9, RCC_APB2Periph_TIM10, RCC_APB2Periph_TIM11     
1091:../Drivers/STM32F10x_StdPeriph_Driver/src/stm32f10x_rcc.c ****   * @param  NewState: new state of the specified peripheral clock.
1092:../Drivers/STM32F10x_StdPeriph_Driver/src/stm32f10x_rcc.c ****   *   This parameter can be: ENABLE or DISABLE.
1093:../Drivers/STM32F10x_StdPeriph_Driver/src/stm32f10x_rcc.c ****   * @retval None
1094:../Drivers/STM32F10x_StdPeriph_Driver/src/stm32f10x_rcc.c ****   */
1095:../Drivers/STM32F10x_StdPeriph_Driver/src/stm32f10x_rcc.c **** void RCC_APB2PeriphClockCmd(uint32_t RCC_APB2Periph, FunctionalState NewState)
1096:../Drivers/STM32F10x_StdPeriph_Driver/src/stm32f10x_rcc.c **** {
1097:../Drivers/STM32F10x_StdPeriph_Driver/src/stm32f10x_rcc.c ****   /* Check the parameters */
1098:../Drivers/STM32F10x_StdPeriph_Driver/src/stm32f10x_rcc.c ****   assert_param(IS_RCC_APB2_PERIPH(RCC_APB2Periph));
1099:../Drivers/STM32F10x_StdPeriph_Driver/src/stm32f10x_rcc.c ****   assert_param(IS_FUNCTIONAL_STATE(NewState));
1100:../Drivers/STM32F10x_StdPeriph_Driver/src/stm32f10x_rcc.c ****   if (NewState != DISABLE)
1101:../Drivers/STM32F10x_StdPeriph_Driver/src/stm32f10x_rcc.c ****   {
1102:../Drivers/STM32F10x_StdPeriph_Driver/src/stm32f10x_rcc.c ****     RCC->APB2ENR |= RCC_APB2Periph;
1103:../Drivers/STM32F10x_StdPeriph_Driver/src/stm32f10x_rcc.c ****   }
1104:../Drivers/STM32F10x_StdPeriph_Driver/src/stm32f10x_rcc.c ****   else
1105:../Drivers/STM32F10x_StdPeriph_Driver/src/stm32f10x_rcc.c ****   {
1106:../Drivers/STM32F10x_StdPeriph_Driver/src/stm32f10x_rcc.c ****     RCC->APB2ENR &= ~RCC_APB2Periph;
1107:../Drivers/STM32F10x_StdPeriph_Driver/src/stm32f10x_rcc.c ****   }
1108:../Drivers/STM32F10x_StdPeriph_Driver/src/stm32f10x_rcc.c **** }
1109:../Drivers/STM32F10x_StdPeriph_Driver/src/stm32f10x_rcc.c **** 
1110:../Drivers/STM32F10x_StdPeriph_Driver/src/stm32f10x_rcc.c **** /**
1111:../Drivers/STM32F10x_StdPeriph_Driver/src/stm32f10x_rcc.c ****   * @brief  Enables or disables the Low Speed APB (APB1) peripheral clock.
1112:../Drivers/STM32F10x_StdPeriph_Driver/src/stm32f10x_rcc.c ****   * @param  RCC_APB1Periph: specifies the APB1 peripheral to gates its clock.
1113:../Drivers/STM32F10x_StdPeriph_Driver/src/stm32f10x_rcc.c ****   *   This parameter can be any combination of the following values:
1114:../Drivers/STM32F10x_StdPeriph_Driver/src/stm32f10x_rcc.c ****   *     @arg RCC_APB1Periph_TIM2, RCC_APB1Periph_TIM3, RCC_APB1Periph_TIM4,
1115:../Drivers/STM32F10x_StdPeriph_Driver/src/stm32f10x_rcc.c ****   *          RCC_APB1Periph_TIM5, RCC_APB1Periph_TIM6, RCC_APB1Periph_TIM7,
1116:../Drivers/STM32F10x_StdPeriph_Driver/src/stm32f10x_rcc.c ****   *          RCC_APB1Periph_WWDG, RCC_APB1Periph_SPI2, RCC_APB1Periph_SPI3,
1117:../Drivers/STM32F10x_StdPeriph_Driver/src/stm32f10x_rcc.c ****   *          RCC_APB1Periph_USART2, RCC_APB1Periph_USART3, RCC_APB1Periph_USART4, 
1118:../Drivers/STM32F10x_StdPeriph_Driver/src/stm32f10x_rcc.c ****   *          RCC_APB1Periph_USART5, RCC_APB1Periph_I2C1, RCC_APB1Periph_I2C2,
1119:../Drivers/STM32F10x_StdPeriph_Driver/src/stm32f10x_rcc.c ****   *          RCC_APB1Periph_USB, RCC_APB1Periph_CAN1, RCC_APB1Periph_BKP,
1120:../Drivers/STM32F10x_StdPeriph_Driver/src/stm32f10x_rcc.c ****   *          RCC_APB1Periph_PWR, RCC_APB1Periph_DAC, RCC_APB1Periph_CEC,
1121:../Drivers/STM32F10x_StdPeriph_Driver/src/stm32f10x_rcc.c ****   *          RCC_APB1Periph_TIM12, RCC_APB1Periph_TIM13, RCC_APB1Periph_TIM14
1122:../Drivers/STM32F10x_StdPeriph_Driver/src/stm32f10x_rcc.c ****   * @param  NewState: new state of the specified peripheral clock.
1123:../Drivers/STM32F10x_StdPeriph_Driver/src/stm32f10x_rcc.c ****   *   This parameter can be: ENABLE or DISABLE.
1124:../Drivers/STM32F10x_StdPeriph_Driver/src/stm32f10x_rcc.c ****   * @retval None
1125:../Drivers/STM32F10x_StdPeriph_Driver/src/stm32f10x_rcc.c ****   */
1126:../Drivers/STM32F10x_StdPeriph_Driver/src/stm32f10x_rcc.c **** void RCC_APB1PeriphClockCmd(uint32_t RCC_APB1Periph, FunctionalState NewState)
1127:../Drivers/STM32F10x_StdPeriph_Driver/src/stm32f10x_rcc.c **** {
1128:../Drivers/STM32F10x_StdPeriph_Driver/src/stm32f10x_rcc.c ****   /* Check the parameters */
1129:../Drivers/STM32F10x_StdPeriph_Driver/src/stm32f10x_rcc.c ****   assert_param(IS_RCC_APB1_PERIPH(RCC_APB1Periph));
1130:../Drivers/STM32F10x_StdPeriph_Driver/src/stm32f10x_rcc.c ****   assert_param(IS_FUNCTIONAL_STATE(NewState));
1131:../Drivers/STM32F10x_StdPeriph_Driver/src/stm32f10x_rcc.c ****   if (NewState != DISABLE)
1132:../Drivers/STM32F10x_StdPeriph_Driver/src/stm32f10x_rcc.c ****   {
1133:../Drivers/STM32F10x_StdPeriph_Driver/src/stm32f10x_rcc.c ****     RCC->APB1ENR |= RCC_APB1Periph;
1134:../Drivers/STM32F10x_StdPeriph_Driver/src/stm32f10x_rcc.c ****   }
1135:../Drivers/STM32F10x_StdPeriph_Driver/src/stm32f10x_rcc.c ****   else
ARM GAS  /tmp/ccF8VtoY.s 			page 24


1136:../Drivers/STM32F10x_StdPeriph_Driver/src/stm32f10x_rcc.c ****   {
1137:../Drivers/STM32F10x_StdPeriph_Driver/src/stm32f10x_rcc.c ****     RCC->APB1ENR &= ~RCC_APB1Periph;
1138:../Drivers/STM32F10x_StdPeriph_Driver/src/stm32f10x_rcc.c ****   }
1139:../Drivers/STM32F10x_StdPeriph_Driver/src/stm32f10x_rcc.c **** }
1140:../Drivers/STM32F10x_StdPeriph_Driver/src/stm32f10x_rcc.c **** 
1141:../Drivers/STM32F10x_StdPeriph_Driver/src/stm32f10x_rcc.c **** #ifdef STM32F10X_CL
1142:../Drivers/STM32F10x_StdPeriph_Driver/src/stm32f10x_rcc.c **** /**
1143:../Drivers/STM32F10x_StdPeriph_Driver/src/stm32f10x_rcc.c ****   * @brief  Forces or releases AHB peripheral reset.
1144:../Drivers/STM32F10x_StdPeriph_Driver/src/stm32f10x_rcc.c ****   * @note   This function applies only to STM32 Connectivity line devices.
1145:../Drivers/STM32F10x_StdPeriph_Driver/src/stm32f10x_rcc.c ****   * @param  RCC_AHBPeriph: specifies the AHB peripheral to reset.
1146:../Drivers/STM32F10x_StdPeriph_Driver/src/stm32f10x_rcc.c ****   *   This parameter can be any combination of the following values:
1147:../Drivers/STM32F10x_StdPeriph_Driver/src/stm32f10x_rcc.c ****   *     @arg RCC_AHBPeriph_OTG_FS 
1148:../Drivers/STM32F10x_StdPeriph_Driver/src/stm32f10x_rcc.c ****   *     @arg RCC_AHBPeriph_ETH_MAC
1149:../Drivers/STM32F10x_StdPeriph_Driver/src/stm32f10x_rcc.c ****   * @param  NewState: new state of the specified peripheral reset.
1150:../Drivers/STM32F10x_StdPeriph_Driver/src/stm32f10x_rcc.c ****   *   This parameter can be: ENABLE or DISABLE.
1151:../Drivers/STM32F10x_StdPeriph_Driver/src/stm32f10x_rcc.c ****   * @retval None
1152:../Drivers/STM32F10x_StdPeriph_Driver/src/stm32f10x_rcc.c ****   */
1153:../Drivers/STM32F10x_StdPeriph_Driver/src/stm32f10x_rcc.c **** void RCC_AHBPeriphResetCmd(uint32_t RCC_AHBPeriph, FunctionalState NewState)
1154:../Drivers/STM32F10x_StdPeriph_Driver/src/stm32f10x_rcc.c **** {
1155:../Drivers/STM32F10x_StdPeriph_Driver/src/stm32f10x_rcc.c ****   /* Check the parameters */
1156:../Drivers/STM32F10x_StdPeriph_Driver/src/stm32f10x_rcc.c ****   assert_param(IS_RCC_AHB_PERIPH_RESET(RCC_AHBPeriph));
1157:../Drivers/STM32F10x_StdPeriph_Driver/src/stm32f10x_rcc.c ****   assert_param(IS_FUNCTIONAL_STATE(NewState));
1158:../Drivers/STM32F10x_StdPeriph_Driver/src/stm32f10x_rcc.c **** 
1159:../Drivers/STM32F10x_StdPeriph_Driver/src/stm32f10x_rcc.c ****   if (NewState != DISABLE)
1160:../Drivers/STM32F10x_StdPeriph_Driver/src/stm32f10x_rcc.c ****   {
1161:../Drivers/STM32F10x_StdPeriph_Driver/src/stm32f10x_rcc.c ****     RCC->AHBRSTR |= RCC_AHBPeriph;
1162:../Drivers/STM32F10x_StdPeriph_Driver/src/stm32f10x_rcc.c ****   }
1163:../Drivers/STM32F10x_StdPeriph_Driver/src/stm32f10x_rcc.c ****   else
1164:../Drivers/STM32F10x_StdPeriph_Driver/src/stm32f10x_rcc.c ****   {
1165:../Drivers/STM32F10x_StdPeriph_Driver/src/stm32f10x_rcc.c ****     RCC->AHBRSTR &= ~RCC_AHBPeriph;
1166:../Drivers/STM32F10x_StdPeriph_Driver/src/stm32f10x_rcc.c ****   }
1167:../Drivers/STM32F10x_StdPeriph_Driver/src/stm32f10x_rcc.c **** }
1168:../Drivers/STM32F10x_StdPeriph_Driver/src/stm32f10x_rcc.c **** #endif /* STM32F10X_CL */ 
1169:../Drivers/STM32F10x_StdPeriph_Driver/src/stm32f10x_rcc.c **** 
1170:../Drivers/STM32F10x_StdPeriph_Driver/src/stm32f10x_rcc.c **** /**
1171:../Drivers/STM32F10x_StdPeriph_Driver/src/stm32f10x_rcc.c ****   * @brief  Forces or releases High Speed APB (APB2) peripheral reset.
1172:../Drivers/STM32F10x_StdPeriph_Driver/src/stm32f10x_rcc.c ****   * @param  RCC_APB2Periph: specifies the APB2 peripheral to reset.
1173:../Drivers/STM32F10x_StdPeriph_Driver/src/stm32f10x_rcc.c ****   *   This parameter can be any combination of the following values:
1174:../Drivers/STM32F10x_StdPeriph_Driver/src/stm32f10x_rcc.c ****   *     @arg RCC_APB2Periph_AFIO, RCC_APB2Periph_GPIOA, RCC_APB2Periph_GPIOB,
1175:../Drivers/STM32F10x_StdPeriph_Driver/src/stm32f10x_rcc.c ****   *          RCC_APB2Periph_GPIOC, RCC_APB2Periph_GPIOD, RCC_APB2Periph_GPIOE,
1176:../Drivers/STM32F10x_StdPeriph_Driver/src/stm32f10x_rcc.c ****   *          RCC_APB2Periph_GPIOF, RCC_APB2Periph_GPIOG, RCC_APB2Periph_ADC1,
1177:../Drivers/STM32F10x_StdPeriph_Driver/src/stm32f10x_rcc.c ****   *          RCC_APB2Periph_ADC2, RCC_APB2Periph_TIM1, RCC_APB2Periph_SPI1,
1178:../Drivers/STM32F10x_StdPeriph_Driver/src/stm32f10x_rcc.c ****   *          RCC_APB2Periph_TIM8, RCC_APB2Periph_USART1, RCC_APB2Periph_ADC3,
1179:../Drivers/STM32F10x_StdPeriph_Driver/src/stm32f10x_rcc.c ****   *          RCC_APB2Periph_TIM15, RCC_APB2Periph_TIM16, RCC_APB2Periph_TIM17,
1180:../Drivers/STM32F10x_StdPeriph_Driver/src/stm32f10x_rcc.c ****   *          RCC_APB2Periph_TIM9, RCC_APB2Periph_TIM10, RCC_APB2Periph_TIM11  
1181:../Drivers/STM32F10x_StdPeriph_Driver/src/stm32f10x_rcc.c ****   * @param  NewState: new state of the specified peripheral reset.
1182:../Drivers/STM32F10x_StdPeriph_Driver/src/stm32f10x_rcc.c ****   *   This parameter can be: ENABLE or DISABLE.
1183:../Drivers/STM32F10x_StdPeriph_Driver/src/stm32f10x_rcc.c ****   * @retval None
1184:../Drivers/STM32F10x_StdPeriph_Driver/src/stm32f10x_rcc.c ****   */
1185:../Drivers/STM32F10x_StdPeriph_Driver/src/stm32f10x_rcc.c **** void RCC_APB2PeriphResetCmd(uint32_t RCC_APB2Periph, FunctionalState NewState)
1186:../Drivers/STM32F10x_StdPeriph_Driver/src/stm32f10x_rcc.c **** {
1187:../Drivers/STM32F10x_StdPeriph_Driver/src/stm32f10x_rcc.c ****   /* Check the parameters */
1188:../Drivers/STM32F10x_StdPeriph_Driver/src/stm32f10x_rcc.c ****   assert_param(IS_RCC_APB2_PERIPH(RCC_APB2Periph));
1189:../Drivers/STM32F10x_StdPeriph_Driver/src/stm32f10x_rcc.c ****   assert_param(IS_FUNCTIONAL_STATE(NewState));
1190:../Drivers/STM32F10x_StdPeriph_Driver/src/stm32f10x_rcc.c ****   if (NewState != DISABLE)
1191:../Drivers/STM32F10x_StdPeriph_Driver/src/stm32f10x_rcc.c ****   {
1192:../Drivers/STM32F10x_StdPeriph_Driver/src/stm32f10x_rcc.c ****     RCC->APB2RSTR |= RCC_APB2Periph;
ARM GAS  /tmp/ccF8VtoY.s 			page 25


1193:../Drivers/STM32F10x_StdPeriph_Driver/src/stm32f10x_rcc.c ****   }
1194:../Drivers/STM32F10x_StdPeriph_Driver/src/stm32f10x_rcc.c ****   else
1195:../Drivers/STM32F10x_StdPeriph_Driver/src/stm32f10x_rcc.c ****   {
1196:../Drivers/STM32F10x_StdPeriph_Driver/src/stm32f10x_rcc.c ****     RCC->APB2RSTR &= ~RCC_APB2Periph;
1197:../Drivers/STM32F10x_StdPeriph_Driver/src/stm32f10x_rcc.c ****   }
1198:../Drivers/STM32F10x_StdPeriph_Driver/src/stm32f10x_rcc.c **** }
1199:../Drivers/STM32F10x_StdPeriph_Driver/src/stm32f10x_rcc.c **** 
1200:../Drivers/STM32F10x_StdPeriph_Driver/src/stm32f10x_rcc.c **** /**
1201:../Drivers/STM32F10x_StdPeriph_Driver/src/stm32f10x_rcc.c ****   * @brief  Forces or releases Low Speed APB (APB1) peripheral reset.
1202:../Drivers/STM32F10x_StdPeriph_Driver/src/stm32f10x_rcc.c ****   * @param  RCC_APB1Periph: specifies the APB1 peripheral to reset.
1203:../Drivers/STM32F10x_StdPeriph_Driver/src/stm32f10x_rcc.c ****   *   This parameter can be any combination of the following values:
1204:../Drivers/STM32F10x_StdPeriph_Driver/src/stm32f10x_rcc.c ****   *     @arg RCC_APB1Periph_TIM2, RCC_APB1Periph_TIM3, RCC_APB1Periph_TIM4,
1205:../Drivers/STM32F10x_StdPeriph_Driver/src/stm32f10x_rcc.c ****   *          RCC_APB1Periph_TIM5, RCC_APB1Periph_TIM6, RCC_APB1Periph_TIM7,
1206:../Drivers/STM32F10x_StdPeriph_Driver/src/stm32f10x_rcc.c ****   *          RCC_APB1Periph_WWDG, RCC_APB1Periph_SPI2, RCC_APB1Periph_SPI3,
1207:../Drivers/STM32F10x_StdPeriph_Driver/src/stm32f10x_rcc.c ****   *          RCC_APB1Periph_USART2, RCC_APB1Periph_USART3, RCC_APB1Periph_USART4, 
1208:../Drivers/STM32F10x_StdPeriph_Driver/src/stm32f10x_rcc.c ****   *          RCC_APB1Periph_USART5, RCC_APB1Periph_I2C1, RCC_APB1Periph_I2C2,
1209:../Drivers/STM32F10x_StdPeriph_Driver/src/stm32f10x_rcc.c ****   *          RCC_APB1Periph_USB, RCC_APB1Periph_CAN1, RCC_APB1Periph_BKP,
1210:../Drivers/STM32F10x_StdPeriph_Driver/src/stm32f10x_rcc.c ****   *          RCC_APB1Periph_PWR, RCC_APB1Periph_DAC, RCC_APB1Periph_CEC,
1211:../Drivers/STM32F10x_StdPeriph_Driver/src/stm32f10x_rcc.c ****   *          RCC_APB1Periph_TIM12, RCC_APB1Periph_TIM13, RCC_APB1Periph_TIM14  
1212:../Drivers/STM32F10x_StdPeriph_Driver/src/stm32f10x_rcc.c ****   * @param  NewState: new state of the specified peripheral clock.
1213:../Drivers/STM32F10x_StdPeriph_Driver/src/stm32f10x_rcc.c ****   *   This parameter can be: ENABLE or DISABLE.
1214:../Drivers/STM32F10x_StdPeriph_Driver/src/stm32f10x_rcc.c ****   * @retval None
1215:../Drivers/STM32F10x_StdPeriph_Driver/src/stm32f10x_rcc.c ****   */
1216:../Drivers/STM32F10x_StdPeriph_Driver/src/stm32f10x_rcc.c **** void RCC_APB1PeriphResetCmd(uint32_t RCC_APB1Periph, FunctionalState NewState)
1217:../Drivers/STM32F10x_StdPeriph_Driver/src/stm32f10x_rcc.c **** {
1218:../Drivers/STM32F10x_StdPeriph_Driver/src/stm32f10x_rcc.c ****   /* Check the parameters */
1219:../Drivers/STM32F10x_StdPeriph_Driver/src/stm32f10x_rcc.c ****   assert_param(IS_RCC_APB1_PERIPH(RCC_APB1Periph));
1220:../Drivers/STM32F10x_StdPeriph_Driver/src/stm32f10x_rcc.c ****   assert_param(IS_FUNCTIONAL_STATE(NewState));
1221:../Drivers/STM32F10x_StdPeriph_Driver/src/stm32f10x_rcc.c ****   if (NewState != DISABLE)
1222:../Drivers/STM32F10x_StdPeriph_Driver/src/stm32f10x_rcc.c ****   {
1223:../Drivers/STM32F10x_StdPeriph_Driver/src/stm32f10x_rcc.c ****     RCC->APB1RSTR |= RCC_APB1Periph;
1224:../Drivers/STM32F10x_StdPeriph_Driver/src/stm32f10x_rcc.c ****   }
1225:../Drivers/STM32F10x_StdPeriph_Driver/src/stm32f10x_rcc.c ****   else
1226:../Drivers/STM32F10x_StdPeriph_Driver/src/stm32f10x_rcc.c ****   {
1227:../Drivers/STM32F10x_StdPeriph_Driver/src/stm32f10x_rcc.c ****     RCC->APB1RSTR &= ~RCC_APB1Periph;
1228:../Drivers/STM32F10x_StdPeriph_Driver/src/stm32f10x_rcc.c ****   }
1229:../Drivers/STM32F10x_StdPeriph_Driver/src/stm32f10x_rcc.c **** }
1230:../Drivers/STM32F10x_StdPeriph_Driver/src/stm32f10x_rcc.c **** 
1231:../Drivers/STM32F10x_StdPeriph_Driver/src/stm32f10x_rcc.c **** /**
1232:../Drivers/STM32F10x_StdPeriph_Driver/src/stm32f10x_rcc.c ****   * @brief  Forces or releases the Backup domain reset.
1233:../Drivers/STM32F10x_StdPeriph_Driver/src/stm32f10x_rcc.c ****   * @param  NewState: new state of the Backup domain reset.
1234:../Drivers/STM32F10x_StdPeriph_Driver/src/stm32f10x_rcc.c ****   *   This parameter can be: ENABLE or DISABLE.
1235:../Drivers/STM32F10x_StdPeriph_Driver/src/stm32f10x_rcc.c ****   * @retval None
1236:../Drivers/STM32F10x_StdPeriph_Driver/src/stm32f10x_rcc.c ****   */
1237:../Drivers/STM32F10x_StdPeriph_Driver/src/stm32f10x_rcc.c **** void RCC_BackupResetCmd(FunctionalState NewState)
1238:../Drivers/STM32F10x_StdPeriph_Driver/src/stm32f10x_rcc.c **** {
1239:../Drivers/STM32F10x_StdPeriph_Driver/src/stm32f10x_rcc.c ****   /* Check the parameters */
1240:../Drivers/STM32F10x_StdPeriph_Driver/src/stm32f10x_rcc.c ****   assert_param(IS_FUNCTIONAL_STATE(NewState));
1241:../Drivers/STM32F10x_StdPeriph_Driver/src/stm32f10x_rcc.c ****   *(__IO uint32_t *) BDCR_BDRST_BB = (uint32_t)NewState;
1242:../Drivers/STM32F10x_StdPeriph_Driver/src/stm32f10x_rcc.c **** }
1243:../Drivers/STM32F10x_StdPeriph_Driver/src/stm32f10x_rcc.c **** 
1244:../Drivers/STM32F10x_StdPeriph_Driver/src/stm32f10x_rcc.c **** /**
1245:../Drivers/STM32F10x_StdPeriph_Driver/src/stm32f10x_rcc.c ****   * @brief  Enables or disables the Clock Security System.
1246:../Drivers/STM32F10x_StdPeriph_Driver/src/stm32f10x_rcc.c ****   * @param  NewState: new state of the Clock Security System..
1247:../Drivers/STM32F10x_StdPeriph_Driver/src/stm32f10x_rcc.c ****   *   This parameter can be: ENABLE or DISABLE.
1248:../Drivers/STM32F10x_StdPeriph_Driver/src/stm32f10x_rcc.c ****   * @retval None
1249:../Drivers/STM32F10x_StdPeriph_Driver/src/stm32f10x_rcc.c ****   */
ARM GAS  /tmp/ccF8VtoY.s 			page 26


1250:../Drivers/STM32F10x_StdPeriph_Driver/src/stm32f10x_rcc.c **** void RCC_ClockSecuritySystemCmd(FunctionalState NewState)
1251:../Drivers/STM32F10x_StdPeriph_Driver/src/stm32f10x_rcc.c **** {
1252:../Drivers/STM32F10x_StdPeriph_Driver/src/stm32f10x_rcc.c ****   /* Check the parameters */
1253:../Drivers/STM32F10x_StdPeriph_Driver/src/stm32f10x_rcc.c ****   assert_param(IS_FUNCTIONAL_STATE(NewState));
1254:../Drivers/STM32F10x_StdPeriph_Driver/src/stm32f10x_rcc.c ****   *(__IO uint32_t *) CR_CSSON_BB = (uint32_t)NewState;
1255:../Drivers/STM32F10x_StdPeriph_Driver/src/stm32f10x_rcc.c **** }
1256:../Drivers/STM32F10x_StdPeriph_Driver/src/stm32f10x_rcc.c **** 
1257:../Drivers/STM32F10x_StdPeriph_Driver/src/stm32f10x_rcc.c **** /**
1258:../Drivers/STM32F10x_StdPeriph_Driver/src/stm32f10x_rcc.c ****   * @brief  Selects the clock source to output on MCO pin.
1259:../Drivers/STM32F10x_StdPeriph_Driver/src/stm32f10x_rcc.c ****   * @param  RCC_MCO: specifies the clock source to output.
1260:../Drivers/STM32F10x_StdPeriph_Driver/src/stm32f10x_rcc.c ****   *   
1261:../Drivers/STM32F10x_StdPeriph_Driver/src/stm32f10x_rcc.c ****   *   For @b STM32_Connectivity_line_devices, this parameter can be one of the
1262:../Drivers/STM32F10x_StdPeriph_Driver/src/stm32f10x_rcc.c ****   *   following values:       
1263:../Drivers/STM32F10x_StdPeriph_Driver/src/stm32f10x_rcc.c ****   *     @arg RCC_MCO_NoClock: No clock selected
1264:../Drivers/STM32F10x_StdPeriph_Driver/src/stm32f10x_rcc.c ****   *     @arg RCC_MCO_SYSCLK: System clock selected
1265:../Drivers/STM32F10x_StdPeriph_Driver/src/stm32f10x_rcc.c ****   *     @arg RCC_MCO_HSI: HSI oscillator clock selected
1266:../Drivers/STM32F10x_StdPeriph_Driver/src/stm32f10x_rcc.c ****   *     @arg RCC_MCO_HSE: HSE oscillator clock selected
1267:../Drivers/STM32F10x_StdPeriph_Driver/src/stm32f10x_rcc.c ****   *     @arg RCC_MCO_PLLCLK_Div2: PLL clock divided by 2 selected
1268:../Drivers/STM32F10x_StdPeriph_Driver/src/stm32f10x_rcc.c ****   *     @arg RCC_MCO_PLL2CLK: PLL2 clock selected                     
1269:../Drivers/STM32F10x_StdPeriph_Driver/src/stm32f10x_rcc.c ****   *     @arg RCC_MCO_PLL3CLK_Div2: PLL3 clock divided by 2 selected   
1270:../Drivers/STM32F10x_StdPeriph_Driver/src/stm32f10x_rcc.c ****   *     @arg RCC_MCO_XT1: External 3-25 MHz oscillator clock selected  
1271:../Drivers/STM32F10x_StdPeriph_Driver/src/stm32f10x_rcc.c ****   *     @arg RCC_MCO_PLL3CLK: PLL3 clock selected 
1272:../Drivers/STM32F10x_StdPeriph_Driver/src/stm32f10x_rcc.c ****   * 
1273:../Drivers/STM32F10x_StdPeriph_Driver/src/stm32f10x_rcc.c ****   *   For  @b other_STM32_devices, this parameter can be one of the following values:        
1274:../Drivers/STM32F10x_StdPeriph_Driver/src/stm32f10x_rcc.c ****   *     @arg RCC_MCO_NoClock: No clock selected
1275:../Drivers/STM32F10x_StdPeriph_Driver/src/stm32f10x_rcc.c ****   *     @arg RCC_MCO_SYSCLK: System clock selected
1276:../Drivers/STM32F10x_StdPeriph_Driver/src/stm32f10x_rcc.c ****   *     @arg RCC_MCO_HSI: HSI oscillator clock selected
1277:../Drivers/STM32F10x_StdPeriph_Driver/src/stm32f10x_rcc.c ****   *     @arg RCC_MCO_HSE: HSE oscillator clock selected
1278:../Drivers/STM32F10x_StdPeriph_Driver/src/stm32f10x_rcc.c ****   *     @arg RCC_MCO_PLLCLK_Div2: PLL clock divided by 2 selected
1279:../Drivers/STM32F10x_StdPeriph_Driver/src/stm32f10x_rcc.c ****   *   
1280:../Drivers/STM32F10x_StdPeriph_Driver/src/stm32f10x_rcc.c ****   * @retval None
1281:../Drivers/STM32F10x_StdPeriph_Driver/src/stm32f10x_rcc.c ****   */
1282:../Drivers/STM32F10x_StdPeriph_Driver/src/stm32f10x_rcc.c **** void RCC_MCOConfig(uint8_t RCC_MCO)
1283:../Drivers/STM32F10x_StdPeriph_Driver/src/stm32f10x_rcc.c **** {
1284:../Drivers/STM32F10x_StdPeriph_Driver/src/stm32f10x_rcc.c ****   /* Check the parameters */
1285:../Drivers/STM32F10x_StdPeriph_Driver/src/stm32f10x_rcc.c ****   assert_param(IS_RCC_MCO(RCC_MCO));
1286:../Drivers/STM32F10x_StdPeriph_Driver/src/stm32f10x_rcc.c **** 
1287:../Drivers/STM32F10x_StdPeriph_Driver/src/stm32f10x_rcc.c ****   /* Perform Byte access to MCO bits to select the MCO source */
1288:../Drivers/STM32F10x_StdPeriph_Driver/src/stm32f10x_rcc.c ****   *(__IO uint8_t *) CFGR_BYTE4_ADDRESS = RCC_MCO;
1289:../Drivers/STM32F10x_StdPeriph_Driver/src/stm32f10x_rcc.c **** }
1290:../Drivers/STM32F10x_StdPeriph_Driver/src/stm32f10x_rcc.c **** 
1291:../Drivers/STM32F10x_StdPeriph_Driver/src/stm32f10x_rcc.c **** /**
1292:../Drivers/STM32F10x_StdPeriph_Driver/src/stm32f10x_rcc.c ****   * @brief  Checks whether the specified RCC flag is set or not.
1293:../Drivers/STM32F10x_StdPeriph_Driver/src/stm32f10x_rcc.c ****   * @param  RCC_FLAG: specifies the flag to check.
1294:../Drivers/STM32F10x_StdPeriph_Driver/src/stm32f10x_rcc.c ****   *   
1295:../Drivers/STM32F10x_StdPeriph_Driver/src/stm32f10x_rcc.c ****   *   For @b STM32_Connectivity_line_devices, this parameter can be one of the
1296:../Drivers/STM32F10x_StdPeriph_Driver/src/stm32f10x_rcc.c ****   *   following values:
1297:../Drivers/STM32F10x_StdPeriph_Driver/src/stm32f10x_rcc.c ****   *     @arg RCC_FLAG_HSIRDY: HSI oscillator clock ready
1298:../Drivers/STM32F10x_StdPeriph_Driver/src/stm32f10x_rcc.c ****   *     @arg RCC_FLAG_HSERDY: HSE oscillator clock ready
1299:../Drivers/STM32F10x_StdPeriph_Driver/src/stm32f10x_rcc.c ****   *     @arg RCC_FLAG_PLLRDY: PLL clock ready
1300:../Drivers/STM32F10x_StdPeriph_Driver/src/stm32f10x_rcc.c ****   *     @arg RCC_FLAG_PLL2RDY: PLL2 clock ready      
1301:../Drivers/STM32F10x_StdPeriph_Driver/src/stm32f10x_rcc.c ****   *     @arg RCC_FLAG_PLL3RDY: PLL3 clock ready                           
1302:../Drivers/STM32F10x_StdPeriph_Driver/src/stm32f10x_rcc.c ****   *     @arg RCC_FLAG_LSERDY: LSE oscillator clock ready
1303:../Drivers/STM32F10x_StdPeriph_Driver/src/stm32f10x_rcc.c ****   *     @arg RCC_FLAG_LSIRDY: LSI oscillator clock ready
1304:../Drivers/STM32F10x_StdPeriph_Driver/src/stm32f10x_rcc.c ****   *     @arg RCC_FLAG_PINRST: Pin reset
1305:../Drivers/STM32F10x_StdPeriph_Driver/src/stm32f10x_rcc.c ****   *     @arg RCC_FLAG_PORRST: POR/PDR reset
1306:../Drivers/STM32F10x_StdPeriph_Driver/src/stm32f10x_rcc.c ****   *     @arg RCC_FLAG_SFTRST: Software reset
ARM GAS  /tmp/ccF8VtoY.s 			page 27


1307:../Drivers/STM32F10x_StdPeriph_Driver/src/stm32f10x_rcc.c ****   *     @arg RCC_FLAG_IWDGRST: Independent Watchdog reset
1308:../Drivers/STM32F10x_StdPeriph_Driver/src/stm32f10x_rcc.c ****   *     @arg RCC_FLAG_WWDGRST: Window Watchdog reset
1309:../Drivers/STM32F10x_StdPeriph_Driver/src/stm32f10x_rcc.c ****   *     @arg RCC_FLAG_LPWRRST: Low Power reset
1310:../Drivers/STM32F10x_StdPeriph_Driver/src/stm32f10x_rcc.c ****   * 
1311:../Drivers/STM32F10x_StdPeriph_Driver/src/stm32f10x_rcc.c ****   *   For @b other_STM32_devices, this parameter can be one of the following values:        
1312:../Drivers/STM32F10x_StdPeriph_Driver/src/stm32f10x_rcc.c ****   *     @arg RCC_FLAG_HSIRDY: HSI oscillator clock ready
1313:../Drivers/STM32F10x_StdPeriph_Driver/src/stm32f10x_rcc.c ****   *     @arg RCC_FLAG_HSERDY: HSE oscillator clock ready
1314:../Drivers/STM32F10x_StdPeriph_Driver/src/stm32f10x_rcc.c ****   *     @arg RCC_FLAG_PLLRDY: PLL clock ready
1315:../Drivers/STM32F10x_StdPeriph_Driver/src/stm32f10x_rcc.c ****   *     @arg RCC_FLAG_LSERDY: LSE oscillator clock ready
1316:../Drivers/STM32F10x_StdPeriph_Driver/src/stm32f10x_rcc.c ****   *     @arg RCC_FLAG_LSIRDY: LSI oscillator clock ready
1317:../Drivers/STM32F10x_StdPeriph_Driver/src/stm32f10x_rcc.c ****   *     @arg RCC_FLAG_PINRST: Pin reset
1318:../Drivers/STM32F10x_StdPeriph_Driver/src/stm32f10x_rcc.c ****   *     @arg RCC_FLAG_PORRST: POR/PDR reset
1319:../Drivers/STM32F10x_StdPeriph_Driver/src/stm32f10x_rcc.c ****   *     @arg RCC_FLAG_SFTRST: Software reset
1320:../Drivers/STM32F10x_StdPeriph_Driver/src/stm32f10x_rcc.c ****   *     @arg RCC_FLAG_IWDGRST: Independent Watchdog reset
1321:../Drivers/STM32F10x_StdPeriph_Driver/src/stm32f10x_rcc.c ****   *     @arg RCC_FLAG_WWDGRST: Window Watchdog reset
1322:../Drivers/STM32F10x_StdPeriph_Driver/src/stm32f10x_rcc.c ****   *     @arg RCC_FLAG_LPWRRST: Low Power reset
1323:../Drivers/STM32F10x_StdPeriph_Driver/src/stm32f10x_rcc.c ****   *   
1324:../Drivers/STM32F10x_StdPeriph_Driver/src/stm32f10x_rcc.c ****   * @retval The new state of RCC_FLAG (SET or RESET).
1325:../Drivers/STM32F10x_StdPeriph_Driver/src/stm32f10x_rcc.c ****   */
1326:../Drivers/STM32F10x_StdPeriph_Driver/src/stm32f10x_rcc.c **** FlagStatus RCC_GetFlagStatus(uint8_t RCC_FLAG)
1327:../Drivers/STM32F10x_StdPeriph_Driver/src/stm32f10x_rcc.c **** {
1328:../Drivers/STM32F10x_StdPeriph_Driver/src/stm32f10x_rcc.c ****   uint32_t tmp = 0;
1329:../Drivers/STM32F10x_StdPeriph_Driver/src/stm32f10x_rcc.c ****   uint32_t statusreg = 0;
1330:../Drivers/STM32F10x_StdPeriph_Driver/src/stm32f10x_rcc.c ****   FlagStatus bitstatus = RESET;
1331:../Drivers/STM32F10x_StdPeriph_Driver/src/stm32f10x_rcc.c ****   /* Check the parameters */
1332:../Drivers/STM32F10x_StdPeriph_Driver/src/stm32f10x_rcc.c ****   assert_param(IS_RCC_FLAG(RCC_FLAG));
1333:../Drivers/STM32F10x_StdPeriph_Driver/src/stm32f10x_rcc.c **** 
1334:../Drivers/STM32F10x_StdPeriph_Driver/src/stm32f10x_rcc.c ****   /* Get the RCC register index */
1335:../Drivers/STM32F10x_StdPeriph_Driver/src/stm32f10x_rcc.c ****   tmp = RCC_FLAG >> 5;
1336:../Drivers/STM32F10x_StdPeriph_Driver/src/stm32f10x_rcc.c ****   if (tmp == 1)               /* The flag to check is in CR register */
1337:../Drivers/STM32F10x_StdPeriph_Driver/src/stm32f10x_rcc.c ****   {
1338:../Drivers/STM32F10x_StdPeriph_Driver/src/stm32f10x_rcc.c ****     statusreg = RCC->CR;
 164              		.loc 1 1338 15 view .LVU37
 165 0004 0949     		ldr	r1, .L22
 166              	.LBE7:
 167              	.LBE6:
 306:../Drivers/STM32F10x_StdPeriph_Driver/src/stm32f10x_rcc.c ****   ErrorStatus status = ERROR;
 168              		.loc 1 306 17 view .LVU38
 169 0006 0193     		str	r3, [sp, #4]
 307:../Drivers/STM32F10x_StdPeriph_Driver/src/stm32f10x_rcc.c ****   ErrorStatus status = ERROR;
 170              		.loc 1 307 3 is_stmt 1 view .LVU39
 171              	.LVL1:
 308:../Drivers/STM32F10x_StdPeriph_Driver/src/stm32f10x_rcc.c ****   
 172              		.loc 1 308 3 view .LVU40
 308:../Drivers/STM32F10x_StdPeriph_Driver/src/stm32f10x_rcc.c ****   
 173              		.loc 1 308 3 is_stmt 0 view .LVU41
 174 0008 00E0     		b	.L14
 175              	.LVL2:
 176              	.L21:
 315:../Drivers/STM32F10x_StdPeriph_Driver/src/stm32f10x_rcc.c ****   
 177              		.loc 1 315 51 discriminator 1 view .LVU42
 178 000a 4AB9     		cbnz	r2, .L13
 179              	.L14:
 311:../Drivers/STM32F10x_StdPeriph_Driver/src/stm32f10x_rcc.c ****   {
 180              		.loc 1 311 3 is_stmt 1 discriminator 2 view .LVU43
 313:../Drivers/STM32F10x_StdPeriph_Driver/src/stm32f10x_rcc.c ****     StartUpCounter++;  
 181              		.loc 1 313 5 discriminator 2 view .LVU44
ARM GAS  /tmp/ccF8VtoY.s 			page 28


 182              	.LVL3:
 183              	.LBB10:
 184              	.LBI6:
1326:../Drivers/STM32F10x_StdPeriph_Driver/src/stm32f10x_rcc.c **** {
 185              		.loc 1 1326 12 discriminator 2 view .LVU45
 186              	.LBB8:
1328:../Drivers/STM32F10x_StdPeriph_Driver/src/stm32f10x_rcc.c ****   uint32_t statusreg = 0;
 187              		.loc 1 1328 3 discriminator 2 view .LVU46
1329:../Drivers/STM32F10x_StdPeriph_Driver/src/stm32f10x_rcc.c ****   FlagStatus bitstatus = RESET;
 188              		.loc 1 1329 3 discriminator 2 view .LVU47
1330:../Drivers/STM32F10x_StdPeriph_Driver/src/stm32f10x_rcc.c ****   /* Check the parameters */
 189              		.loc 1 1330 3 discriminator 2 view .LVU48
1332:../Drivers/STM32F10x_StdPeriph_Driver/src/stm32f10x_rcc.c **** 
 190              		.loc 1 1332 3 discriminator 2 view .LVU49
1335:../Drivers/STM32F10x_StdPeriph_Driver/src/stm32f10x_rcc.c ****   if (tmp == 1)               /* The flag to check is in CR register */
 191              		.loc 1 1335 3 discriminator 2 view .LVU50
1336:../Drivers/STM32F10x_StdPeriph_Driver/src/stm32f10x_rcc.c ****   {
 192              		.loc 1 1336 3 discriminator 2 view .LVU51
 193              		.loc 1 1338 5 discriminator 2 view .LVU52
 194              		.loc 1 1338 15 is_stmt 0 discriminator 2 view .LVU53
 195 000c 0A68     		ldr	r2, [r1]
 196              	.LVL4:
1339:../Drivers/STM32F10x_StdPeriph_Driver/src/stm32f10x_rcc.c ****   }
1340:../Drivers/STM32F10x_StdPeriph_Driver/src/stm32f10x_rcc.c ****   else if (tmp == 2)          /* The flag to check is in BDCR register */
1341:../Drivers/STM32F10x_StdPeriph_Driver/src/stm32f10x_rcc.c ****   {
1342:../Drivers/STM32F10x_StdPeriph_Driver/src/stm32f10x_rcc.c ****     statusreg = RCC->BDCR;
1343:../Drivers/STM32F10x_StdPeriph_Driver/src/stm32f10x_rcc.c ****   }
1344:../Drivers/STM32F10x_StdPeriph_Driver/src/stm32f10x_rcc.c ****   else                       /* The flag to check is in CSR register */
1345:../Drivers/STM32F10x_StdPeriph_Driver/src/stm32f10x_rcc.c ****   {
1346:../Drivers/STM32F10x_StdPeriph_Driver/src/stm32f10x_rcc.c ****     statusreg = RCC->CSR;
1347:../Drivers/STM32F10x_StdPeriph_Driver/src/stm32f10x_rcc.c ****   }
1348:../Drivers/STM32F10x_StdPeriph_Driver/src/stm32f10x_rcc.c **** 
1349:../Drivers/STM32F10x_StdPeriph_Driver/src/stm32f10x_rcc.c ****   /* Get the flag position */
1350:../Drivers/STM32F10x_StdPeriph_Driver/src/stm32f10x_rcc.c ****   tmp = RCC_FLAG & FLAG_Mask;
 197              		.loc 1 1350 3 is_stmt 1 discriminator 2 view .LVU54
1351:../Drivers/STM32F10x_StdPeriph_Driver/src/stm32f10x_rcc.c ****   if ((statusreg & ((uint32_t)1 << tmp)) != (uint32_t)RESET)
 198              		.loc 1 1351 3 discriminator 2 view .LVU55
 199              	.LBE8:
 200              	.LBE10:
 314:../Drivers/STM32F10x_StdPeriph_Driver/src/stm32f10x_rcc.c ****   } while((StartUpCounter != HSE_STARTUP_TIMEOUT) && (HSEStatus == RESET));
 201              		.loc 1 314 19 is_stmt 0 discriminator 2 view .LVU56
 202 000e 019B     		ldr	r3, [sp, #4]
 203 0010 02F40032 		and	r2, r2, #131072
 204              	.LVL5:
 205              	.LBB11:
 206              	.LBB9:
1352:../Drivers/STM32F10x_StdPeriph_Driver/src/stm32f10x_rcc.c ****   {
1353:../Drivers/STM32F10x_StdPeriph_Driver/src/stm32f10x_rcc.c ****     bitstatus = SET;
1354:../Drivers/STM32F10x_StdPeriph_Driver/src/stm32f10x_rcc.c ****   }
1355:../Drivers/STM32F10x_StdPeriph_Driver/src/stm32f10x_rcc.c ****   else
1356:../Drivers/STM32F10x_StdPeriph_Driver/src/stm32f10x_rcc.c ****   {
1357:../Drivers/STM32F10x_StdPeriph_Driver/src/stm32f10x_rcc.c ****     bitstatus = RESET;
1358:../Drivers/STM32F10x_StdPeriph_Driver/src/stm32f10x_rcc.c ****   }
1359:../Drivers/STM32F10x_StdPeriph_Driver/src/stm32f10x_rcc.c **** 
1360:../Drivers/STM32F10x_StdPeriph_Driver/src/stm32f10x_rcc.c ****   /* Return the flag status */
1361:../Drivers/STM32F10x_StdPeriph_Driver/src/stm32f10x_rcc.c ****   return bitstatus;
 207              		.loc 1 1361 3 is_stmt 1 discriminator 2 view .LVU57
ARM GAS  /tmp/ccF8VtoY.s 			page 29


 208              		.loc 1 1361 3 is_stmt 0 discriminator 2 view .LVU58
 209              	.LBE9:
 210              	.LBE11:
 314:../Drivers/STM32F10x_StdPeriph_Driver/src/stm32f10x_rcc.c ****   } while((StartUpCounter != HSE_STARTUP_TIMEOUT) && (HSEStatus == RESET));
 211              		.loc 1 314 5 is_stmt 1 discriminator 2 view .LVU59
 314:../Drivers/STM32F10x_StdPeriph_Driver/src/stm32f10x_rcc.c ****   } while((StartUpCounter != HSE_STARTUP_TIMEOUT) && (HSEStatus == RESET));
 212              		.loc 1 314 19 is_stmt 0 discriminator 2 view .LVU60
 213 0014 0133     		adds	r3, r3, #1
 214 0016 0193     		str	r3, [sp, #4]
 315:../Drivers/STM32F10x_StdPeriph_Driver/src/stm32f10x_rcc.c ****   
 215              		.loc 1 315 10 is_stmt 1 discriminator 2 view .LVU61
 315:../Drivers/STM32F10x_StdPeriph_Driver/src/stm32f10x_rcc.c ****   
 216              		.loc 1 315 27 is_stmt 0 discriminator 2 view .LVU62
 217 0018 019B     		ldr	r3, [sp, #4]
 315:../Drivers/STM32F10x_StdPeriph_Driver/src/stm32f10x_rcc.c ****   
 218              		.loc 1 315 3 discriminator 2 view .LVU63
 219 001a B3F5A06F 		cmp	r3, #1280
 220 001e F4D1     		bne	.L21
 221              	.L13:
 317:../Drivers/STM32F10x_StdPeriph_Driver/src/stm32f10x_rcc.c ****   {
 222              		.loc 1 317 3 is_stmt 1 view .LVU64
 223              	.LVL6:
 224              	.LBB12:
 225              	.LBI12:
1326:../Drivers/STM32F10x_StdPeriph_Driver/src/stm32f10x_rcc.c **** {
 226              		.loc 1 1326 12 view .LVU65
 227              	.LBB13:
1328:../Drivers/STM32F10x_StdPeriph_Driver/src/stm32f10x_rcc.c ****   uint32_t statusreg = 0;
 228              		.loc 1 1328 3 view .LVU66
1329:../Drivers/STM32F10x_StdPeriph_Driver/src/stm32f10x_rcc.c ****   FlagStatus bitstatus = RESET;
 229              		.loc 1 1329 3 view .LVU67
1330:../Drivers/STM32F10x_StdPeriph_Driver/src/stm32f10x_rcc.c ****   /* Check the parameters */
 230              		.loc 1 1330 3 view .LVU68
1332:../Drivers/STM32F10x_StdPeriph_Driver/src/stm32f10x_rcc.c **** 
 231              		.loc 1 1332 3 view .LVU69
1335:../Drivers/STM32F10x_StdPeriph_Driver/src/stm32f10x_rcc.c ****   if (tmp == 1)               /* The flag to check is in CR register */
 232              		.loc 1 1335 3 view .LVU70
1336:../Drivers/STM32F10x_StdPeriph_Driver/src/stm32f10x_rcc.c ****   {
 233              		.loc 1 1336 3 view .LVU71
1338:../Drivers/STM32F10x_StdPeriph_Driver/src/stm32f10x_rcc.c ****   }
 234              		.loc 1 1338 5 view .LVU72
1338:../Drivers/STM32F10x_StdPeriph_Driver/src/stm32f10x_rcc.c ****   }
 235              		.loc 1 1338 15 is_stmt 0 view .LVU73
 236 0020 024B     		ldr	r3, .L22
 237 0022 1868     		ldr	r0, [r3]
 238              	.LVL7:
1350:../Drivers/STM32F10x_StdPeriph_Driver/src/stm32f10x_rcc.c ****   if ((statusreg & ((uint32_t)1 << tmp)) != (uint32_t)RESET)
 239              		.loc 1 1350 3 is_stmt 1 view .LVU74
1351:../Drivers/STM32F10x_StdPeriph_Driver/src/stm32f10x_rcc.c ****   {
 240              		.loc 1 1351 3 view .LVU75
 241              		.loc 1 1361 3 view .LVU76
 242              		.loc 1 1361 3 is_stmt 0 view .LVU77
 243              	.LBE13:
 244              	.LBE12:
 325:../Drivers/STM32F10x_StdPeriph_Driver/src/stm32f10x_rcc.c **** }
 245              		.loc 1 325 3 is_stmt 1 view .LVU78
 326:../Drivers/STM32F10x_StdPeriph_Driver/src/stm32f10x_rcc.c **** 
ARM GAS  /tmp/ccF8VtoY.s 			page 30


 246              		.loc 1 326 1 is_stmt 0 view .LVU79
 247 0024 C0F34040 		ubfx	r0, r0, #17, #1
 248              	.LVL8:
 326:../Drivers/STM32F10x_StdPeriph_Driver/src/stm32f10x_rcc.c **** 
 249              		.loc 1 326 1 view .LVU80
 250 0028 02B0     		add	sp, sp, #8
 251              	.LCFI1:
 252              		.cfi_def_cfa_offset 0
 253              		@ sp needed
 254 002a 7047     		bx	lr
 255              	.L23:
 256              		.align	2
 257              	.L22:
 258 002c 00100240 		.word	1073876992
 259              		.cfi_endproc
 260              	.LFE31:
 262              		.section	.text.RCC_AdjustHSICalibrationValue,"ax",%progbits
 263              		.align	1
 264              		.p2align 2,,3
 265              		.global	RCC_AdjustHSICalibrationValue
 266              		.syntax unified
 267              		.thumb
 268              		.thumb_func
 269              		.fpu softvfp
 271              	RCC_AdjustHSICalibrationValue:
 272              	.LVL9:
 273              	.LFB32:
 335:../Drivers/STM32F10x_StdPeriph_Driver/src/stm32f10x_rcc.c ****   uint32_t tmpreg = 0;
 274              		.loc 1 335 1 is_stmt 1 view -0
 275              		.cfi_startproc
 276              		@ args = 0, pretend = 0, frame = 0
 277              		@ frame_needed = 0, uses_anonymous_args = 0
 278              		@ link register save eliminated.
 336:../Drivers/STM32F10x_StdPeriph_Driver/src/stm32f10x_rcc.c ****   /* Check the parameters */
 279              		.loc 1 336 3 view .LVU82
 338:../Drivers/STM32F10x_StdPeriph_Driver/src/stm32f10x_rcc.c ****   tmpreg = RCC->CR;
 280              		.loc 1 338 3 view .LVU83
 339:../Drivers/STM32F10x_StdPeriph_Driver/src/stm32f10x_rcc.c ****   /* Clear HSITRIM[4:0] bits */
 281              		.loc 1 339 3 view .LVU84
 339:../Drivers/STM32F10x_StdPeriph_Driver/src/stm32f10x_rcc.c ****   /* Clear HSITRIM[4:0] bits */
 282              		.loc 1 339 10 is_stmt 0 view .LVU85
 283 0000 034A     		ldr	r2, .L25
 284 0002 1368     		ldr	r3, [r2]
 285              	.LVL10:
 341:../Drivers/STM32F10x_StdPeriph_Driver/src/stm32f10x_rcc.c ****   /* Set the HSITRIM[4:0] bits according to HSICalibrationValue value */
 286              		.loc 1 341 3 is_stmt 1 view .LVU86
 341:../Drivers/STM32F10x_StdPeriph_Driver/src/stm32f10x_rcc.c ****   /* Set the HSITRIM[4:0] bits according to HSICalibrationValue value */
 287              		.loc 1 341 10 is_stmt 0 view .LVU87
 288 0004 23F0F803 		bic	r3, r3, #248
 289              	.LVL11:
 343:../Drivers/STM32F10x_StdPeriph_Driver/src/stm32f10x_rcc.c ****   /* Store the new value */
 290              		.loc 1 343 3 is_stmt 1 view .LVU88
 343:../Drivers/STM32F10x_StdPeriph_Driver/src/stm32f10x_rcc.c ****   /* Store the new value */
 291              		.loc 1 343 10 is_stmt 0 view .LVU89
 292 0008 43EAC003 		orr	r3, r3, r0, lsl #3
 293              	.LVL12:
 345:../Drivers/STM32F10x_StdPeriph_Driver/src/stm32f10x_rcc.c **** }
ARM GAS  /tmp/ccF8VtoY.s 			page 31


 294              		.loc 1 345 3 is_stmt 1 view .LVU90
 345:../Drivers/STM32F10x_StdPeriph_Driver/src/stm32f10x_rcc.c **** }
 295              		.loc 1 345 11 is_stmt 0 view .LVU91
 296 000c 1360     		str	r3, [r2]
 346:../Drivers/STM32F10x_StdPeriph_Driver/src/stm32f10x_rcc.c **** 
 297              		.loc 1 346 1 view .LVU92
 298 000e 7047     		bx	lr
 299              	.L26:
 300              		.align	2
 301              	.L25:
 302 0010 00100240 		.word	1073876992
 303              		.cfi_endproc
 304              	.LFE32:
 306              		.section	.text.RCC_HSICmd,"ax",%progbits
 307              		.align	1
 308              		.p2align 2,,3
 309              		.global	RCC_HSICmd
 310              		.syntax unified
 311              		.thumb
 312              		.thumb_func
 313              		.fpu softvfp
 315              	RCC_HSICmd:
 316              	.LVL13:
 317              	.LFB33:
 355:../Drivers/STM32F10x_StdPeriph_Driver/src/stm32f10x_rcc.c ****   /* Check the parameters */
 318              		.loc 1 355 1 is_stmt 1 view -0
 319              		.cfi_startproc
 320              		@ args = 0, pretend = 0, frame = 0
 321              		@ frame_needed = 0, uses_anonymous_args = 0
 322              		@ link register save eliminated.
 357:../Drivers/STM32F10x_StdPeriph_Driver/src/stm32f10x_rcc.c ****   *(__IO uint32_t *) CR_HSION_BB = (uint32_t)NewState;
 323              		.loc 1 357 3 view .LVU94
 358:../Drivers/STM32F10x_StdPeriph_Driver/src/stm32f10x_rcc.c **** }
 324              		.loc 1 358 3 view .LVU95
 358:../Drivers/STM32F10x_StdPeriph_Driver/src/stm32f10x_rcc.c **** }
 325              		.loc 1 358 34 is_stmt 0 view .LVU96
 326 0000 014B     		ldr	r3, .L28
 327 0002 1860     		str	r0, [r3]
 359:../Drivers/STM32F10x_StdPeriph_Driver/src/stm32f10x_rcc.c **** 
 328              		.loc 1 359 1 view .LVU97
 329 0004 7047     		bx	lr
 330              	.L29:
 331 0006 00BF     		.align	2
 332              	.L28:
 333 0008 00004242 		.word	1111621632
 334              		.cfi_endproc
 335              	.LFE33:
 337              		.section	.text.RCC_PLLConfig,"ax",%progbits
 338              		.align	1
 339              		.p2align 2,,3
 340              		.global	RCC_PLLConfig
 341              		.syntax unified
 342              		.thumb
 343              		.thumb_func
 344              		.fpu softvfp
 346              	RCC_PLLConfig:
 347              	.LVL14:
ARM GAS  /tmp/ccF8VtoY.s 			page 32


 348              	.LFB34:
 379:../Drivers/STM32F10x_StdPeriph_Driver/src/stm32f10x_rcc.c ****   uint32_t tmpreg = 0;
 349              		.loc 1 379 1 is_stmt 1 view -0
 350              		.cfi_startproc
 351              		@ args = 0, pretend = 0, frame = 0
 352              		@ frame_needed = 0, uses_anonymous_args = 0
 353              		@ link register save eliminated.
 380:../Drivers/STM32F10x_StdPeriph_Driver/src/stm32f10x_rcc.c **** 
 354              		.loc 1 380 3 view .LVU99
 383:../Drivers/STM32F10x_StdPeriph_Driver/src/stm32f10x_rcc.c ****   assert_param(IS_RCC_PLL_MUL(RCC_PLLMul));
 355              		.loc 1 383 3 view .LVU100
 384:../Drivers/STM32F10x_StdPeriph_Driver/src/stm32f10x_rcc.c **** 
 356              		.loc 1 384 3 view .LVU101
 386:../Drivers/STM32F10x_StdPeriph_Driver/src/stm32f10x_rcc.c ****   /* Clear PLLSRC, PLLXTPRE and PLLMUL[3:0] bits */
 357              		.loc 1 386 3 view .LVU102
 386:../Drivers/STM32F10x_StdPeriph_Driver/src/stm32f10x_rcc.c ****   /* Clear PLLSRC, PLLXTPRE and PLLMUL[3:0] bits */
 358              		.loc 1 386 10 is_stmt 0 view .LVU103
 359 0000 034A     		ldr	r2, .L31
 360 0002 5368     		ldr	r3, [r2, #4]
 361              	.LVL15:
 388:../Drivers/STM32F10x_StdPeriph_Driver/src/stm32f10x_rcc.c ****   /* Set the PLL configuration bits */
 362              		.loc 1 388 3 is_stmt 1 view .LVU104
 390:../Drivers/STM32F10x_StdPeriph_Driver/src/stm32f10x_rcc.c ****   /* Store the new value */
 363              		.loc 1 390 3 view .LVU105
 388:../Drivers/STM32F10x_StdPeriph_Driver/src/stm32f10x_rcc.c ****   /* Set the PLL configuration bits */
 364              		.loc 1 388 10 is_stmt 0 view .LVU106
 365 0004 23F47C13 		bic	r3, r3, #4128768
 366              	.LVL16:
 388:../Drivers/STM32F10x_StdPeriph_Driver/src/stm32f10x_rcc.c ****   /* Set the PLL configuration bits */
 367              		.loc 1 388 10 view .LVU107
 368 0008 0B43     		orrs	r3, r3, r1
 369              	.LVL17:
 390:../Drivers/STM32F10x_StdPeriph_Driver/src/stm32f10x_rcc.c ****   /* Store the new value */
 370              		.loc 1 390 10 view .LVU108
 371 000a 0343     		orrs	r3, r3, r0
 372              	.LVL18:
 392:../Drivers/STM32F10x_StdPeriph_Driver/src/stm32f10x_rcc.c **** }
 373              		.loc 1 392 3 is_stmt 1 view .LVU109
 392:../Drivers/STM32F10x_StdPeriph_Driver/src/stm32f10x_rcc.c **** }
 374              		.loc 1 392 13 is_stmt 0 view .LVU110
 375 000c 5360     		str	r3, [r2, #4]
 393:../Drivers/STM32F10x_StdPeriph_Driver/src/stm32f10x_rcc.c **** 
 376              		.loc 1 393 1 view .LVU111
 377 000e 7047     		bx	lr
 378              	.L32:
 379              		.align	2
 380              	.L31:
 381 0010 00100240 		.word	1073876992
 382              		.cfi_endproc
 383              	.LFE34:
 385              		.section	.text.RCC_PLLCmd,"ax",%progbits
 386              		.align	1
 387              		.p2align 2,,3
 388              		.global	RCC_PLLCmd
 389              		.syntax unified
 390              		.thumb
 391              		.thumb_func
ARM GAS  /tmp/ccF8VtoY.s 			page 33


 392              		.fpu softvfp
 394              	RCC_PLLCmd:
 395              	.LVL19:
 396              	.LFB35:
 402:../Drivers/STM32F10x_StdPeriph_Driver/src/stm32f10x_rcc.c ****   /* Check the parameters */
 397              		.loc 1 402 1 is_stmt 1 view -0
 398              		.cfi_startproc
 399              		@ args = 0, pretend = 0, frame = 0
 400              		@ frame_needed = 0, uses_anonymous_args = 0
 401              		@ link register save eliminated.
 404:../Drivers/STM32F10x_StdPeriph_Driver/src/stm32f10x_rcc.c **** 
 402              		.loc 1 404 3 view .LVU113
 406:../Drivers/STM32F10x_StdPeriph_Driver/src/stm32f10x_rcc.c **** }
 403              		.loc 1 406 3 view .LVU114
 406:../Drivers/STM32F10x_StdPeriph_Driver/src/stm32f10x_rcc.c **** }
 404              		.loc 1 406 34 is_stmt 0 view .LVU115
 405 0000 014B     		ldr	r3, .L34
 406 0002 1860     		str	r0, [r3]
 407:../Drivers/STM32F10x_StdPeriph_Driver/src/stm32f10x_rcc.c **** 
 407              		.loc 1 407 1 view .LVU116
 408 0004 7047     		bx	lr
 409              	.L35:
 410 0006 00BF     		.align	2
 411              	.L34:
 412 0008 60004242 		.word	1111621728
 413              		.cfi_endproc
 414              	.LFE35:
 416              		.section	.text.RCC_SYSCLKConfig,"ax",%progbits
 417              		.align	1
 418              		.p2align 2,,3
 419              		.global	RCC_SYSCLKConfig
 420              		.syntax unified
 421              		.thumb
 422              		.thumb_func
 423              		.fpu softvfp
 425              	RCC_SYSCLKConfig:
 426              	.LVL20:
 427              	.LFB36:
 565:../Drivers/STM32F10x_StdPeriph_Driver/src/stm32f10x_rcc.c ****   uint32_t tmpreg = 0;
 428              		.loc 1 565 1 is_stmt 1 view -0
 429              		.cfi_startproc
 430              		@ args = 0, pretend = 0, frame = 0
 431              		@ frame_needed = 0, uses_anonymous_args = 0
 432              		@ link register save eliminated.
 566:../Drivers/STM32F10x_StdPeriph_Driver/src/stm32f10x_rcc.c ****   /* Check the parameters */
 433              		.loc 1 566 3 view .LVU118
 568:../Drivers/STM32F10x_StdPeriph_Driver/src/stm32f10x_rcc.c ****   tmpreg = RCC->CFGR;
 434              		.loc 1 568 3 view .LVU119
 569:../Drivers/STM32F10x_StdPeriph_Driver/src/stm32f10x_rcc.c ****   /* Clear SW[1:0] bits */
 435              		.loc 1 569 3 view .LVU120
 569:../Drivers/STM32F10x_StdPeriph_Driver/src/stm32f10x_rcc.c ****   /* Clear SW[1:0] bits */
 436              		.loc 1 569 10 is_stmt 0 view .LVU121
 437 0000 034A     		ldr	r2, .L37
 438 0002 5368     		ldr	r3, [r2, #4]
 439              	.LVL21:
 571:../Drivers/STM32F10x_StdPeriph_Driver/src/stm32f10x_rcc.c ****   /* Set SW[1:0] bits according to RCC_SYSCLKSource value */
 440              		.loc 1 571 3 is_stmt 1 view .LVU122
ARM GAS  /tmp/ccF8VtoY.s 			page 34


 571:../Drivers/STM32F10x_StdPeriph_Driver/src/stm32f10x_rcc.c ****   /* Set SW[1:0] bits according to RCC_SYSCLKSource value */
 441              		.loc 1 571 10 is_stmt 0 view .LVU123
 442 0004 23F00303 		bic	r3, r3, #3
 443              	.LVL22:
 573:../Drivers/STM32F10x_StdPeriph_Driver/src/stm32f10x_rcc.c ****   /* Store the new value */
 444              		.loc 1 573 3 is_stmt 1 view .LVU124
 573:../Drivers/STM32F10x_StdPeriph_Driver/src/stm32f10x_rcc.c ****   /* Store the new value */
 445              		.loc 1 573 10 is_stmt 0 view .LVU125
 446 0008 0343     		orrs	r3, r3, r0
 447              	.LVL23:
 575:../Drivers/STM32F10x_StdPeriph_Driver/src/stm32f10x_rcc.c **** }
 448              		.loc 1 575 3 is_stmt 1 view .LVU126
 575:../Drivers/STM32F10x_StdPeriph_Driver/src/stm32f10x_rcc.c **** }
 449              		.loc 1 575 13 is_stmt 0 view .LVU127
 450 000a 5360     		str	r3, [r2, #4]
 576:../Drivers/STM32F10x_StdPeriph_Driver/src/stm32f10x_rcc.c **** 
 451              		.loc 1 576 1 view .LVU128
 452 000c 7047     		bx	lr
 453              	.L38:
 454 000e 00BF     		.align	2
 455              	.L37:
 456 0010 00100240 		.word	1073876992
 457              		.cfi_endproc
 458              	.LFE36:
 460              		.section	.text.RCC_GetSYSCLKSource,"ax",%progbits
 461              		.align	1
 462              		.p2align 2,,3
 463              		.global	RCC_GetSYSCLKSource
 464              		.syntax unified
 465              		.thumb
 466              		.thumb_func
 467              		.fpu softvfp
 469              	RCC_GetSYSCLKSource:
 470              	.LFB37:
 588:../Drivers/STM32F10x_StdPeriph_Driver/src/stm32f10x_rcc.c ****   return ((uint8_t)(RCC->CFGR & CFGR_SWS_Mask));
 471              		.loc 1 588 1 is_stmt 1 view -0
 472              		.cfi_startproc
 473              		@ args = 0, pretend = 0, frame = 0
 474              		@ frame_needed = 0, uses_anonymous_args = 0
 475              		@ link register save eliminated.
 589:../Drivers/STM32F10x_StdPeriph_Driver/src/stm32f10x_rcc.c **** }
 476              		.loc 1 589 3 view .LVU130
 589:../Drivers/STM32F10x_StdPeriph_Driver/src/stm32f10x_rcc.c **** }
 477              		.loc 1 589 24 is_stmt 0 view .LVU131
 478 0000 024B     		ldr	r3, .L40
 479 0002 5868     		ldr	r0, [r3, #4]
 590:../Drivers/STM32F10x_StdPeriph_Driver/src/stm32f10x_rcc.c **** 
 480              		.loc 1 590 1 view .LVU132
 481 0004 00F00C00 		and	r0, r0, #12
 482 0008 7047     		bx	lr
 483              	.L41:
 484 000a 00BF     		.align	2
 485              	.L40:
 486 000c 00100240 		.word	1073876992
 487              		.cfi_endproc
 488              	.LFE37:
 490              		.section	.text.RCC_HCLKConfig,"ax",%progbits
ARM GAS  /tmp/ccF8VtoY.s 			page 35


 491              		.align	1
 492              		.p2align 2,,3
 493              		.global	RCC_HCLKConfig
 494              		.syntax unified
 495              		.thumb
 496              		.thumb_func
 497              		.fpu softvfp
 499              	RCC_HCLKConfig:
 500              	.LVL24:
 501              	.LFB38:
 609:../Drivers/STM32F10x_StdPeriph_Driver/src/stm32f10x_rcc.c ****   uint32_t tmpreg = 0;
 502              		.loc 1 609 1 is_stmt 1 view -0
 503              		.cfi_startproc
 504              		@ args = 0, pretend = 0, frame = 0
 505              		@ frame_needed = 0, uses_anonymous_args = 0
 506              		@ link register save eliminated.
 610:../Drivers/STM32F10x_StdPeriph_Driver/src/stm32f10x_rcc.c ****   /* Check the parameters */
 507              		.loc 1 610 3 view .LVU134
 612:../Drivers/STM32F10x_StdPeriph_Driver/src/stm32f10x_rcc.c ****   tmpreg = RCC->CFGR;
 508              		.loc 1 612 3 view .LVU135
 613:../Drivers/STM32F10x_StdPeriph_Driver/src/stm32f10x_rcc.c ****   /* Clear HPRE[3:0] bits */
 509              		.loc 1 613 3 view .LVU136
 613:../Drivers/STM32F10x_StdPeriph_Driver/src/stm32f10x_rcc.c ****   /* Clear HPRE[3:0] bits */
 510              		.loc 1 613 10 is_stmt 0 view .LVU137
 511 0000 034A     		ldr	r2, .L43
 512 0002 5368     		ldr	r3, [r2, #4]
 513              	.LVL25:
 615:../Drivers/STM32F10x_StdPeriph_Driver/src/stm32f10x_rcc.c ****   /* Set HPRE[3:0] bits according to RCC_SYSCLK value */
 514              		.loc 1 615 3 is_stmt 1 view .LVU138
 615:../Drivers/STM32F10x_StdPeriph_Driver/src/stm32f10x_rcc.c ****   /* Set HPRE[3:0] bits according to RCC_SYSCLK value */
 515              		.loc 1 615 10 is_stmt 0 view .LVU139
 516 0004 23F0F003 		bic	r3, r3, #240
 517              	.LVL26:
 617:../Drivers/STM32F10x_StdPeriph_Driver/src/stm32f10x_rcc.c ****   /* Store the new value */
 518              		.loc 1 617 3 is_stmt 1 view .LVU140
 617:../Drivers/STM32F10x_StdPeriph_Driver/src/stm32f10x_rcc.c ****   /* Store the new value */
 519              		.loc 1 617 10 is_stmt 0 view .LVU141
 520 0008 0343     		orrs	r3, r3, r0
 521              	.LVL27:
 619:../Drivers/STM32F10x_StdPeriph_Driver/src/stm32f10x_rcc.c **** }
 522              		.loc 1 619 3 is_stmt 1 view .LVU142
 619:../Drivers/STM32F10x_StdPeriph_Driver/src/stm32f10x_rcc.c **** }
 523              		.loc 1 619 13 is_stmt 0 view .LVU143
 524 000a 5360     		str	r3, [r2, #4]
 620:../Drivers/STM32F10x_StdPeriph_Driver/src/stm32f10x_rcc.c **** 
 525              		.loc 1 620 1 view .LVU144
 526 000c 7047     		bx	lr
 527              	.L44:
 528 000e 00BF     		.align	2
 529              	.L43:
 530 0010 00100240 		.word	1073876992
 531              		.cfi_endproc
 532              	.LFE38:
 534              		.section	.text.RCC_PCLK1Config,"ax",%progbits
 535              		.align	1
 536              		.p2align 2,,3
 537              		.global	RCC_PCLK1Config
ARM GAS  /tmp/ccF8VtoY.s 			page 36


 538              		.syntax unified
 539              		.thumb
 540              		.thumb_func
 541              		.fpu softvfp
 543              	RCC_PCLK1Config:
 544              	.LVL28:
 545              	.LFB39:
 635:../Drivers/STM32F10x_StdPeriph_Driver/src/stm32f10x_rcc.c ****   uint32_t tmpreg = 0;
 546              		.loc 1 635 1 is_stmt 1 view -0
 547              		.cfi_startproc
 548              		@ args = 0, pretend = 0, frame = 0
 549              		@ frame_needed = 0, uses_anonymous_args = 0
 550              		@ link register save eliminated.
 636:../Drivers/STM32F10x_StdPeriph_Driver/src/stm32f10x_rcc.c ****   /* Check the parameters */
 551              		.loc 1 636 3 view .LVU146
 638:../Drivers/STM32F10x_StdPeriph_Driver/src/stm32f10x_rcc.c ****   tmpreg = RCC->CFGR;
 552              		.loc 1 638 3 view .LVU147
 639:../Drivers/STM32F10x_StdPeriph_Driver/src/stm32f10x_rcc.c ****   /* Clear PPRE1[2:0] bits */
 553              		.loc 1 639 3 view .LVU148
 639:../Drivers/STM32F10x_StdPeriph_Driver/src/stm32f10x_rcc.c ****   /* Clear PPRE1[2:0] bits */
 554              		.loc 1 639 10 is_stmt 0 view .LVU149
 555 0000 034A     		ldr	r2, .L46
 556 0002 5368     		ldr	r3, [r2, #4]
 557              	.LVL29:
 641:../Drivers/STM32F10x_StdPeriph_Driver/src/stm32f10x_rcc.c ****   /* Set PPRE1[2:0] bits according to RCC_HCLK value */
 558              		.loc 1 641 3 is_stmt 1 view .LVU150
 641:../Drivers/STM32F10x_StdPeriph_Driver/src/stm32f10x_rcc.c ****   /* Set PPRE1[2:0] bits according to RCC_HCLK value */
 559              		.loc 1 641 10 is_stmt 0 view .LVU151
 560 0004 23F4E063 		bic	r3, r3, #1792
 561              	.LVL30:
 643:../Drivers/STM32F10x_StdPeriph_Driver/src/stm32f10x_rcc.c ****   /* Store the new value */
 562              		.loc 1 643 3 is_stmt 1 view .LVU152
 643:../Drivers/STM32F10x_StdPeriph_Driver/src/stm32f10x_rcc.c ****   /* Store the new value */
 563              		.loc 1 643 10 is_stmt 0 view .LVU153
 564 0008 0343     		orrs	r3, r3, r0
 565              	.LVL31:
 645:../Drivers/STM32F10x_StdPeriph_Driver/src/stm32f10x_rcc.c **** }
 566              		.loc 1 645 3 is_stmt 1 view .LVU154
 645:../Drivers/STM32F10x_StdPeriph_Driver/src/stm32f10x_rcc.c **** }
 567              		.loc 1 645 13 is_stmt 0 view .LVU155
 568 000a 5360     		str	r3, [r2, #4]
 646:../Drivers/STM32F10x_StdPeriph_Driver/src/stm32f10x_rcc.c **** 
 569              		.loc 1 646 1 view .LVU156
 570 000c 7047     		bx	lr
 571              	.L47:
 572 000e 00BF     		.align	2
 573              	.L46:
 574 0010 00100240 		.word	1073876992
 575              		.cfi_endproc
 576              	.LFE39:
 578              		.section	.text.RCC_PCLK2Config,"ax",%progbits
 579              		.align	1
 580              		.p2align 2,,3
 581              		.global	RCC_PCLK2Config
 582              		.syntax unified
 583              		.thumb
 584              		.thumb_func
ARM GAS  /tmp/ccF8VtoY.s 			page 37


 585              		.fpu softvfp
 587              	RCC_PCLK2Config:
 588              	.LVL32:
 589              	.LFB40:
 661:../Drivers/STM32F10x_StdPeriph_Driver/src/stm32f10x_rcc.c ****   uint32_t tmpreg = 0;
 590              		.loc 1 661 1 is_stmt 1 view -0
 591              		.cfi_startproc
 592              		@ args = 0, pretend = 0, frame = 0
 593              		@ frame_needed = 0, uses_anonymous_args = 0
 594              		@ link register save eliminated.
 662:../Drivers/STM32F10x_StdPeriph_Driver/src/stm32f10x_rcc.c ****   /* Check the parameters */
 595              		.loc 1 662 3 view .LVU158
 664:../Drivers/STM32F10x_StdPeriph_Driver/src/stm32f10x_rcc.c ****   tmpreg = RCC->CFGR;
 596              		.loc 1 664 3 view .LVU159
 665:../Drivers/STM32F10x_StdPeriph_Driver/src/stm32f10x_rcc.c ****   /* Clear PPRE2[2:0] bits */
 597              		.loc 1 665 3 view .LVU160
 665:../Drivers/STM32F10x_StdPeriph_Driver/src/stm32f10x_rcc.c ****   /* Clear PPRE2[2:0] bits */
 598              		.loc 1 665 10 is_stmt 0 view .LVU161
 599 0000 034A     		ldr	r2, .L49
 600 0002 5368     		ldr	r3, [r2, #4]
 601              	.LVL33:
 667:../Drivers/STM32F10x_StdPeriph_Driver/src/stm32f10x_rcc.c ****   /* Set PPRE2[2:0] bits according to RCC_HCLK value */
 602              		.loc 1 667 3 is_stmt 1 view .LVU162
 667:../Drivers/STM32F10x_StdPeriph_Driver/src/stm32f10x_rcc.c ****   /* Set PPRE2[2:0] bits according to RCC_HCLK value */
 603              		.loc 1 667 10 is_stmt 0 view .LVU163
 604 0004 23F46053 		bic	r3, r3, #14336
 605              	.LVL34:
 669:../Drivers/STM32F10x_StdPeriph_Driver/src/stm32f10x_rcc.c ****   /* Store the new value */
 606              		.loc 1 669 3 is_stmt 1 view .LVU164
 669:../Drivers/STM32F10x_StdPeriph_Driver/src/stm32f10x_rcc.c ****   /* Store the new value */
 607              		.loc 1 669 10 is_stmt 0 view .LVU165
 608 0008 43EAC003 		orr	r3, r3, r0, lsl #3
 609              	.LVL35:
 671:../Drivers/STM32F10x_StdPeriph_Driver/src/stm32f10x_rcc.c **** }
 610              		.loc 1 671 3 is_stmt 1 view .LVU166
 671:../Drivers/STM32F10x_StdPeriph_Driver/src/stm32f10x_rcc.c **** }
 611              		.loc 1 671 13 is_stmt 0 view .LVU167
 612 000c 5360     		str	r3, [r2, #4]
 672:../Drivers/STM32F10x_StdPeriph_Driver/src/stm32f10x_rcc.c **** 
 613              		.loc 1 672 1 view .LVU168
 614 000e 7047     		bx	lr
 615              	.L50:
 616              		.align	2
 617              	.L49:
 618 0010 00100240 		.word	1073876992
 619              		.cfi_endproc
 620              	.LFE40:
 622              		.section	.text.RCC_ITConfig,"ax",%progbits
 623              		.align	1
 624              		.p2align 2,,3
 625              		.global	RCC_ITConfig
 626              		.syntax unified
 627              		.thumb
 628              		.thumb_func
 629              		.fpu softvfp
 631              	RCC_ITConfig:
 632              	.LVL36:
ARM GAS  /tmp/ccF8VtoY.s 			page 38


 633              	.LFB41:
 701:../Drivers/STM32F10x_StdPeriph_Driver/src/stm32f10x_rcc.c ****   /* Check the parameters */
 634              		.loc 1 701 1 is_stmt 1 view -0
 635              		.cfi_startproc
 636              		@ args = 0, pretend = 0, frame = 0
 637              		@ frame_needed = 0, uses_anonymous_args = 0
 638              		@ link register save eliminated.
 703:../Drivers/STM32F10x_StdPeriph_Driver/src/stm32f10x_rcc.c ****   assert_param(IS_FUNCTIONAL_STATE(NewState));
 639              		.loc 1 703 3 view .LVU170
 704:../Drivers/STM32F10x_StdPeriph_Driver/src/stm32f10x_rcc.c ****   if (NewState != DISABLE)
 640              		.loc 1 704 3 view .LVU171
 705:../Drivers/STM32F10x_StdPeriph_Driver/src/stm32f10x_rcc.c ****   {
 641              		.loc 1 705 3 view .LVU172
 708:../Drivers/STM32F10x_StdPeriph_Driver/src/stm32f10x_rcc.c ****   }
 642              		.loc 1 708 41 is_stmt 0 view .LVU173
 643 0000 044A     		ldr	r2, .L54
 644 0002 1378     		ldrb	r3, [r2]	@ zero_extendqisi2
 705:../Drivers/STM32F10x_StdPeriph_Driver/src/stm32f10x_rcc.c ****   {
 645              		.loc 1 705 6 view .LVU174
 646 0004 11B1     		cbz	r1, .L52
 708:../Drivers/STM32F10x_StdPeriph_Driver/src/stm32f10x_rcc.c ****   }
 647              		.loc 1 708 5 is_stmt 1 view .LVU175
 708:../Drivers/STM32F10x_StdPeriph_Driver/src/stm32f10x_rcc.c ****   }
 648              		.loc 1 708 41 is_stmt 0 view .LVU176
 649 0006 1843     		orrs	r0, r0, r3
 650              	.LVL37:
 708:../Drivers/STM32F10x_StdPeriph_Driver/src/stm32f10x_rcc.c ****   }
 651              		.loc 1 708 41 view .LVU177
 652 0008 1070     		strb	r0, [r2]
 653 000a 7047     		bx	lr
 654              	.LVL38:
 655              	.L52:
 713:../Drivers/STM32F10x_StdPeriph_Driver/src/stm32f10x_rcc.c ****   }
 656              		.loc 1 713 5 is_stmt 1 view .LVU178
 713:../Drivers/STM32F10x_StdPeriph_Driver/src/stm32f10x_rcc.c ****   }
 657              		.loc 1 713 41 is_stmt 0 view .LVU179
 658 000c 23EA0000 		bic	r0, r3, r0
 659              	.LVL39:
 713:../Drivers/STM32F10x_StdPeriph_Driver/src/stm32f10x_rcc.c ****   }
 660              		.loc 1 713 41 view .LVU180
 661 0010 1070     		strb	r0, [r2]
 715:../Drivers/STM32F10x_StdPeriph_Driver/src/stm32f10x_rcc.c **** 
 662              		.loc 1 715 1 view .LVU181
 663 0012 7047     		bx	lr
 664              	.L55:
 665              		.align	2
 666              	.L54:
 667 0014 09100240 		.word	1073877001
 668              		.cfi_endproc
 669              	.LFE41:
 671              		.section	.text.RCC_USBCLKConfig,"ax",%progbits
 672              		.align	1
 673              		.p2align 2,,3
 674              		.global	RCC_USBCLKConfig
 675              		.syntax unified
 676              		.thumb
 677              		.thumb_func
ARM GAS  /tmp/ccF8VtoY.s 			page 39


 678              		.fpu softvfp
 680              	RCC_USBCLKConfig:
 681              	.LVL40:
 682              	.LFB42:
 729:../Drivers/STM32F10x_StdPeriph_Driver/src/stm32f10x_rcc.c ****   /* Check the parameters */
 683              		.loc 1 729 1 is_stmt 1 view -0
 684              		.cfi_startproc
 685              		@ args = 0, pretend = 0, frame = 0
 686              		@ frame_needed = 0, uses_anonymous_args = 0
 687              		@ link register save eliminated.
 731:../Drivers/STM32F10x_StdPeriph_Driver/src/stm32f10x_rcc.c **** 
 688              		.loc 1 731 3 view .LVU183
 733:../Drivers/STM32F10x_StdPeriph_Driver/src/stm32f10x_rcc.c **** }
 689              		.loc 1 733 3 view .LVU184
 733:../Drivers/STM32F10x_StdPeriph_Driver/src/stm32f10x_rcc.c **** }
 690              		.loc 1 733 37 is_stmt 0 view .LVU185
 691 0000 014B     		ldr	r3, .L57
 692 0002 1860     		str	r0, [r3]
 734:../Drivers/STM32F10x_StdPeriph_Driver/src/stm32f10x_rcc.c **** #else
 693              		.loc 1 734 1 view .LVU186
 694 0004 7047     		bx	lr
 695              	.L58:
 696 0006 00BF     		.align	2
 697              	.L57:
 698 0008 D8004242 		.word	1111621848
 699              		.cfi_endproc
 700              	.LFE42:
 702              		.section	.text.RCC_ADCCLKConfig,"ax",%progbits
 703              		.align	1
 704              		.p2align 2,,3
 705              		.global	RCC_ADCCLKConfig
 706              		.syntax unified
 707              		.thumb
 708              		.thumb_func
 709              		.fpu softvfp
 711              	RCC_ADCCLKConfig:
 712              	.LVL41:
 713              	.LFB43:
 767:../Drivers/STM32F10x_StdPeriph_Driver/src/stm32f10x_rcc.c ****   uint32_t tmpreg = 0;
 714              		.loc 1 767 1 is_stmt 1 view -0
 715              		.cfi_startproc
 716              		@ args = 0, pretend = 0, frame = 0
 717              		@ frame_needed = 0, uses_anonymous_args = 0
 718              		@ link register save eliminated.
 768:../Drivers/STM32F10x_StdPeriph_Driver/src/stm32f10x_rcc.c ****   /* Check the parameters */
 719              		.loc 1 768 3 view .LVU188
 770:../Drivers/STM32F10x_StdPeriph_Driver/src/stm32f10x_rcc.c ****   tmpreg = RCC->CFGR;
 720              		.loc 1 770 3 view .LVU189
 771:../Drivers/STM32F10x_StdPeriph_Driver/src/stm32f10x_rcc.c ****   /* Clear ADCPRE[1:0] bits */
 721              		.loc 1 771 3 view .LVU190
 771:../Drivers/STM32F10x_StdPeriph_Driver/src/stm32f10x_rcc.c ****   /* Clear ADCPRE[1:0] bits */
 722              		.loc 1 771 10 is_stmt 0 view .LVU191
 723 0000 034A     		ldr	r2, .L60
 724 0002 5368     		ldr	r3, [r2, #4]
 725              	.LVL42:
 773:../Drivers/STM32F10x_StdPeriph_Driver/src/stm32f10x_rcc.c ****   /* Set ADCPRE[1:0] bits according to RCC_PCLK2 value */
 726              		.loc 1 773 3 is_stmt 1 view .LVU192
ARM GAS  /tmp/ccF8VtoY.s 			page 40


 773:../Drivers/STM32F10x_StdPeriph_Driver/src/stm32f10x_rcc.c ****   /* Set ADCPRE[1:0] bits according to RCC_PCLK2 value */
 727              		.loc 1 773 10 is_stmt 0 view .LVU193
 728 0004 23F44043 		bic	r3, r3, #49152
 729              	.LVL43:
 775:../Drivers/STM32F10x_StdPeriph_Driver/src/stm32f10x_rcc.c ****   /* Store the new value */
 730              		.loc 1 775 3 is_stmt 1 view .LVU194
 775:../Drivers/STM32F10x_StdPeriph_Driver/src/stm32f10x_rcc.c ****   /* Store the new value */
 731              		.loc 1 775 10 is_stmt 0 view .LVU195
 732 0008 0343     		orrs	r3, r3, r0
 733              	.LVL44:
 777:../Drivers/STM32F10x_StdPeriph_Driver/src/stm32f10x_rcc.c **** }
 734              		.loc 1 777 3 is_stmt 1 view .LVU196
 777:../Drivers/STM32F10x_StdPeriph_Driver/src/stm32f10x_rcc.c **** }
 735              		.loc 1 777 13 is_stmt 0 view .LVU197
 736 000a 5360     		str	r3, [r2, #4]
 778:../Drivers/STM32F10x_StdPeriph_Driver/src/stm32f10x_rcc.c **** 
 737              		.loc 1 778 1 view .LVU198
 738 000c 7047     		bx	lr
 739              	.L61:
 740 000e 00BF     		.align	2
 741              	.L60:
 742 0010 00100240 		.word	1073876992
 743              		.cfi_endproc
 744              	.LFE43:
 746              		.section	.text.RCC_LSEConfig,"ax",%progbits
 747              		.align	1
 748              		.p2align 2,,3
 749              		.global	RCC_LSEConfig
 750              		.syntax unified
 751              		.thumb
 752              		.thumb_func
 753              		.fpu softvfp
 755              	RCC_LSEConfig:
 756              	.LVL45:
 757              	.LFB44:
 830:../Drivers/STM32F10x_StdPeriph_Driver/src/stm32f10x_rcc.c ****   /* Check the parameters */
 758              		.loc 1 830 1 is_stmt 1 view -0
 759              		.cfi_startproc
 760              		@ args = 0, pretend = 0, frame = 0
 761              		@ frame_needed = 0, uses_anonymous_args = 0
 762              		@ link register save eliminated.
 832:../Drivers/STM32F10x_StdPeriph_Driver/src/stm32f10x_rcc.c ****   /* Reset LSEON and LSEBYP bits before configuring the LSE ------------------*/
 763              		.loc 1 832 3 view .LVU200
 835:../Drivers/STM32F10x_StdPeriph_Driver/src/stm32f10x_rcc.c ****   /* Reset LSEBYP bit */
 764              		.loc 1 835 3 view .LVU201
 835:../Drivers/STM32F10x_StdPeriph_Driver/src/stm32f10x_rcc.c ****   /* Reset LSEBYP bit */
 765              		.loc 1 835 34 is_stmt 0 view .LVU202
 766 0000 0022     		movs	r2, #0
 767 0002 064B     		ldr	r3, .L67
 839:../Drivers/STM32F10x_StdPeriph_Driver/src/stm32f10x_rcc.c ****   {
 768              		.loc 1 839 3 view .LVU203
 769 0004 0128     		cmp	r0, #1
 835:../Drivers/STM32F10x_StdPeriph_Driver/src/stm32f10x_rcc.c ****   /* Reset LSEBYP bit */
 770              		.loc 1 835 34 view .LVU204
 771 0006 1A70     		strb	r2, [r3]
 837:../Drivers/STM32F10x_StdPeriph_Driver/src/stm32f10x_rcc.c ****   /* Configure LSE (RCC_LSE_OFF is already covered by the code section above) */
 772              		.loc 1 837 3 is_stmt 1 view .LVU205
ARM GAS  /tmp/ccF8VtoY.s 			page 41


 837:../Drivers/STM32F10x_StdPeriph_Driver/src/stm32f10x_rcc.c ****   /* Configure LSE (RCC_LSE_OFF is already covered by the code section above) */
 773              		.loc 1 837 34 is_stmt 0 view .LVU206
 774 0008 1A70     		strb	r2, [r3]
 839:../Drivers/STM32F10x_StdPeriph_Driver/src/stm32f10x_rcc.c ****   {
 775              		.loc 1 839 3 is_stmt 1 view .LVU207
 776 000a 05D0     		beq	.L63
 777 000c 0428     		cmp	r0, #4
 778 000e 02D1     		bne	.L66
 848:../Drivers/STM32F10x_StdPeriph_Driver/src/stm32f10x_rcc.c ****       break;            
 779              		.loc 1 848 7 view .LVU208
 848:../Drivers/STM32F10x_StdPeriph_Driver/src/stm32f10x_rcc.c ****       break;            
 780              		.loc 1 848 38 is_stmt 0 view .LVU209
 781 0010 0522     		movs	r2, #5
 782 0012 1A70     		strb	r2, [r3]
 849:../Drivers/STM32F10x_StdPeriph_Driver/src/stm32f10x_rcc.c ****       
 783              		.loc 1 849 7 is_stmt 1 view .LVU210
 854:../Drivers/STM32F10x_StdPeriph_Driver/src/stm32f10x_rcc.c **** 
 784              		.loc 1 854 1 is_stmt 0 view .LVU211
 785 0014 7047     		bx	lr
 786              	.L66:
 787 0016 7047     		bx	lr
 788              	.L63:
 843:../Drivers/STM32F10x_StdPeriph_Driver/src/stm32f10x_rcc.c ****       break;
 789              		.loc 1 843 7 is_stmt 1 view .LVU212
 843:../Drivers/STM32F10x_StdPeriph_Driver/src/stm32f10x_rcc.c ****       break;
 790              		.loc 1 843 38 is_stmt 0 view .LVU213
 791 0018 1870     		strb	r0, [r3]
 844:../Drivers/STM32F10x_StdPeriph_Driver/src/stm32f10x_rcc.c ****       
 792              		.loc 1 844 7 is_stmt 1 view .LVU214
 793 001a 7047     		bx	lr
 794              	.L68:
 795              		.align	2
 796              	.L67:
 797 001c 20100240 		.word	1073877024
 798              		.cfi_endproc
 799              	.LFE44:
 801              		.section	.text.RCC_LSICmd,"ax",%progbits
 802              		.align	1
 803              		.p2align 2,,3
 804              		.global	RCC_LSICmd
 805              		.syntax unified
 806              		.thumb
 807              		.thumb_func
 808              		.fpu softvfp
 810              	RCC_LSICmd:
 811              	.LVL46:
 812              	.LFB45:
 863:../Drivers/STM32F10x_StdPeriph_Driver/src/stm32f10x_rcc.c ****   /* Check the parameters */
 813              		.loc 1 863 1 view -0
 814              		.cfi_startproc
 815              		@ args = 0, pretend = 0, frame = 0
 816              		@ frame_needed = 0, uses_anonymous_args = 0
 817              		@ link register save eliminated.
 865:../Drivers/STM32F10x_StdPeriph_Driver/src/stm32f10x_rcc.c ****   *(__IO uint32_t *) CSR_LSION_BB = (uint32_t)NewState;
 818              		.loc 1 865 3 view .LVU216
 866:../Drivers/STM32F10x_StdPeriph_Driver/src/stm32f10x_rcc.c **** }
 819              		.loc 1 866 3 view .LVU217
ARM GAS  /tmp/ccF8VtoY.s 			page 42


 866:../Drivers/STM32F10x_StdPeriph_Driver/src/stm32f10x_rcc.c **** }
 820              		.loc 1 866 35 is_stmt 0 view .LVU218
 821 0000 014B     		ldr	r3, .L70
 822 0002 1860     		str	r0, [r3]
 867:../Drivers/STM32F10x_StdPeriph_Driver/src/stm32f10x_rcc.c **** 
 823              		.loc 1 867 1 view .LVU219
 824 0004 7047     		bx	lr
 825              	.L71:
 826 0006 00BF     		.align	2
 827              	.L70:
 828 0008 80044242 		.word	1111622784
 829              		.cfi_endproc
 830              	.LFE45:
 832              		.section	.text.RCC_RTCCLKConfig,"ax",%progbits
 833              		.align	1
 834              		.p2align 2,,3
 835              		.global	RCC_RTCCLKConfig
 836              		.syntax unified
 837              		.thumb
 838              		.thumb_func
 839              		.fpu softvfp
 841              	RCC_RTCCLKConfig:
 842              	.LVL47:
 843              	.LFB46:
 880:../Drivers/STM32F10x_StdPeriph_Driver/src/stm32f10x_rcc.c ****   /* Check the parameters */
 844              		.loc 1 880 1 is_stmt 1 view -0
 845              		.cfi_startproc
 846              		@ args = 0, pretend = 0, frame = 0
 847              		@ frame_needed = 0, uses_anonymous_args = 0
 848              		@ link register save eliminated.
 882:../Drivers/STM32F10x_StdPeriph_Driver/src/stm32f10x_rcc.c ****   /* Select the RTC clock source */
 849              		.loc 1 882 3 view .LVU221
 884:../Drivers/STM32F10x_StdPeriph_Driver/src/stm32f10x_rcc.c **** }
 850              		.loc 1 884 3 view .LVU222
 884:../Drivers/STM32F10x_StdPeriph_Driver/src/stm32f10x_rcc.c **** }
 851              		.loc 1 884 13 is_stmt 0 view .LVU223
 852 0000 024A     		ldr	r2, .L73
 853 0002 136A     		ldr	r3, [r2, #32]
 854 0004 0343     		orrs	r3, r3, r0
 855 0006 1362     		str	r3, [r2, #32]
 885:../Drivers/STM32F10x_StdPeriph_Driver/src/stm32f10x_rcc.c **** 
 856              		.loc 1 885 1 view .LVU224
 857 0008 7047     		bx	lr
 858              	.L74:
 859 000a 00BF     		.align	2
 860              	.L73:
 861 000c 00100240 		.word	1073876992
 862              		.cfi_endproc
 863              	.LFE46:
 865              		.section	.text.RCC_RTCCLKCmd,"ax",%progbits
 866              		.align	1
 867              		.p2align 2,,3
 868              		.global	RCC_RTCCLKCmd
 869              		.syntax unified
 870              		.thumb
 871              		.thumb_func
 872              		.fpu softvfp
ARM GAS  /tmp/ccF8VtoY.s 			page 43


 874              	RCC_RTCCLKCmd:
 875              	.LVL48:
 876              	.LFB47:
 894:../Drivers/STM32F10x_StdPeriph_Driver/src/stm32f10x_rcc.c ****   /* Check the parameters */
 877              		.loc 1 894 1 is_stmt 1 view -0
 878              		.cfi_startproc
 879              		@ args = 0, pretend = 0, frame = 0
 880              		@ frame_needed = 0, uses_anonymous_args = 0
 881              		@ link register save eliminated.
 896:../Drivers/STM32F10x_StdPeriph_Driver/src/stm32f10x_rcc.c ****   *(__IO uint32_t *) BDCR_RTCEN_BB = (uint32_t)NewState;
 882              		.loc 1 896 3 view .LVU226
 897:../Drivers/STM32F10x_StdPeriph_Driver/src/stm32f10x_rcc.c **** }
 883              		.loc 1 897 3 view .LVU227
 897:../Drivers/STM32F10x_StdPeriph_Driver/src/stm32f10x_rcc.c **** }
 884              		.loc 1 897 36 is_stmt 0 view .LVU228
 885 0000 014B     		ldr	r3, .L76
 886 0002 1860     		str	r0, [r3]
 898:../Drivers/STM32F10x_StdPeriph_Driver/src/stm32f10x_rcc.c **** 
 887              		.loc 1 898 1 view .LVU229
 888 0004 7047     		bx	lr
 889              	.L77:
 890 0006 00BF     		.align	2
 891              	.L76:
 892 0008 3C044242 		.word	1111622716
 893              		.cfi_endproc
 894              	.LFE47:
 896              		.section	.text.RCC_GetClocksFreq,"ax",%progbits
 897              		.align	1
 898              		.p2align 2,,3
 899              		.global	RCC_GetClocksFreq
 900              		.syntax unified
 901              		.thumb
 902              		.thumb_func
 903              		.fpu softvfp
 905              	RCC_GetClocksFreq:
 906              	.LVL49:
 907              	.LFB48:
 909:../Drivers/STM32F10x_StdPeriph_Driver/src/stm32f10x_rcc.c ****   uint32_t tmp = 0, pllmull = 0, pllsource = 0, presc = 0;
 908              		.loc 1 909 1 is_stmt 1 view -0
 909              		.cfi_startproc
 910              		@ args = 0, pretend = 0, frame = 0
 911              		@ frame_needed = 0, uses_anonymous_args = 0
 912              		@ link register save eliminated.
 910:../Drivers/STM32F10x_StdPeriph_Driver/src/stm32f10x_rcc.c **** 
 913              		.loc 1 910 3 view .LVU231
 921:../Drivers/STM32F10x_StdPeriph_Driver/src/stm32f10x_rcc.c ****   
 914              		.loc 1 921 3 view .LVU232
 921:../Drivers/STM32F10x_StdPeriph_Driver/src/stm32f10x_rcc.c ****   
 915              		.loc 1 921 12 is_stmt 0 view .LVU233
 916 0000 1E4A     		ldr	r2, .L85
 909:../Drivers/STM32F10x_StdPeriph_Driver/src/stm32f10x_rcc.c ****   uint32_t tmp = 0, pllmull = 0, pllsource = 0, presc = 0;
 917              		.loc 1 909 1 view .LVU234
 918 0002 30B4     		push	{r4, r5}
 919              	.LCFI2:
 920              		.cfi_def_cfa_offset 8
 921              		.cfi_offset 4, -8
 922              		.cfi_offset 5, -4
ARM GAS  /tmp/ccF8VtoY.s 			page 44


 921:../Drivers/STM32F10x_StdPeriph_Driver/src/stm32f10x_rcc.c ****   
 923              		.loc 1 921 12 view .LVU235
 924 0004 5368     		ldr	r3, [r2, #4]
 925              	.LVL50:
 923:../Drivers/STM32F10x_StdPeriph_Driver/src/stm32f10x_rcc.c ****   {
 926              		.loc 1 923 3 is_stmt 1 view .LVU236
 921:../Drivers/STM32F10x_StdPeriph_Driver/src/stm32f10x_rcc.c ****   
 927              		.loc 1 921 7 is_stmt 0 view .LVU237
 928 0006 03F00C03 		and	r3, r3, #12
 929              	.LVL51:
 923:../Drivers/STM32F10x_StdPeriph_Driver/src/stm32f10x_rcc.c ****   {
 930              		.loc 1 923 3 view .LVU238
 931 000a 082B     		cmp	r3, #8
 932 000c 20D0     		beq	.L79
 926:../Drivers/STM32F10x_StdPeriph_Driver/src/stm32f10x_rcc.c ****       break;
 933              		.loc 1 926 7 is_stmt 1 view .LVU239
 926:../Drivers/STM32F10x_StdPeriph_Driver/src/stm32f10x_rcc.c ****       break;
 934              		.loc 1 926 36 is_stmt 0 view .LVU240
 935 000e 1C4B     		ldr	r3, .L85+4
 936              	.LVL52:
 926:../Drivers/STM32F10x_StdPeriph_Driver/src/stm32f10x_rcc.c ****       break;
 937              		.loc 1 926 36 view .LVU241
 938 0010 0360     		str	r3, [r0]
 927:../Drivers/STM32F10x_StdPeriph_Driver/src/stm32f10x_rcc.c ****     case 0x04:  /* HSE used as system clock */
 939              		.loc 1 927 7 is_stmt 1 view .LVU242
 940              	.LVL53:
 941              	.L80:
1008:../Drivers/STM32F10x_StdPeriph_Driver/src/stm32f10x_rcc.c ****   tmp = tmp >> 4;
 942              		.loc 1 1008 3 view .LVU243
1008:../Drivers/STM32F10x_StdPeriph_Driver/src/stm32f10x_rcc.c ****   tmp = tmp >> 4;
 943              		.loc 1 1008 12 is_stmt 0 view .LVU244
 944 0012 1A4A     		ldr	r2, .L85
1010:../Drivers/STM32F10x_StdPeriph_Driver/src/stm32f10x_rcc.c ****   /* HCLK clock frequency */
 945              		.loc 1 1010 27 view .LVU245
 946 0014 1B4C     		ldr	r4, .L85+8
1008:../Drivers/STM32F10x_StdPeriph_Driver/src/stm32f10x_rcc.c ****   tmp = tmp >> 4;
 947              		.loc 1 1008 12 view .LVU246
 948 0016 5168     		ldr	r1, [r2, #4]
 949              	.LVL54:
1009:../Drivers/STM32F10x_StdPeriph_Driver/src/stm32f10x_rcc.c ****   presc = APBAHBPrescTable[tmp];
 950              		.loc 1 1009 3 is_stmt 1 view .LVU247
1028:../Drivers/STM32F10x_StdPeriph_Driver/src/stm32f10x_rcc.c ****   /* ADCCLK clock frequency */
 951              		.loc 1 1028 24 is_stmt 0 view .LVU248
 952 0018 1B4D     		ldr	r5, .L85+12
1009:../Drivers/STM32F10x_StdPeriph_Driver/src/stm32f10x_rcc.c ****   presc = APBAHBPrescTable[tmp];
 953              		.loc 1 1009 7 view .LVU249
 954 001a C1F30311 		ubfx	r1, r1, #4, #4
 955              	.LVL55:
1010:../Drivers/STM32F10x_StdPeriph_Driver/src/stm32f10x_rcc.c ****   /* HCLK clock frequency */
 956              		.loc 1 1010 3 is_stmt 1 view .LVU250
1010:../Drivers/STM32F10x_StdPeriph_Driver/src/stm32f10x_rcc.c ****   /* HCLK clock frequency */
 957              		.loc 1 1010 27 is_stmt 0 view .LVU251
 958 001e 615C     		ldrb	r1, [r4, r1]	@ zero_extendqisi2
 959              	.LVL56:
1012:../Drivers/STM32F10x_StdPeriph_Driver/src/stm32f10x_rcc.c ****   /* Get PCLK1 prescaler */
 960              		.loc 1 1012 3 is_stmt 1 view .LVU252
1012:../Drivers/STM32F10x_StdPeriph_Driver/src/stm32f10x_rcc.c ****   /* Get PCLK1 prescaler */
ARM GAS  /tmp/ccF8VtoY.s 			page 45


 961              		.loc 1 1012 61 is_stmt 0 view .LVU253
 962 0020 CB40     		lsrs	r3, r3, r1
1012:../Drivers/STM32F10x_StdPeriph_Driver/src/stm32f10x_rcc.c ****   /* Get PCLK1 prescaler */
 963              		.loc 1 1012 30 view .LVU254
 964 0022 4360     		str	r3, [r0, #4]
1014:../Drivers/STM32F10x_StdPeriph_Driver/src/stm32f10x_rcc.c ****   tmp = tmp >> 8;
 965              		.loc 1 1014 3 is_stmt 1 view .LVU255
1014:../Drivers/STM32F10x_StdPeriph_Driver/src/stm32f10x_rcc.c ****   tmp = tmp >> 8;
 966              		.loc 1 1014 12 is_stmt 0 view .LVU256
 967 0024 5168     		ldr	r1, [r2, #4]
 968              	.LVL57:
1015:../Drivers/STM32F10x_StdPeriph_Driver/src/stm32f10x_rcc.c ****   presc = APBAHBPrescTable[tmp];
 969              		.loc 1 1015 3 is_stmt 1 view .LVU257
1015:../Drivers/STM32F10x_StdPeriph_Driver/src/stm32f10x_rcc.c ****   presc = APBAHBPrescTable[tmp];
 970              		.loc 1 1015 7 is_stmt 0 view .LVU258
 971 0026 C1F30221 		ubfx	r1, r1, #8, #3
 972              	.LVL58:
1016:../Drivers/STM32F10x_StdPeriph_Driver/src/stm32f10x_rcc.c ****   /* PCLK1 clock frequency */
 973              		.loc 1 1016 3 is_stmt 1 view .LVU259
1016:../Drivers/STM32F10x_StdPeriph_Driver/src/stm32f10x_rcc.c ****   /* PCLK1 clock frequency */
 974              		.loc 1 1016 27 is_stmt 0 view .LVU260
 975 002a 615C     		ldrb	r1, [r4, r1]	@ zero_extendqisi2
 976              	.LVL59:
1018:../Drivers/STM32F10x_StdPeriph_Driver/src/stm32f10x_rcc.c ****   /* Get PCLK2 prescaler */
 977              		.loc 1 1018 3 is_stmt 1 view .LVU261
1018:../Drivers/STM32F10x_StdPeriph_Driver/src/stm32f10x_rcc.c ****   /* Get PCLK2 prescaler */
 978              		.loc 1 1018 60 is_stmt 0 view .LVU262
 979 002c 23FA01F1 		lsr	r1, r3, r1
 980              	.LVL60:
1018:../Drivers/STM32F10x_StdPeriph_Driver/src/stm32f10x_rcc.c ****   /* Get PCLK2 prescaler */
 981              		.loc 1 1018 31 view .LVU263
 982 0030 8160     		str	r1, [r0, #8]
1020:../Drivers/STM32F10x_StdPeriph_Driver/src/stm32f10x_rcc.c ****   tmp = tmp >> 11;
 983              		.loc 1 1020 3 is_stmt 1 view .LVU264
1020:../Drivers/STM32F10x_StdPeriph_Driver/src/stm32f10x_rcc.c ****   tmp = tmp >> 11;
 984              		.loc 1 1020 12 is_stmt 0 view .LVU265
 985 0032 5168     		ldr	r1, [r2, #4]
 986              	.LVL61:
1021:../Drivers/STM32F10x_StdPeriph_Driver/src/stm32f10x_rcc.c ****   presc = APBAHBPrescTable[tmp];
 987              		.loc 1 1021 3 is_stmt 1 view .LVU266
1021:../Drivers/STM32F10x_StdPeriph_Driver/src/stm32f10x_rcc.c ****   presc = APBAHBPrescTable[tmp];
 988              		.loc 1 1021 7 is_stmt 0 view .LVU267
 989 0034 C1F3C221 		ubfx	r1, r1, #11, #3
 990              	.LVL62:
1022:../Drivers/STM32F10x_StdPeriph_Driver/src/stm32f10x_rcc.c ****   /* PCLK2 clock frequency */
 991              		.loc 1 1022 3 is_stmt 1 view .LVU268
1022:../Drivers/STM32F10x_StdPeriph_Driver/src/stm32f10x_rcc.c ****   /* PCLK2 clock frequency */
 992              		.loc 1 1022 27 is_stmt 0 view .LVU269
 993 0038 615C     		ldrb	r1, [r4, r1]	@ zero_extendqisi2
 994              	.LVL63:
1024:../Drivers/STM32F10x_StdPeriph_Driver/src/stm32f10x_rcc.c ****   /* Get ADCCLK prescaler */
 995              		.loc 1 1024 3 is_stmt 1 view .LVU270
1024:../Drivers/STM32F10x_StdPeriph_Driver/src/stm32f10x_rcc.c ****   /* Get ADCCLK prescaler */
 996              		.loc 1 1024 60 is_stmt 0 view .LVU271
 997 003a CB40     		lsrs	r3, r3, r1
1024:../Drivers/STM32F10x_StdPeriph_Driver/src/stm32f10x_rcc.c ****   /* Get ADCCLK prescaler */
 998              		.loc 1 1024 31 view .LVU272
ARM GAS  /tmp/ccF8VtoY.s 			page 46


 999 003c C360     		str	r3, [r0, #12]
1026:../Drivers/STM32F10x_StdPeriph_Driver/src/stm32f10x_rcc.c ****   tmp = tmp >> 14;
 1000              		.loc 1 1026 3 is_stmt 1 view .LVU273
1026:../Drivers/STM32F10x_StdPeriph_Driver/src/stm32f10x_rcc.c ****   tmp = tmp >> 14;
 1001              		.loc 1 1026 12 is_stmt 0 view .LVU274
 1002 003e 5268     		ldr	r2, [r2, #4]
 1003              	.LVL64:
1027:../Drivers/STM32F10x_StdPeriph_Driver/src/stm32f10x_rcc.c ****   presc = ADCPrescTable[tmp];
 1004              		.loc 1 1027 3 is_stmt 1 view .LVU275
1027:../Drivers/STM32F10x_StdPeriph_Driver/src/stm32f10x_rcc.c ****   presc = ADCPrescTable[tmp];
 1005              		.loc 1 1027 7 is_stmt 0 view .LVU276
 1006 0040 C2F38132 		ubfx	r2, r2, #14, #2
 1007              	.LVL65:
1028:../Drivers/STM32F10x_StdPeriph_Driver/src/stm32f10x_rcc.c ****   /* ADCCLK clock frequency */
 1008              		.loc 1 1028 3 is_stmt 1 view .LVU277
1028:../Drivers/STM32F10x_StdPeriph_Driver/src/stm32f10x_rcc.c ****   /* ADCCLK clock frequency */
 1009              		.loc 1 1028 24 is_stmt 0 view .LVU278
 1010 0044 AA5C     		ldrb	r2, [r5, r2]	@ zero_extendqisi2
 1011              	.LVL66:
1030:../Drivers/STM32F10x_StdPeriph_Driver/src/stm32f10x_rcc.c **** }
 1012              		.loc 1 1030 3 is_stmt 1 view .LVU279
1031:../Drivers/STM32F10x_StdPeriph_Driver/src/stm32f10x_rcc.c **** 
 1013              		.loc 1 1031 1 is_stmt 0 view .LVU280
 1014 0046 30BC     		pop	{r4, r5}
 1015              	.LCFI3:
 1016              		.cfi_remember_state
 1017              		.cfi_restore 5
 1018              		.cfi_restore 4
 1019              		.cfi_def_cfa_offset 0
1030:../Drivers/STM32F10x_StdPeriph_Driver/src/stm32f10x_rcc.c **** }
 1020              		.loc 1 1030 62 view .LVU281
 1021 0048 B3FBF2F3 		udiv	r3, r3, r2
1030:../Drivers/STM32F10x_StdPeriph_Driver/src/stm32f10x_rcc.c **** }
 1022              		.loc 1 1030 32 view .LVU282
 1023 004c 0361     		str	r3, [r0, #16]
1031:../Drivers/STM32F10x_StdPeriph_Driver/src/stm32f10x_rcc.c **** 
 1024              		.loc 1 1031 1 view .LVU283
 1025 004e 7047     		bx	lr
 1026              	.LVL67:
 1027              	.L79:
 1028              	.LCFI4:
 1029              		.cfi_restore_state
 934:../Drivers/STM32F10x_StdPeriph_Driver/src/stm32f10x_rcc.c ****       pllsource = RCC->CFGR & CFGR_PLLSRC_Mask;
 1030              		.loc 1 934 7 is_stmt 1 view .LVU284
 934:../Drivers/STM32F10x_StdPeriph_Driver/src/stm32f10x_rcc.c ****       pllsource = RCC->CFGR & CFGR_PLLSRC_Mask;
 1031              		.loc 1 934 20 is_stmt 0 view .LVU285
 1032 0050 5368     		ldr	r3, [r2, #4]
 1033              	.LVL68:
 935:../Drivers/STM32F10x_StdPeriph_Driver/src/stm32f10x_rcc.c ****       
 1034              		.loc 1 935 7 is_stmt 1 view .LVU286
 935:../Drivers/STM32F10x_StdPeriph_Driver/src/stm32f10x_rcc.c ****       
 1035              		.loc 1 935 22 is_stmt 0 view .LVU287
 1036 0052 5168     		ldr	r1, [r2, #4]
 1037              	.LVL69:
 938:../Drivers/STM32F10x_StdPeriph_Driver/src/stm32f10x_rcc.c ****       
 1038              		.loc 1 938 7 is_stmt 1 view .LVU288
 938:../Drivers/STM32F10x_StdPeriph_Driver/src/stm32f10x_rcc.c ****       
ARM GAS  /tmp/ccF8VtoY.s 			page 47


 1039              		.loc 1 938 27 is_stmt 0 view .LVU289
 1040 0054 C3F38343 		ubfx	r3, r3, #18, #4
 1041              	.LVL70:
 940:../Drivers/STM32F10x_StdPeriph_Driver/src/stm32f10x_rcc.c ****       {/* HSI oscillator clock divided by 2 selected as PLL clock entry */
 1042              		.loc 1 940 10 view .LVU290
 1043 0058 C903     		lsls	r1, r1, #15
 1044              	.LVL71:
 938:../Drivers/STM32F10x_StdPeriph_Driver/src/stm32f10x_rcc.c ****       
 1045              		.loc 1 938 15 view .LVU291
 1046 005a 03F10203 		add	r3, r3, #2
 1047              	.LVL72:
 940:../Drivers/STM32F10x_StdPeriph_Driver/src/stm32f10x_rcc.c ****       {/* HSI oscillator clock divided by 2 selected as PLL clock entry */
 1048              		.loc 1 940 7 is_stmt 1 view .LVU292
 940:../Drivers/STM32F10x_StdPeriph_Driver/src/stm32f10x_rcc.c ****       {/* HSI oscillator clock divided by 2 selected as PLL clock entry */
 1049              		.loc 1 940 10 is_stmt 0 view .LVU293
 1050 005e 07D5     		bpl	.L84
 952:../Drivers/STM32F10x_StdPeriph_Driver/src/stm32f10x_rcc.c ****         {/* HSE oscillator clock divided by 2 */
 1051              		.loc 1 952 9 is_stmt 1 view .LVU294
 952:../Drivers/STM32F10x_StdPeriph_Driver/src/stm32f10x_rcc.c ****         {/* HSE oscillator clock divided by 2 */
 1052              		.loc 1 952 17 is_stmt 0 view .LVU295
 1053 0060 5268     		ldr	r2, [r2, #4]
 952:../Drivers/STM32F10x_StdPeriph_Driver/src/stm32f10x_rcc.c ****         {/* HSE oscillator clock divided by 2 */
 1054              		.loc 1 952 12 view .LVU296
 1055 0062 9203     		lsls	r2, r2, #14
 1056 0064 04D4     		bmi	.L84
 958:../Drivers/STM32F10x_StdPeriph_Driver/src/stm32f10x_rcc.c ****         }
 1057              		.loc 1 958 11 is_stmt 1 view .LVU297
 958:../Drivers/STM32F10x_StdPeriph_Driver/src/stm32f10x_rcc.c ****         }
 1058              		.loc 1 958 52 is_stmt 0 view .LVU298
 1059 0066 064A     		ldr	r2, .L85+4
 1060 0068 02FB03F3 		mul	r3, r2, r3
 1061              	.LVL73:
 958:../Drivers/STM32F10x_StdPeriph_Driver/src/stm32f10x_rcc.c ****         }
 1062              		.loc 1 958 40 view .LVU299
 1063 006c 0360     		str	r3, [r0]
 1064 006e D0E7     		b	.L80
 1065              	.LVL74:
 1066              	.L84:
 954:../Drivers/STM32F10x_StdPeriph_Driver/src/stm32f10x_rcc.c ****         }
 1067              		.loc 1 954 11 is_stmt 1 view .LVU300
 954:../Drivers/STM32F10x_StdPeriph_Driver/src/stm32f10x_rcc.c ****         }
 1068              		.loc 1 954 59 is_stmt 0 view .LVU301
 1069 0070 064A     		ldr	r2, .L85+16
 1070 0072 02FB03F3 		mul	r3, r2, r3
 1071              	.LVL75:
 954:../Drivers/STM32F10x_StdPeriph_Driver/src/stm32f10x_rcc.c ****         }
 1072              		.loc 1 954 40 view .LVU302
 1073 0076 0360     		str	r3, [r0]
 1074 0078 CBE7     		b	.L80
 1075              	.L86:
 1076 007a 00BF     		.align	2
 1077              	.L85:
 1078 007c 00100240 		.word	1073876992
 1079 0080 00127A00 		.word	8000000
 1080 0084 00000000 		.word	.LANCHOR0
 1081 0088 00000000 		.word	.LANCHOR1
 1082 008c 00093D00 		.word	4000000
ARM GAS  /tmp/ccF8VtoY.s 			page 48


 1083              		.cfi_endproc
 1084              	.LFE48:
 1086              		.section	.text.RCC_AHBPeriphClockCmd,"ax",%progbits
 1087              		.align	1
 1088              		.p2align 2,,3
 1089              		.global	RCC_AHBPeriphClockCmd
 1090              		.syntax unified
 1091              		.thumb
 1092              		.thumb_func
 1093              		.fpu softvfp
 1095              	RCC_AHBPeriphClockCmd:
 1096              	.LVL76:
 1097              	.LFB49:
1065:../Drivers/STM32F10x_StdPeriph_Driver/src/stm32f10x_rcc.c ****   /* Check the parameters */
 1098              		.loc 1 1065 1 is_stmt 1 view -0
 1099              		.cfi_startproc
 1100              		@ args = 0, pretend = 0, frame = 0
 1101              		@ frame_needed = 0, uses_anonymous_args = 0
 1102              		@ link register save eliminated.
1067:../Drivers/STM32F10x_StdPeriph_Driver/src/stm32f10x_rcc.c ****   assert_param(IS_FUNCTIONAL_STATE(NewState));
 1103              		.loc 1 1067 3 view .LVU304
1068:../Drivers/STM32F10x_StdPeriph_Driver/src/stm32f10x_rcc.c **** 
 1104              		.loc 1 1068 3 view .LVU305
1070:../Drivers/STM32F10x_StdPeriph_Driver/src/stm32f10x_rcc.c ****   {
 1105              		.loc 1 1070 3 view .LVU306
1072:../Drivers/STM32F10x_StdPeriph_Driver/src/stm32f10x_rcc.c ****   }
 1106              		.loc 1 1072 17 is_stmt 0 view .LVU307
 1107 0000 044A     		ldr	r2, .L90
 1108 0002 5369     		ldr	r3, [r2, #20]
1070:../Drivers/STM32F10x_StdPeriph_Driver/src/stm32f10x_rcc.c ****   {
 1109              		.loc 1 1070 6 view .LVU308
 1110 0004 11B1     		cbz	r1, .L88
1072:../Drivers/STM32F10x_StdPeriph_Driver/src/stm32f10x_rcc.c ****   }
 1111              		.loc 1 1072 5 is_stmt 1 view .LVU309
1072:../Drivers/STM32F10x_StdPeriph_Driver/src/stm32f10x_rcc.c ****   }
 1112              		.loc 1 1072 17 is_stmt 0 view .LVU310
 1113 0006 1843     		orrs	r0, r0, r3
 1114              	.LVL77:
1072:../Drivers/STM32F10x_StdPeriph_Driver/src/stm32f10x_rcc.c ****   }
 1115              		.loc 1 1072 17 view .LVU311
 1116 0008 5061     		str	r0, [r2, #20]
 1117 000a 7047     		bx	lr
 1118              	.LVL78:
 1119              	.L88:
1076:../Drivers/STM32F10x_StdPeriph_Driver/src/stm32f10x_rcc.c ****   }
 1120              		.loc 1 1076 5 is_stmt 1 view .LVU312
1076:../Drivers/STM32F10x_StdPeriph_Driver/src/stm32f10x_rcc.c ****   }
 1121              		.loc 1 1076 17 is_stmt 0 view .LVU313
 1122 000c 23EA0000 		bic	r0, r3, r0
 1123              	.LVL79:
1076:../Drivers/STM32F10x_StdPeriph_Driver/src/stm32f10x_rcc.c ****   }
 1124              		.loc 1 1076 17 view .LVU314
 1125 0010 5061     		str	r0, [r2, #20]
1078:../Drivers/STM32F10x_StdPeriph_Driver/src/stm32f10x_rcc.c **** 
 1126              		.loc 1 1078 1 view .LVU315
 1127 0012 7047     		bx	lr
 1128              	.L91:
ARM GAS  /tmp/ccF8VtoY.s 			page 49


 1129              		.align	2
 1130              	.L90:
 1131 0014 00100240 		.word	1073876992
 1132              		.cfi_endproc
 1133              	.LFE49:
 1135              		.section	.text.RCC_APB2PeriphClockCmd,"ax",%progbits
 1136              		.align	1
 1137              		.p2align 2,,3
 1138              		.global	RCC_APB2PeriphClockCmd
 1139              		.syntax unified
 1140              		.thumb
 1141              		.thumb_func
 1142              		.fpu softvfp
 1144              	RCC_APB2PeriphClockCmd:
 1145              	.LVL80:
 1146              	.LFB50:
1096:../Drivers/STM32F10x_StdPeriph_Driver/src/stm32f10x_rcc.c ****   /* Check the parameters */
 1147              		.loc 1 1096 1 is_stmt 1 view -0
 1148              		.cfi_startproc
 1149              		@ args = 0, pretend = 0, frame = 0
 1150              		@ frame_needed = 0, uses_anonymous_args = 0
 1151              		@ link register save eliminated.
1098:../Drivers/STM32F10x_StdPeriph_Driver/src/stm32f10x_rcc.c ****   assert_param(IS_FUNCTIONAL_STATE(NewState));
 1152              		.loc 1 1098 3 view .LVU317
1099:../Drivers/STM32F10x_StdPeriph_Driver/src/stm32f10x_rcc.c ****   if (NewState != DISABLE)
 1153              		.loc 1 1099 3 view .LVU318
1100:../Drivers/STM32F10x_StdPeriph_Driver/src/stm32f10x_rcc.c ****   {
 1154              		.loc 1 1100 3 view .LVU319
1102:../Drivers/STM32F10x_StdPeriph_Driver/src/stm32f10x_rcc.c ****   }
 1155              		.loc 1 1102 18 is_stmt 0 view .LVU320
 1156 0000 044A     		ldr	r2, .L95
 1157 0002 9369     		ldr	r3, [r2, #24]
1100:../Drivers/STM32F10x_StdPeriph_Driver/src/stm32f10x_rcc.c ****   {
 1158              		.loc 1 1100 6 view .LVU321
 1159 0004 11B1     		cbz	r1, .L93
1102:../Drivers/STM32F10x_StdPeriph_Driver/src/stm32f10x_rcc.c ****   }
 1160              		.loc 1 1102 5 is_stmt 1 view .LVU322
1102:../Drivers/STM32F10x_StdPeriph_Driver/src/stm32f10x_rcc.c ****   }
 1161              		.loc 1 1102 18 is_stmt 0 view .LVU323
 1162 0006 1843     		orrs	r0, r0, r3
 1163              	.LVL81:
1102:../Drivers/STM32F10x_StdPeriph_Driver/src/stm32f10x_rcc.c ****   }
 1164              		.loc 1 1102 18 view .LVU324
 1165 0008 9061     		str	r0, [r2, #24]
 1166 000a 7047     		bx	lr
 1167              	.LVL82:
 1168              	.L93:
1106:../Drivers/STM32F10x_StdPeriph_Driver/src/stm32f10x_rcc.c ****   }
 1169              		.loc 1 1106 5 is_stmt 1 view .LVU325
1106:../Drivers/STM32F10x_StdPeriph_Driver/src/stm32f10x_rcc.c ****   }
 1170              		.loc 1 1106 18 is_stmt 0 view .LVU326
 1171 000c 23EA0000 		bic	r0, r3, r0
 1172              	.LVL83:
1106:../Drivers/STM32F10x_StdPeriph_Driver/src/stm32f10x_rcc.c ****   }
 1173              		.loc 1 1106 18 view .LVU327
 1174 0010 9061     		str	r0, [r2, #24]
1108:../Drivers/STM32F10x_StdPeriph_Driver/src/stm32f10x_rcc.c **** 
ARM GAS  /tmp/ccF8VtoY.s 			page 50


 1175              		.loc 1 1108 1 view .LVU328
 1176 0012 7047     		bx	lr
 1177              	.L96:
 1178              		.align	2
 1179              	.L95:
 1180 0014 00100240 		.word	1073876992
 1181              		.cfi_endproc
 1182              	.LFE50:
 1184              		.section	.text.RCC_APB1PeriphClockCmd,"ax",%progbits
 1185              		.align	1
 1186              		.p2align 2,,3
 1187              		.global	RCC_APB1PeriphClockCmd
 1188              		.syntax unified
 1189              		.thumb
 1190              		.thumb_func
 1191              		.fpu softvfp
 1193              	RCC_APB1PeriphClockCmd:
 1194              	.LVL84:
 1195              	.LFB51:
1127:../Drivers/STM32F10x_StdPeriph_Driver/src/stm32f10x_rcc.c ****   /* Check the parameters */
 1196              		.loc 1 1127 1 is_stmt 1 view -0
 1197              		.cfi_startproc
 1198              		@ args = 0, pretend = 0, frame = 0
 1199              		@ frame_needed = 0, uses_anonymous_args = 0
 1200              		@ link register save eliminated.
1129:../Drivers/STM32F10x_StdPeriph_Driver/src/stm32f10x_rcc.c ****   assert_param(IS_FUNCTIONAL_STATE(NewState));
 1201              		.loc 1 1129 3 view .LVU330
1130:../Drivers/STM32F10x_StdPeriph_Driver/src/stm32f10x_rcc.c ****   if (NewState != DISABLE)
 1202              		.loc 1 1130 3 view .LVU331
1131:../Drivers/STM32F10x_StdPeriph_Driver/src/stm32f10x_rcc.c ****   {
 1203              		.loc 1 1131 3 view .LVU332
1133:../Drivers/STM32F10x_StdPeriph_Driver/src/stm32f10x_rcc.c ****   }
 1204              		.loc 1 1133 18 is_stmt 0 view .LVU333
 1205 0000 044A     		ldr	r2, .L100
 1206 0002 D369     		ldr	r3, [r2, #28]
1131:../Drivers/STM32F10x_StdPeriph_Driver/src/stm32f10x_rcc.c ****   {
 1207              		.loc 1 1131 6 view .LVU334
 1208 0004 11B1     		cbz	r1, .L98
1133:../Drivers/STM32F10x_StdPeriph_Driver/src/stm32f10x_rcc.c ****   }
 1209              		.loc 1 1133 5 is_stmt 1 view .LVU335
1133:../Drivers/STM32F10x_StdPeriph_Driver/src/stm32f10x_rcc.c ****   }
 1210              		.loc 1 1133 18 is_stmt 0 view .LVU336
 1211 0006 1843     		orrs	r0, r0, r3
 1212              	.LVL85:
1133:../Drivers/STM32F10x_StdPeriph_Driver/src/stm32f10x_rcc.c ****   }
 1213              		.loc 1 1133 18 view .LVU337
 1214 0008 D061     		str	r0, [r2, #28]
 1215 000a 7047     		bx	lr
 1216              	.LVL86:
 1217              	.L98:
1137:../Drivers/STM32F10x_StdPeriph_Driver/src/stm32f10x_rcc.c ****   }
 1218              		.loc 1 1137 5 is_stmt 1 view .LVU338
1137:../Drivers/STM32F10x_StdPeriph_Driver/src/stm32f10x_rcc.c ****   }
 1219              		.loc 1 1137 18 is_stmt 0 view .LVU339
 1220 000c 23EA0000 		bic	r0, r3, r0
 1221              	.LVL87:
1137:../Drivers/STM32F10x_StdPeriph_Driver/src/stm32f10x_rcc.c ****   }
ARM GAS  /tmp/ccF8VtoY.s 			page 51


 1222              		.loc 1 1137 18 view .LVU340
 1223 0010 D061     		str	r0, [r2, #28]
1139:../Drivers/STM32F10x_StdPeriph_Driver/src/stm32f10x_rcc.c **** 
 1224              		.loc 1 1139 1 view .LVU341
 1225 0012 7047     		bx	lr
 1226              	.L101:
 1227              		.align	2
 1228              	.L100:
 1229 0014 00100240 		.word	1073876992
 1230              		.cfi_endproc
 1231              	.LFE51:
 1233              		.section	.text.RCC_APB2PeriphResetCmd,"ax",%progbits
 1234              		.align	1
 1235              		.p2align 2,,3
 1236              		.global	RCC_APB2PeriphResetCmd
 1237              		.syntax unified
 1238              		.thumb
 1239              		.thumb_func
 1240              		.fpu softvfp
 1242              	RCC_APB2PeriphResetCmd:
 1243              	.LVL88:
 1244              	.LFB52:
1186:../Drivers/STM32F10x_StdPeriph_Driver/src/stm32f10x_rcc.c ****   /* Check the parameters */
 1245              		.loc 1 1186 1 is_stmt 1 view -0
 1246              		.cfi_startproc
 1247              		@ args = 0, pretend = 0, frame = 0
 1248              		@ frame_needed = 0, uses_anonymous_args = 0
 1249              		@ link register save eliminated.
1188:../Drivers/STM32F10x_StdPeriph_Driver/src/stm32f10x_rcc.c ****   assert_param(IS_FUNCTIONAL_STATE(NewState));
 1250              		.loc 1 1188 3 view .LVU343
1189:../Drivers/STM32F10x_StdPeriph_Driver/src/stm32f10x_rcc.c ****   if (NewState != DISABLE)
 1251              		.loc 1 1189 3 view .LVU344
1190:../Drivers/STM32F10x_StdPeriph_Driver/src/stm32f10x_rcc.c ****   {
 1252              		.loc 1 1190 3 view .LVU345
1192:../Drivers/STM32F10x_StdPeriph_Driver/src/stm32f10x_rcc.c ****   }
 1253              		.loc 1 1192 19 is_stmt 0 view .LVU346
 1254 0000 044A     		ldr	r2, .L105
 1255 0002 D368     		ldr	r3, [r2, #12]
1190:../Drivers/STM32F10x_StdPeriph_Driver/src/stm32f10x_rcc.c ****   {
 1256              		.loc 1 1190 6 view .LVU347
 1257 0004 11B1     		cbz	r1, .L103
1192:../Drivers/STM32F10x_StdPeriph_Driver/src/stm32f10x_rcc.c ****   }
 1258              		.loc 1 1192 5 is_stmt 1 view .LVU348
1192:../Drivers/STM32F10x_StdPeriph_Driver/src/stm32f10x_rcc.c ****   }
 1259              		.loc 1 1192 19 is_stmt 0 view .LVU349
 1260 0006 1843     		orrs	r0, r0, r3
 1261              	.LVL89:
1192:../Drivers/STM32F10x_StdPeriph_Driver/src/stm32f10x_rcc.c ****   }
 1262              		.loc 1 1192 19 view .LVU350
 1263 0008 D060     		str	r0, [r2, #12]
 1264 000a 7047     		bx	lr
 1265              	.LVL90:
 1266              	.L103:
1196:../Drivers/STM32F10x_StdPeriph_Driver/src/stm32f10x_rcc.c ****   }
 1267              		.loc 1 1196 5 is_stmt 1 view .LVU351
1196:../Drivers/STM32F10x_StdPeriph_Driver/src/stm32f10x_rcc.c ****   }
 1268              		.loc 1 1196 19 is_stmt 0 view .LVU352
ARM GAS  /tmp/ccF8VtoY.s 			page 52


 1269 000c 23EA0000 		bic	r0, r3, r0
 1270              	.LVL91:
1196:../Drivers/STM32F10x_StdPeriph_Driver/src/stm32f10x_rcc.c ****   }
 1271              		.loc 1 1196 19 view .LVU353
 1272 0010 D060     		str	r0, [r2, #12]
1198:../Drivers/STM32F10x_StdPeriph_Driver/src/stm32f10x_rcc.c **** 
 1273              		.loc 1 1198 1 view .LVU354
 1274 0012 7047     		bx	lr
 1275              	.L106:
 1276              		.align	2
 1277              	.L105:
 1278 0014 00100240 		.word	1073876992
 1279              		.cfi_endproc
 1280              	.LFE52:
 1282              		.section	.text.RCC_APB1PeriphResetCmd,"ax",%progbits
 1283              		.align	1
 1284              		.p2align 2,,3
 1285              		.global	RCC_APB1PeriphResetCmd
 1286              		.syntax unified
 1287              		.thumb
 1288              		.thumb_func
 1289              		.fpu softvfp
 1291              	RCC_APB1PeriphResetCmd:
 1292              	.LVL92:
 1293              	.LFB53:
1217:../Drivers/STM32F10x_StdPeriph_Driver/src/stm32f10x_rcc.c ****   /* Check the parameters */
 1294              		.loc 1 1217 1 is_stmt 1 view -0
 1295              		.cfi_startproc
 1296              		@ args = 0, pretend = 0, frame = 0
 1297              		@ frame_needed = 0, uses_anonymous_args = 0
 1298              		@ link register save eliminated.
1219:../Drivers/STM32F10x_StdPeriph_Driver/src/stm32f10x_rcc.c ****   assert_param(IS_FUNCTIONAL_STATE(NewState));
 1299              		.loc 1 1219 3 view .LVU356
1220:../Drivers/STM32F10x_StdPeriph_Driver/src/stm32f10x_rcc.c ****   if (NewState != DISABLE)
 1300              		.loc 1 1220 3 view .LVU357
1221:../Drivers/STM32F10x_StdPeriph_Driver/src/stm32f10x_rcc.c ****   {
 1301              		.loc 1 1221 3 view .LVU358
1223:../Drivers/STM32F10x_StdPeriph_Driver/src/stm32f10x_rcc.c ****   }
 1302              		.loc 1 1223 19 is_stmt 0 view .LVU359
 1303 0000 044A     		ldr	r2, .L110
 1304 0002 1369     		ldr	r3, [r2, #16]
1221:../Drivers/STM32F10x_StdPeriph_Driver/src/stm32f10x_rcc.c ****   {
 1305              		.loc 1 1221 6 view .LVU360
 1306 0004 11B1     		cbz	r1, .L108
1223:../Drivers/STM32F10x_StdPeriph_Driver/src/stm32f10x_rcc.c ****   }
 1307              		.loc 1 1223 5 is_stmt 1 view .LVU361
1223:../Drivers/STM32F10x_StdPeriph_Driver/src/stm32f10x_rcc.c ****   }
 1308              		.loc 1 1223 19 is_stmt 0 view .LVU362
 1309 0006 1843     		orrs	r0, r0, r3
 1310              	.LVL93:
1223:../Drivers/STM32F10x_StdPeriph_Driver/src/stm32f10x_rcc.c ****   }
 1311              		.loc 1 1223 19 view .LVU363
 1312 0008 1061     		str	r0, [r2, #16]
 1313 000a 7047     		bx	lr
 1314              	.LVL94:
 1315              	.L108:
1227:../Drivers/STM32F10x_StdPeriph_Driver/src/stm32f10x_rcc.c ****   }
ARM GAS  /tmp/ccF8VtoY.s 			page 53


 1316              		.loc 1 1227 5 is_stmt 1 view .LVU364
1227:../Drivers/STM32F10x_StdPeriph_Driver/src/stm32f10x_rcc.c ****   }
 1317              		.loc 1 1227 19 is_stmt 0 view .LVU365
 1318 000c 23EA0000 		bic	r0, r3, r0
 1319              	.LVL95:
1227:../Drivers/STM32F10x_StdPeriph_Driver/src/stm32f10x_rcc.c ****   }
 1320              		.loc 1 1227 19 view .LVU366
 1321 0010 1061     		str	r0, [r2, #16]
1229:../Drivers/STM32F10x_StdPeriph_Driver/src/stm32f10x_rcc.c **** 
 1322              		.loc 1 1229 1 view .LVU367
 1323 0012 7047     		bx	lr
 1324              	.L111:
 1325              		.align	2
 1326              	.L110:
 1327 0014 00100240 		.word	1073876992
 1328              		.cfi_endproc
 1329              	.LFE53:
 1331              		.section	.text.RCC_BackupResetCmd,"ax",%progbits
 1332              		.align	1
 1333              		.p2align 2,,3
 1334              		.global	RCC_BackupResetCmd
 1335              		.syntax unified
 1336              		.thumb
 1337              		.thumb_func
 1338              		.fpu softvfp
 1340              	RCC_BackupResetCmd:
 1341              	.LVL96:
 1342              	.LFB54:
1238:../Drivers/STM32F10x_StdPeriph_Driver/src/stm32f10x_rcc.c ****   /* Check the parameters */
 1343              		.loc 1 1238 1 is_stmt 1 view -0
 1344              		.cfi_startproc
 1345              		@ args = 0, pretend = 0, frame = 0
 1346              		@ frame_needed = 0, uses_anonymous_args = 0
 1347              		@ link register save eliminated.
1240:../Drivers/STM32F10x_StdPeriph_Driver/src/stm32f10x_rcc.c ****   *(__IO uint32_t *) BDCR_BDRST_BB = (uint32_t)NewState;
 1348              		.loc 1 1240 3 view .LVU369
1241:../Drivers/STM32F10x_StdPeriph_Driver/src/stm32f10x_rcc.c **** }
 1349              		.loc 1 1241 3 view .LVU370
1241:../Drivers/STM32F10x_StdPeriph_Driver/src/stm32f10x_rcc.c **** }
 1350              		.loc 1 1241 36 is_stmt 0 view .LVU371
 1351 0000 014B     		ldr	r3, .L113
 1352 0002 1860     		str	r0, [r3]
1242:../Drivers/STM32F10x_StdPeriph_Driver/src/stm32f10x_rcc.c **** 
 1353              		.loc 1 1242 1 view .LVU372
 1354 0004 7047     		bx	lr
 1355              	.L114:
 1356 0006 00BF     		.align	2
 1357              	.L113:
 1358 0008 40044242 		.word	1111622720
 1359              		.cfi_endproc
 1360              	.LFE54:
 1362              		.section	.text.RCC_ClockSecuritySystemCmd,"ax",%progbits
 1363              		.align	1
 1364              		.p2align 2,,3
 1365              		.global	RCC_ClockSecuritySystemCmd
 1366              		.syntax unified
 1367              		.thumb
ARM GAS  /tmp/ccF8VtoY.s 			page 54


 1368              		.thumb_func
 1369              		.fpu softvfp
 1371              	RCC_ClockSecuritySystemCmd:
 1372              	.LVL97:
 1373              	.LFB55:
1251:../Drivers/STM32F10x_StdPeriph_Driver/src/stm32f10x_rcc.c ****   /* Check the parameters */
 1374              		.loc 1 1251 1 is_stmt 1 view -0
 1375              		.cfi_startproc
 1376              		@ args = 0, pretend = 0, frame = 0
 1377              		@ frame_needed = 0, uses_anonymous_args = 0
 1378              		@ link register save eliminated.
1253:../Drivers/STM32F10x_StdPeriph_Driver/src/stm32f10x_rcc.c ****   *(__IO uint32_t *) CR_CSSON_BB = (uint32_t)NewState;
 1379              		.loc 1 1253 3 view .LVU374
1254:../Drivers/STM32F10x_StdPeriph_Driver/src/stm32f10x_rcc.c **** }
 1380              		.loc 1 1254 3 view .LVU375
1254:../Drivers/STM32F10x_StdPeriph_Driver/src/stm32f10x_rcc.c **** }
 1381              		.loc 1 1254 34 is_stmt 0 view .LVU376
 1382 0000 014B     		ldr	r3, .L116
 1383 0002 1860     		str	r0, [r3]
1255:../Drivers/STM32F10x_StdPeriph_Driver/src/stm32f10x_rcc.c **** 
 1384              		.loc 1 1255 1 view .LVU377
 1385 0004 7047     		bx	lr
 1386              	.L117:
 1387 0006 00BF     		.align	2
 1388              	.L116:
 1389 0008 4C004242 		.word	1111621708
 1390              		.cfi_endproc
 1391              	.LFE55:
 1393              		.section	.text.RCC_MCOConfig,"ax",%progbits
 1394              		.align	1
 1395              		.p2align 2,,3
 1396              		.global	RCC_MCOConfig
 1397              		.syntax unified
 1398              		.thumb
 1399              		.thumb_func
 1400              		.fpu softvfp
 1402              	RCC_MCOConfig:
 1403              	.LVL98:
 1404              	.LFB56:
1283:../Drivers/STM32F10x_StdPeriph_Driver/src/stm32f10x_rcc.c ****   /* Check the parameters */
 1405              		.loc 1 1283 1 is_stmt 1 view -0
 1406              		.cfi_startproc
 1407              		@ args = 0, pretend = 0, frame = 0
 1408              		@ frame_needed = 0, uses_anonymous_args = 0
 1409              		@ link register save eliminated.
1285:../Drivers/STM32F10x_StdPeriph_Driver/src/stm32f10x_rcc.c **** 
 1410              		.loc 1 1285 3 view .LVU379
1288:../Drivers/STM32F10x_StdPeriph_Driver/src/stm32f10x_rcc.c **** }
 1411              		.loc 1 1288 3 view .LVU380
1288:../Drivers/STM32F10x_StdPeriph_Driver/src/stm32f10x_rcc.c **** }
 1412              		.loc 1 1288 40 is_stmt 0 view .LVU381
 1413 0000 014B     		ldr	r3, .L119
 1414 0002 1870     		strb	r0, [r3]
1289:../Drivers/STM32F10x_StdPeriph_Driver/src/stm32f10x_rcc.c **** 
 1415              		.loc 1 1289 1 view .LVU382
 1416 0004 7047     		bx	lr
 1417              	.L120:
ARM GAS  /tmp/ccF8VtoY.s 			page 55


 1418 0006 00BF     		.align	2
 1419              	.L119:
 1420 0008 07100240 		.word	1073876999
 1421              		.cfi_endproc
 1422              	.LFE56:
 1424              		.section	.text.RCC_GetFlagStatus,"ax",%progbits
 1425              		.align	1
 1426              		.p2align 2,,3
 1427              		.global	RCC_GetFlagStatus
 1428              		.syntax unified
 1429              		.thumb
 1430              		.thumb_func
 1431              		.fpu softvfp
 1433              	RCC_GetFlagStatus:
 1434              	.LVL99:
 1435              	.LFB57:
1327:../Drivers/STM32F10x_StdPeriph_Driver/src/stm32f10x_rcc.c ****   uint32_t tmp = 0;
 1436              		.loc 1 1327 1 is_stmt 1 view -0
 1437              		.cfi_startproc
 1438              		@ args = 0, pretend = 0, frame = 0
 1439              		@ frame_needed = 0, uses_anonymous_args = 0
 1440              		@ link register save eliminated.
1328:../Drivers/STM32F10x_StdPeriph_Driver/src/stm32f10x_rcc.c ****   uint32_t statusreg = 0;
 1441              		.loc 1 1328 3 view .LVU384
1329:../Drivers/STM32F10x_StdPeriph_Driver/src/stm32f10x_rcc.c ****   FlagStatus bitstatus = RESET;
 1442              		.loc 1 1329 3 view .LVU385
1330:../Drivers/STM32F10x_StdPeriph_Driver/src/stm32f10x_rcc.c ****   /* Check the parameters */
 1443              		.loc 1 1330 3 view .LVU386
1332:../Drivers/STM32F10x_StdPeriph_Driver/src/stm32f10x_rcc.c **** 
 1444              		.loc 1 1332 3 view .LVU387
1335:../Drivers/STM32F10x_StdPeriph_Driver/src/stm32f10x_rcc.c ****   if (tmp == 1)               /* The flag to check is in CR register */
 1445              		.loc 1 1335 3 view .LVU388
1335:../Drivers/STM32F10x_StdPeriph_Driver/src/stm32f10x_rcc.c ****   if (tmp == 1)               /* The flag to check is in CR register */
 1446              		.loc 1 1335 18 is_stmt 0 view .LVU389
 1447 0000 4309     		lsrs	r3, r0, #5
 1448              	.LVL100:
1336:../Drivers/STM32F10x_StdPeriph_Driver/src/stm32f10x_rcc.c ****   {
 1449              		.loc 1 1336 3 is_stmt 1 view .LVU390
1336:../Drivers/STM32F10x_StdPeriph_Driver/src/stm32f10x_rcc.c ****   {
 1450              		.loc 1 1336 6 is_stmt 0 view .LVU391
 1451 0002 012B     		cmp	r3, #1
 1452 0004 0BD0     		beq	.L125
1340:../Drivers/STM32F10x_StdPeriph_Driver/src/stm32f10x_rcc.c ****   {
 1453              		.loc 1 1340 8 is_stmt 1 view .LVU392
1340:../Drivers/STM32F10x_StdPeriph_Driver/src/stm32f10x_rcc.c ****   {
 1454              		.loc 1 1340 11 is_stmt 0 view .LVU393
 1455 0006 022B     		cmp	r3, #2
1342:../Drivers/STM32F10x_StdPeriph_Driver/src/stm32f10x_rcc.c ****   }
 1456              		.loc 1 1342 15 view .LVU394
 1457 0008 094B     		ldr	r3, .L126
 1458              	.LVL101:
1342:../Drivers/STM32F10x_StdPeriph_Driver/src/stm32f10x_rcc.c ****   }
 1459              		.loc 1 1342 5 is_stmt 1 view .LVU395
1350:../Drivers/STM32F10x_StdPeriph_Driver/src/stm32f10x_rcc.c ****   if ((statusreg & ((uint32_t)1 << tmp)) != (uint32_t)RESET)
 1460              		.loc 1 1350 7 is_stmt 0 view .LVU396
 1461 000a 00F01F00 		and	r0, r0, #31
 1462              	.LVL102:
ARM GAS  /tmp/ccF8VtoY.s 			page 56


1342:../Drivers/STM32F10x_StdPeriph_Driver/src/stm32f10x_rcc.c ****   }
 1463              		.loc 1 1342 15 view .LVU397
 1464 000e 0CBF     		ite	eq
 1465 0010 1B6A     		ldreq	r3, [r3, #32]
 1466              	.LVL103:
1346:../Drivers/STM32F10x_StdPeriph_Driver/src/stm32f10x_rcc.c ****   }
 1467              		.loc 1 1346 5 is_stmt 1 view .LVU398
1346:../Drivers/STM32F10x_StdPeriph_Driver/src/stm32f10x_rcc.c ****   }
 1468              		.loc 1 1346 15 is_stmt 0 view .LVU399
 1469 0012 5B6A     		ldrne	r3, [r3, #36]
 1470              	.LVL104:
1350:../Drivers/STM32F10x_StdPeriph_Driver/src/stm32f10x_rcc.c ****   if ((statusreg & ((uint32_t)1 << tmp)) != (uint32_t)RESET)
 1471              		.loc 1 1350 3 is_stmt 1 view .LVU400
1351:../Drivers/STM32F10x_StdPeriph_Driver/src/stm32f10x_rcc.c ****   {
 1472              		.loc 1 1351 3 view .LVU401
 1473              		.loc 1 1361 3 view .LVU402
1351:../Drivers/STM32F10x_StdPeriph_Driver/src/stm32f10x_rcc.c ****   {
 1474              		.loc 1 1351 42 is_stmt 0 view .LVU403
 1475 0014 23FA00F0 		lsr	r0, r3, r0
1362:../Drivers/STM32F10x_StdPeriph_Driver/src/stm32f10x_rcc.c **** }
 1476              		.loc 1 1362 1 view .LVU404
 1477 0018 00F00100 		and	r0, r0, #1
 1478 001c 7047     		bx	lr
 1479              	.LVL105:
 1480              	.L125:
1338:../Drivers/STM32F10x_StdPeriph_Driver/src/stm32f10x_rcc.c ****   }
 1481              		.loc 1 1338 5 is_stmt 1 view .LVU405
1338:../Drivers/STM32F10x_StdPeriph_Driver/src/stm32f10x_rcc.c ****   }
 1482              		.loc 1 1338 15 is_stmt 0 view .LVU406
 1483 001e 044B     		ldr	r3, .L126
 1484              	.LVL106:
1350:../Drivers/STM32F10x_StdPeriph_Driver/src/stm32f10x_rcc.c ****   if ((statusreg & ((uint32_t)1 << tmp)) != (uint32_t)RESET)
 1485              		.loc 1 1350 7 view .LVU407
 1486 0020 00F01F00 		and	r0, r0, #31
 1487              	.LVL107:
1338:../Drivers/STM32F10x_StdPeriph_Driver/src/stm32f10x_rcc.c ****   }
 1488              		.loc 1 1338 15 view .LVU408
 1489 0024 1B68     		ldr	r3, [r3]
 1490              	.LVL108:
1350:../Drivers/STM32F10x_StdPeriph_Driver/src/stm32f10x_rcc.c ****   if ((statusreg & ((uint32_t)1 << tmp)) != (uint32_t)RESET)
 1491              		.loc 1 1350 3 is_stmt 1 view .LVU409
1351:../Drivers/STM32F10x_StdPeriph_Driver/src/stm32f10x_rcc.c ****   {
 1492              		.loc 1 1351 3 view .LVU410
1361:../Drivers/STM32F10x_StdPeriph_Driver/src/stm32f10x_rcc.c **** }
 1493              		.loc 1 1361 3 view .LVU411
1351:../Drivers/STM32F10x_StdPeriph_Driver/src/stm32f10x_rcc.c ****   {
 1494              		.loc 1 1351 42 is_stmt 0 view .LVU412
 1495 0026 23FA00F0 		lsr	r0, r3, r0
 1496              		.loc 1 1362 1 view .LVU413
 1497 002a 00F00100 		and	r0, r0, #1
 1498 002e 7047     		bx	lr
 1499              	.L127:
 1500              		.align	2
 1501              	.L126:
 1502 0030 00100240 		.word	1073876992
 1503              		.cfi_endproc
 1504              	.LFE57:
ARM GAS  /tmp/ccF8VtoY.s 			page 57


 1506              		.section	.text.RCC_ClearFlag,"ax",%progbits
 1507              		.align	1
 1508              		.p2align 2,,3
 1509              		.global	RCC_ClearFlag
 1510              		.syntax unified
 1511              		.thumb
 1512              		.thumb_func
 1513              		.fpu softvfp
 1515              	RCC_ClearFlag:
 1516              	.LFB58:
1363:../Drivers/STM32F10x_StdPeriph_Driver/src/stm32f10x_rcc.c **** 
1364:../Drivers/STM32F10x_StdPeriph_Driver/src/stm32f10x_rcc.c **** /**
1365:../Drivers/STM32F10x_StdPeriph_Driver/src/stm32f10x_rcc.c ****   * @brief  Clears the RCC reset flags.
1366:../Drivers/STM32F10x_StdPeriph_Driver/src/stm32f10x_rcc.c ****   * @note   The reset flags are: RCC_FLAG_PINRST, RCC_FLAG_PORRST, RCC_FLAG_SFTRST,
1367:../Drivers/STM32F10x_StdPeriph_Driver/src/stm32f10x_rcc.c ****   *   RCC_FLAG_IWDGRST, RCC_FLAG_WWDGRST, RCC_FLAG_LPWRRST
1368:../Drivers/STM32F10x_StdPeriph_Driver/src/stm32f10x_rcc.c ****   * @param  None
1369:../Drivers/STM32F10x_StdPeriph_Driver/src/stm32f10x_rcc.c ****   * @retval None
1370:../Drivers/STM32F10x_StdPeriph_Driver/src/stm32f10x_rcc.c ****   */
1371:../Drivers/STM32F10x_StdPeriph_Driver/src/stm32f10x_rcc.c **** void RCC_ClearFlag(void)
1372:../Drivers/STM32F10x_StdPeriph_Driver/src/stm32f10x_rcc.c **** {
 1517              		.loc 1 1372 1 is_stmt 1 view -0
 1518              		.cfi_startproc
 1519              		@ args = 0, pretend = 0, frame = 0
 1520              		@ frame_needed = 0, uses_anonymous_args = 0
 1521              		@ link register save eliminated.
1373:../Drivers/STM32F10x_StdPeriph_Driver/src/stm32f10x_rcc.c ****   /* Set RMVF bit to clear the reset flags */
1374:../Drivers/STM32F10x_StdPeriph_Driver/src/stm32f10x_rcc.c ****   RCC->CSR |= CSR_RMVF_Set;
 1522              		.loc 1 1374 3 view .LVU415
 1523              		.loc 1 1374 12 is_stmt 0 view .LVU416
 1524 0000 024A     		ldr	r2, .L129
 1525 0002 536A     		ldr	r3, [r2, #36]
 1526 0004 43F08073 		orr	r3, r3, #16777216
 1527 0008 5362     		str	r3, [r2, #36]
1375:../Drivers/STM32F10x_StdPeriph_Driver/src/stm32f10x_rcc.c **** }
 1528              		.loc 1 1375 1 view .LVU417
 1529 000a 7047     		bx	lr
 1530              	.L130:
 1531              		.align	2
 1532              	.L129:
 1533 000c 00100240 		.word	1073876992
 1534              		.cfi_endproc
 1535              	.LFE58:
 1537              		.section	.text.RCC_GetITStatus,"ax",%progbits
 1538              		.align	1
 1539              		.p2align 2,,3
 1540              		.global	RCC_GetITStatus
 1541              		.syntax unified
 1542              		.thumb
 1543              		.thumb_func
 1544              		.fpu softvfp
 1546              	RCC_GetITStatus:
 1547              	.LVL109:
 1548              	.LFB59:
1376:../Drivers/STM32F10x_StdPeriph_Driver/src/stm32f10x_rcc.c **** 
1377:../Drivers/STM32F10x_StdPeriph_Driver/src/stm32f10x_rcc.c **** /**
1378:../Drivers/STM32F10x_StdPeriph_Driver/src/stm32f10x_rcc.c ****   * @brief  Checks whether the specified RCC interrupt has occurred or not.
1379:../Drivers/STM32F10x_StdPeriph_Driver/src/stm32f10x_rcc.c ****   * @param  RCC_IT: specifies the RCC interrupt source to check.
ARM GAS  /tmp/ccF8VtoY.s 			page 58


1380:../Drivers/STM32F10x_StdPeriph_Driver/src/stm32f10x_rcc.c ****   *   
1381:../Drivers/STM32F10x_StdPeriph_Driver/src/stm32f10x_rcc.c ****   *   For @b STM32_Connectivity_line_devices, this parameter can be one of the
1382:../Drivers/STM32F10x_StdPeriph_Driver/src/stm32f10x_rcc.c ****   *   following values:
1383:../Drivers/STM32F10x_StdPeriph_Driver/src/stm32f10x_rcc.c ****   *     @arg RCC_IT_LSIRDY: LSI ready interrupt
1384:../Drivers/STM32F10x_StdPeriph_Driver/src/stm32f10x_rcc.c ****   *     @arg RCC_IT_LSERDY: LSE ready interrupt
1385:../Drivers/STM32F10x_StdPeriph_Driver/src/stm32f10x_rcc.c ****   *     @arg RCC_IT_HSIRDY: HSI ready interrupt
1386:../Drivers/STM32F10x_StdPeriph_Driver/src/stm32f10x_rcc.c ****   *     @arg RCC_IT_HSERDY: HSE ready interrupt
1387:../Drivers/STM32F10x_StdPeriph_Driver/src/stm32f10x_rcc.c ****   *     @arg RCC_IT_PLLRDY: PLL ready interrupt
1388:../Drivers/STM32F10x_StdPeriph_Driver/src/stm32f10x_rcc.c ****   *     @arg RCC_IT_PLL2RDY: PLL2 ready interrupt 
1389:../Drivers/STM32F10x_StdPeriph_Driver/src/stm32f10x_rcc.c ****   *     @arg RCC_IT_PLL3RDY: PLL3 ready interrupt                      
1390:../Drivers/STM32F10x_StdPeriph_Driver/src/stm32f10x_rcc.c ****   *     @arg RCC_IT_CSS: Clock Security System interrupt
1391:../Drivers/STM32F10x_StdPeriph_Driver/src/stm32f10x_rcc.c ****   * 
1392:../Drivers/STM32F10x_StdPeriph_Driver/src/stm32f10x_rcc.c ****   *   For @b other_STM32_devices, this parameter can be one of the following values:        
1393:../Drivers/STM32F10x_StdPeriph_Driver/src/stm32f10x_rcc.c ****   *     @arg RCC_IT_LSIRDY: LSI ready interrupt
1394:../Drivers/STM32F10x_StdPeriph_Driver/src/stm32f10x_rcc.c ****   *     @arg RCC_IT_LSERDY: LSE ready interrupt
1395:../Drivers/STM32F10x_StdPeriph_Driver/src/stm32f10x_rcc.c ****   *     @arg RCC_IT_HSIRDY: HSI ready interrupt
1396:../Drivers/STM32F10x_StdPeriph_Driver/src/stm32f10x_rcc.c ****   *     @arg RCC_IT_HSERDY: HSE ready interrupt
1397:../Drivers/STM32F10x_StdPeriph_Driver/src/stm32f10x_rcc.c ****   *     @arg RCC_IT_PLLRDY: PLL ready interrupt
1398:../Drivers/STM32F10x_StdPeriph_Driver/src/stm32f10x_rcc.c ****   *     @arg RCC_IT_CSS: Clock Security System interrupt
1399:../Drivers/STM32F10x_StdPeriph_Driver/src/stm32f10x_rcc.c ****   *   
1400:../Drivers/STM32F10x_StdPeriph_Driver/src/stm32f10x_rcc.c ****   * @retval The new state of RCC_IT (SET or RESET).
1401:../Drivers/STM32F10x_StdPeriph_Driver/src/stm32f10x_rcc.c ****   */
1402:../Drivers/STM32F10x_StdPeriph_Driver/src/stm32f10x_rcc.c **** ITStatus RCC_GetITStatus(uint8_t RCC_IT)
1403:../Drivers/STM32F10x_StdPeriph_Driver/src/stm32f10x_rcc.c **** {
 1549              		.loc 1 1403 1 is_stmt 1 view -0
 1550              		.cfi_startproc
 1551              		@ args = 0, pretend = 0, frame = 0
 1552              		@ frame_needed = 0, uses_anonymous_args = 0
 1553              		@ link register save eliminated.
1404:../Drivers/STM32F10x_StdPeriph_Driver/src/stm32f10x_rcc.c ****   ITStatus bitstatus = RESET;
 1554              		.loc 1 1404 3 view .LVU419
1405:../Drivers/STM32F10x_StdPeriph_Driver/src/stm32f10x_rcc.c ****   /* Check the parameters */
1406:../Drivers/STM32F10x_StdPeriph_Driver/src/stm32f10x_rcc.c ****   assert_param(IS_RCC_GET_IT(RCC_IT));
 1555              		.loc 1 1406 3 view .LVU420
1407:../Drivers/STM32F10x_StdPeriph_Driver/src/stm32f10x_rcc.c **** 
1408:../Drivers/STM32F10x_StdPeriph_Driver/src/stm32f10x_rcc.c ****   /* Check the status of the specified RCC interrupt */
1409:../Drivers/STM32F10x_StdPeriph_Driver/src/stm32f10x_rcc.c ****   if ((RCC->CIR & RCC_IT) != (uint32_t)RESET)
 1556              		.loc 1 1409 3 view .LVU421
 1557              		.loc 1 1409 11 is_stmt 0 view .LVU422
 1558 0000 034B     		ldr	r3, .L132
 1559 0002 9B68     		ldr	r3, [r3, #8]
 1560              	.LVL110:
1410:../Drivers/STM32F10x_StdPeriph_Driver/src/stm32f10x_rcc.c ****   {
1411:../Drivers/STM32F10x_StdPeriph_Driver/src/stm32f10x_rcc.c ****     bitstatus = SET;
1412:../Drivers/STM32F10x_StdPeriph_Driver/src/stm32f10x_rcc.c ****   }
1413:../Drivers/STM32F10x_StdPeriph_Driver/src/stm32f10x_rcc.c ****   else
1414:../Drivers/STM32F10x_StdPeriph_Driver/src/stm32f10x_rcc.c ****   {
1415:../Drivers/STM32F10x_StdPeriph_Driver/src/stm32f10x_rcc.c ****     bitstatus = RESET;
1416:../Drivers/STM32F10x_StdPeriph_Driver/src/stm32f10x_rcc.c ****   }
1417:../Drivers/STM32F10x_StdPeriph_Driver/src/stm32f10x_rcc.c **** 
1418:../Drivers/STM32F10x_StdPeriph_Driver/src/stm32f10x_rcc.c ****   /* Return the RCC_IT status */
1419:../Drivers/STM32F10x_StdPeriph_Driver/src/stm32f10x_rcc.c ****   return  bitstatus;
 1561              		.loc 1 1419 3 is_stmt 1 view .LVU423
1409:../Drivers/STM32F10x_StdPeriph_Driver/src/stm32f10x_rcc.c ****   {
 1562              		.loc 1 1409 6 is_stmt 0 view .LVU424
 1563 0004 1842     		tst	r0, r3
1420:../Drivers/STM32F10x_StdPeriph_Driver/src/stm32f10x_rcc.c **** }
ARM GAS  /tmp/ccF8VtoY.s 			page 59


 1564              		.loc 1 1420 1 view .LVU425
 1565 0006 14BF     		ite	ne
 1566 0008 0120     		movne	r0, #1
 1567              	.LVL111:
 1568              		.loc 1 1420 1 view .LVU426
 1569 000a 0020     		moveq	r0, #0
 1570 000c 7047     		bx	lr
 1571              	.L133:
 1572 000e 00BF     		.align	2
 1573              	.L132:
 1574 0010 00100240 		.word	1073876992
 1575              		.cfi_endproc
 1576              	.LFE59:
 1578              		.section	.text.RCC_ClearITPendingBit,"ax",%progbits
 1579              		.align	1
 1580              		.p2align 2,,3
 1581              		.global	RCC_ClearITPendingBit
 1582              		.syntax unified
 1583              		.thumb
 1584              		.thumb_func
 1585              		.fpu softvfp
 1587              	RCC_ClearITPendingBit:
 1588              	.LVL112:
 1589              	.LFB60:
1421:../Drivers/STM32F10x_StdPeriph_Driver/src/stm32f10x_rcc.c **** 
1422:../Drivers/STM32F10x_StdPeriph_Driver/src/stm32f10x_rcc.c **** /**
1423:../Drivers/STM32F10x_StdPeriph_Driver/src/stm32f10x_rcc.c ****   * @brief  Clears the RCC's interrupt pending bits.
1424:../Drivers/STM32F10x_StdPeriph_Driver/src/stm32f10x_rcc.c ****   * @param  RCC_IT: specifies the interrupt pending bit to clear.
1425:../Drivers/STM32F10x_StdPeriph_Driver/src/stm32f10x_rcc.c ****   *   
1426:../Drivers/STM32F10x_StdPeriph_Driver/src/stm32f10x_rcc.c ****   *   For @b STM32_Connectivity_line_devices, this parameter can be any combination
1427:../Drivers/STM32F10x_StdPeriph_Driver/src/stm32f10x_rcc.c ****   *   of the following values:
1428:../Drivers/STM32F10x_StdPeriph_Driver/src/stm32f10x_rcc.c ****   *     @arg RCC_IT_LSIRDY: LSI ready interrupt
1429:../Drivers/STM32F10x_StdPeriph_Driver/src/stm32f10x_rcc.c ****   *     @arg RCC_IT_LSERDY: LSE ready interrupt
1430:../Drivers/STM32F10x_StdPeriph_Driver/src/stm32f10x_rcc.c ****   *     @arg RCC_IT_HSIRDY: HSI ready interrupt
1431:../Drivers/STM32F10x_StdPeriph_Driver/src/stm32f10x_rcc.c ****   *     @arg RCC_IT_HSERDY: HSE ready interrupt
1432:../Drivers/STM32F10x_StdPeriph_Driver/src/stm32f10x_rcc.c ****   *     @arg RCC_IT_PLLRDY: PLL ready interrupt
1433:../Drivers/STM32F10x_StdPeriph_Driver/src/stm32f10x_rcc.c ****   *     @arg RCC_IT_PLL2RDY: PLL2 ready interrupt 
1434:../Drivers/STM32F10x_StdPeriph_Driver/src/stm32f10x_rcc.c ****   *     @arg RCC_IT_PLL3RDY: PLL3 ready interrupt                      
1435:../Drivers/STM32F10x_StdPeriph_Driver/src/stm32f10x_rcc.c ****   *     @arg RCC_IT_CSS: Clock Security System interrupt
1436:../Drivers/STM32F10x_StdPeriph_Driver/src/stm32f10x_rcc.c ****   * 
1437:../Drivers/STM32F10x_StdPeriph_Driver/src/stm32f10x_rcc.c ****   *   For @b other_STM32_devices, this parameter can be any combination of the
1438:../Drivers/STM32F10x_StdPeriph_Driver/src/stm32f10x_rcc.c ****   *   following values:        
1439:../Drivers/STM32F10x_StdPeriph_Driver/src/stm32f10x_rcc.c ****   *     @arg RCC_IT_LSIRDY: LSI ready interrupt
1440:../Drivers/STM32F10x_StdPeriph_Driver/src/stm32f10x_rcc.c ****   *     @arg RCC_IT_LSERDY: LSE ready interrupt
1441:../Drivers/STM32F10x_StdPeriph_Driver/src/stm32f10x_rcc.c ****   *     @arg RCC_IT_HSIRDY: HSI ready interrupt
1442:../Drivers/STM32F10x_StdPeriph_Driver/src/stm32f10x_rcc.c ****   *     @arg RCC_IT_HSERDY: HSE ready interrupt
1443:../Drivers/STM32F10x_StdPeriph_Driver/src/stm32f10x_rcc.c ****   *     @arg RCC_IT_PLLRDY: PLL ready interrupt
1444:../Drivers/STM32F10x_StdPeriph_Driver/src/stm32f10x_rcc.c ****   *   
1445:../Drivers/STM32F10x_StdPeriph_Driver/src/stm32f10x_rcc.c ****   *     @arg RCC_IT_CSS: Clock Security System interrupt
1446:../Drivers/STM32F10x_StdPeriph_Driver/src/stm32f10x_rcc.c ****   * @retval None
1447:../Drivers/STM32F10x_StdPeriph_Driver/src/stm32f10x_rcc.c ****   */
1448:../Drivers/STM32F10x_StdPeriph_Driver/src/stm32f10x_rcc.c **** void RCC_ClearITPendingBit(uint8_t RCC_IT)
1449:../Drivers/STM32F10x_StdPeriph_Driver/src/stm32f10x_rcc.c **** {
 1590              		.loc 1 1449 1 is_stmt 1 view -0
 1591              		.cfi_startproc
 1592              		@ args = 0, pretend = 0, frame = 0
 1593              		@ frame_needed = 0, uses_anonymous_args = 0
ARM GAS  /tmp/ccF8VtoY.s 			page 60


 1594              		@ link register save eliminated.
1450:../Drivers/STM32F10x_StdPeriph_Driver/src/stm32f10x_rcc.c ****   /* Check the parameters */
1451:../Drivers/STM32F10x_StdPeriph_Driver/src/stm32f10x_rcc.c ****   assert_param(IS_RCC_CLEAR_IT(RCC_IT));
 1595              		.loc 1 1451 3 view .LVU428
1452:../Drivers/STM32F10x_StdPeriph_Driver/src/stm32f10x_rcc.c **** 
1453:../Drivers/STM32F10x_StdPeriph_Driver/src/stm32f10x_rcc.c ****   /* Perform Byte access to RCC_CIR[23:16] bits to clear the selected interrupt
1454:../Drivers/STM32F10x_StdPeriph_Driver/src/stm32f10x_rcc.c ****      pending bits */
1455:../Drivers/STM32F10x_StdPeriph_Driver/src/stm32f10x_rcc.c ****   *(__IO uint8_t *) CIR_BYTE3_ADDRESS = RCC_IT;
 1596              		.loc 1 1455 3 view .LVU429
 1597              		.loc 1 1455 39 is_stmt 0 view .LVU430
 1598 0000 014B     		ldr	r3, .L135
 1599 0002 1870     		strb	r0, [r3]
1456:../Drivers/STM32F10x_StdPeriph_Driver/src/stm32f10x_rcc.c **** }
 1600              		.loc 1 1456 1 view .LVU431
 1601 0004 7047     		bx	lr
 1602              	.L136:
 1603 0006 00BF     		.align	2
 1604              	.L135:
 1605 0008 0A100240 		.word	1073877002
 1606              		.cfi_endproc
 1607              	.LFE60:
 1609              		.section	.data.ADCPrescTable,"aw"
 1610              		.align	2
 1611              		.set	.LANCHOR1,. + 0
 1614              	ADCPrescTable:
 1615 0000 02040608 		.ascii	"\002\004\006\010"
 1616              		.section	.data.APBAHBPrescTable,"aw"
 1617              		.align	2
 1618              		.set	.LANCHOR0,. + 0
 1621              	APBAHBPrescTable:
 1622 0000 00000000 		.ascii	"\000\000\000\000\001\002\003\004\001\002\003\004\006"
 1622      01020304 
 1622      01020304 
 1622      06
 1623 000d 070809   		.ascii	"\007\010\011"
 1624              		.text
 1625              	.Letext0:
 1626              		.file 2 "/usr/lib/gcc/arm-none-eabi/9.2.1/include/stdint.h"
 1627              		.file 3 "../Drivers/CMSIS/CM3/CoreSupport/core_cm3.h"
 1628              		.file 4 "../Drivers/CMSIS/CM3/DeviceSupport/ST/STM32F10x/system_stm32f10x.h"
 1629              		.file 5 "../Drivers/CMSIS/CM3/DeviceSupport/ST/STM32F10x/stm32f10x.h"
 1630              		.file 6 "../Drivers/STM32F10x_StdPeriph_Driver/inc/stm32f10x_rcc.h"
ARM GAS  /tmp/ccF8VtoY.s 			page 61

