ARM GAS  /tmp/ccJaREVT.s 			page 1


   1              		.cpu cortex-m3
   2              		.eabi_attribute 20, 1
   3              		.eabi_attribute 21, 1
   4              		.eabi_attribute 23, 3
   5              		.eabi_attribute 24, 1
   6              		.eabi_attribute 25, 1
   7              		.eabi_attribute 26, 1
   8              		.eabi_attribute 30, 2
   9              		.eabi_attribute 34, 1
  10              		.eabi_attribute 18, 4
  11              		.file	"usb_int.c"
  12              		.text
  13              	.Ltext0:
  14              		.cfi_sections	.debug_frame
  15              		.section	.text.CTR_LP,"ax",%progbits
  16              		.align	1
  17              		.p2align 2,,3
  18              		.global	CTR_LP
  19              		.arch armv7-m
  20              		.syntax unified
  21              		.thumb
  22              		.thumb_func
  23              		.fpu softvfp
  25              	CTR_LP:
  26              	.LFB29:
  27              		.file 1 "../Drivers/STM32_USB-FS-Device_Driver/src/usb_int.c"
   1:../Drivers/STM32_USB-FS-Device_Driver/src/usb_int.c **** /**
   2:../Drivers/STM32_USB-FS-Device_Driver/src/usb_int.c ****   ******************************************************************************
   3:../Drivers/STM32_USB-FS-Device_Driver/src/usb_int.c ****   * @file    usb_int.c
   4:../Drivers/STM32_USB-FS-Device_Driver/src/usb_int.c ****   * @author  MCD Application Team
   5:../Drivers/STM32_USB-FS-Device_Driver/src/usb_int.c ****   * @version V4.1.0
   6:../Drivers/STM32_USB-FS-Device_Driver/src/usb_int.c ****   * @date    26-May-2017
   7:../Drivers/STM32_USB-FS-Device_Driver/src/usb_int.c ****   * @brief   Endpoint CTR (Low and High) interrupt's service routines
   8:../Drivers/STM32_USB-FS-Device_Driver/src/usb_int.c ****   ******************************************************************************
   9:../Drivers/STM32_USB-FS-Device_Driver/src/usb_int.c ****   * @attention
  10:../Drivers/STM32_USB-FS-Device_Driver/src/usb_int.c ****   *
  11:../Drivers/STM32_USB-FS-Device_Driver/src/usb_int.c ****   * <h2><center>&copy; Copyright (c) 2017 STMicroelectronics International N.V. 
  12:../Drivers/STM32_USB-FS-Device_Driver/src/usb_int.c ****   * All rights reserved.</center></h2>
  13:../Drivers/STM32_USB-FS-Device_Driver/src/usb_int.c ****   *
  14:../Drivers/STM32_USB-FS-Device_Driver/src/usb_int.c ****   * Redistribution and use in source and binary forms, with or without 
  15:../Drivers/STM32_USB-FS-Device_Driver/src/usb_int.c ****   * modification, are permitted, provided that the following conditions are met:
  16:../Drivers/STM32_USB-FS-Device_Driver/src/usb_int.c ****   *
  17:../Drivers/STM32_USB-FS-Device_Driver/src/usb_int.c ****   * 1. Redistribution of source code must retain the above copyright notice, 
  18:../Drivers/STM32_USB-FS-Device_Driver/src/usb_int.c ****   *    this list of conditions and the following disclaimer.
  19:../Drivers/STM32_USB-FS-Device_Driver/src/usb_int.c ****   * 2. Redistributions in binary form must reproduce the above copyright notice,
  20:../Drivers/STM32_USB-FS-Device_Driver/src/usb_int.c ****   *    this list of conditions and the following disclaimer in the documentation
  21:../Drivers/STM32_USB-FS-Device_Driver/src/usb_int.c ****   *    and/or other materials provided with the distribution.
  22:../Drivers/STM32_USB-FS-Device_Driver/src/usb_int.c ****   * 3. Neither the name of STMicroelectronics nor the names of other 
  23:../Drivers/STM32_USB-FS-Device_Driver/src/usb_int.c ****   *    contributors to this software may be used to endorse or promote products 
  24:../Drivers/STM32_USB-FS-Device_Driver/src/usb_int.c ****   *    derived from this software without specific written permission.
  25:../Drivers/STM32_USB-FS-Device_Driver/src/usb_int.c ****   * 4. This software, including modifications and/or derivative works of this 
  26:../Drivers/STM32_USB-FS-Device_Driver/src/usb_int.c ****   *    software, must execute solely and exclusively on microcontroller or
  27:../Drivers/STM32_USB-FS-Device_Driver/src/usb_int.c ****   *    microprocessor devices manufactured by or for STMicroelectronics.
  28:../Drivers/STM32_USB-FS-Device_Driver/src/usb_int.c ****   * 5. Redistribution and use of this software other than as permitted under 
  29:../Drivers/STM32_USB-FS-Device_Driver/src/usb_int.c ****   *    this license is void and will automatically terminate your rights under 
  30:../Drivers/STM32_USB-FS-Device_Driver/src/usb_int.c ****   *    this license. 
  31:../Drivers/STM32_USB-FS-Device_Driver/src/usb_int.c ****   *
ARM GAS  /tmp/ccJaREVT.s 			page 2


  32:../Drivers/STM32_USB-FS-Device_Driver/src/usb_int.c ****   * THIS SOFTWARE IS PROVIDED BY STMICROELECTRONICS AND CONTRIBUTORS "AS IS" 
  33:../Drivers/STM32_USB-FS-Device_Driver/src/usb_int.c ****   * AND ANY EXPRESS, IMPLIED OR STATUTORY WARRANTIES, INCLUDING, BUT NOT 
  34:../Drivers/STM32_USB-FS-Device_Driver/src/usb_int.c ****   * LIMITED TO, THE IMPLIED WARRANTIES OF MERCHANTABILITY, FITNESS FOR A 
  35:../Drivers/STM32_USB-FS-Device_Driver/src/usb_int.c ****   * PARTICULAR PURPOSE AND NON-INFRINGEMENT OF THIRD PARTY INTELLECTUAL PROPERTY
  36:../Drivers/STM32_USB-FS-Device_Driver/src/usb_int.c ****   * RIGHTS ARE DISCLAIMED TO THE FULLEST EXTENT PERMITTED BY LAW. IN NO EVENT 
  37:../Drivers/STM32_USB-FS-Device_Driver/src/usb_int.c ****   * SHALL STMICROELECTRONICS OR CONTRIBUTORS BE LIABLE FOR ANY DIRECT, INDIRECT,
  38:../Drivers/STM32_USB-FS-Device_Driver/src/usb_int.c ****   * INCIDENTAL, SPECIAL, EXEMPLARY, OR CONSEQUENTIAL DAMAGES (INCLUDING, BUT NOT
  39:../Drivers/STM32_USB-FS-Device_Driver/src/usb_int.c ****   * LIMITED TO, PROCUREMENT OF SUBSTITUTE GOODS OR SERVICES; LOSS OF USE, DATA, 
  40:../Drivers/STM32_USB-FS-Device_Driver/src/usb_int.c ****   * OR PROFITS; OR BUSINESS INTERRUPTION) HOWEVER CAUSED AND ON ANY THEORY OF 
  41:../Drivers/STM32_USB-FS-Device_Driver/src/usb_int.c ****   * LIABILITY, WHETHER IN CONTRACT, STRICT LIABILITY, OR TORT (INCLUDING 
  42:../Drivers/STM32_USB-FS-Device_Driver/src/usb_int.c ****   * NEGLIGENCE OR OTHERWISE) ARISING IN ANY WAY OUT OF THE USE OF THIS SOFTWARE,
  43:../Drivers/STM32_USB-FS-Device_Driver/src/usb_int.c ****   * EVEN IF ADVISED OF THE POSSIBILITY OF SUCH DAMAGE.
  44:../Drivers/STM32_USB-FS-Device_Driver/src/usb_int.c ****   *
  45:../Drivers/STM32_USB-FS-Device_Driver/src/usb_int.c ****   ******************************************************************************
  46:../Drivers/STM32_USB-FS-Device_Driver/src/usb_int.c ****   */
  47:../Drivers/STM32_USB-FS-Device_Driver/src/usb_int.c **** 
  48:../Drivers/STM32_USB-FS-Device_Driver/src/usb_int.c **** /* Includes ------------------------------------------------------------------*/
  49:../Drivers/STM32_USB-FS-Device_Driver/src/usb_int.c **** #include "usb_lib.h"
  50:../Drivers/STM32_USB-FS-Device_Driver/src/usb_int.c **** 
  51:../Drivers/STM32_USB-FS-Device_Driver/src/usb_int.c **** /* Private typedef -----------------------------------------------------------*/
  52:../Drivers/STM32_USB-FS-Device_Driver/src/usb_int.c **** /* Private define ------------------------------------------------------------*/
  53:../Drivers/STM32_USB-FS-Device_Driver/src/usb_int.c **** /* Private macro -------------------------------------------------------------*/
  54:../Drivers/STM32_USB-FS-Device_Driver/src/usb_int.c **** /* Private variables ---------------------------------------------------------*/
  55:../Drivers/STM32_USB-FS-Device_Driver/src/usb_int.c **** __IO uint16_t SaveRState;
  56:../Drivers/STM32_USB-FS-Device_Driver/src/usb_int.c **** __IO uint16_t SaveTState;
  57:../Drivers/STM32_USB-FS-Device_Driver/src/usb_int.c **** 
  58:../Drivers/STM32_USB-FS-Device_Driver/src/usb_int.c **** /* Extern variables ----------------------------------------------------------*/
  59:../Drivers/STM32_USB-FS-Device_Driver/src/usb_int.c **** extern void (*pEpInt_IN[7])(void);    /*  Handles IN  interrupts   */
  60:../Drivers/STM32_USB-FS-Device_Driver/src/usb_int.c **** extern void (*pEpInt_OUT[7])(void);   /*  Handles OUT interrupts   */
  61:../Drivers/STM32_USB-FS-Device_Driver/src/usb_int.c **** 
  62:../Drivers/STM32_USB-FS-Device_Driver/src/usb_int.c **** /* Private function prototypes -----------------------------------------------*/
  63:../Drivers/STM32_USB-FS-Device_Driver/src/usb_int.c **** /* Private functions ---------------------------------------------------------*/
  64:../Drivers/STM32_USB-FS-Device_Driver/src/usb_int.c **** 
  65:../Drivers/STM32_USB-FS-Device_Driver/src/usb_int.c **** /**
  66:../Drivers/STM32_USB-FS-Device_Driver/src/usb_int.c **** * Function Name  : CTR_LP.
  67:../Drivers/STM32_USB-FS-Device_Driver/src/usb_int.c **** * Description    : Low priority Endpoint Correct Transfer interrupt's service
  68:../Drivers/STM32_USB-FS-Device_Driver/src/usb_int.c **** *                  routine.
  69:../Drivers/STM32_USB-FS-Device_Driver/src/usb_int.c **** * Input          : None.
  70:../Drivers/STM32_USB-FS-Device_Driver/src/usb_int.c **** * Output         : None.
  71:../Drivers/STM32_USB-FS-Device_Driver/src/usb_int.c **** * Return         : None.
  72:../Drivers/STM32_USB-FS-Device_Driver/src/usb_int.c **** **/
  73:../Drivers/STM32_USB-FS-Device_Driver/src/usb_int.c **** void CTR_LP(void)
  74:../Drivers/STM32_USB-FS-Device_Driver/src/usb_int.c **** {
  28              		.loc 1 74 1 view -0
  29              		.cfi_startproc
  30              		@ args = 0, pretend = 0, frame = 8
  31              		@ frame_needed = 0, uses_anonymous_args = 0
  75:../Drivers/STM32_USB-FS-Device_Driver/src/usb_int.c ****   __IO uint16_t wEPVal = 0;
  32              		.loc 1 75 3 view .LVU1
  33              		.loc 1 75 17 is_stmt 0 view .LVU2
  34 0000 0023     		movs	r3, #0
  74:../Drivers/STM32_USB-FS-Device_Driver/src/usb_int.c ****   __IO uint16_t wEPVal = 0;
  35              		.loc 1 74 1 view .LVU3
  36 0002 2DE9F04F 		push	{r4, r5, r6, r7, r8, r9, r10, fp, lr}
  37              	.LCFI0:
  38              		.cfi_def_cfa_offset 36
  39              		.cfi_offset 4, -36
ARM GAS  /tmp/ccJaREVT.s 			page 3


  40              		.cfi_offset 5, -32
  41              		.cfi_offset 6, -28
  42              		.cfi_offset 7, -24
  43              		.cfi_offset 8, -20
  44              		.cfi_offset 9, -16
  45              		.cfi_offset 10, -12
  46              		.cfi_offset 11, -8
  47              		.cfi_offset 14, -4
  76:../Drivers/STM32_USB-FS-Device_Driver/src/usb_int.c ****   /* stay in loop while pending interrupts */
  77:../Drivers/STM32_USB-FS-Device_Driver/src/usb_int.c ****   while (((wIstr = _GetISTR()) & ISTR_CTR) != 0)
  48              		.loc 1 77 20 view .LVU4
  49 0006 5A4A     		ldr	r2, .L83
  74:../Drivers/STM32_USB-FS-Device_Driver/src/usb_int.c ****   __IO uint16_t wEPVal = 0;
  50              		.loc 1 74 1 view .LVU5
  51 0008 83B0     		sub	sp, sp, #12
  52              	.LCFI1:
  53              		.cfi_def_cfa_offset 48
  75:../Drivers/STM32_USB-FS-Device_Driver/src/usb_int.c ****   /* stay in loop while pending interrupts */
  54              		.loc 1 75 17 view .LVU6
  55 000a ADF80630 		strh	r3, [sp, #6]	@ movhi
  56              		.loc 1 77 3 is_stmt 1 view .LVU7
  57              		.loc 1 77 9 view .LVU8
  58              		.loc 1 77 20 is_stmt 0 view .LVU9
  59 000e 1368     		ldr	r3, [r2]
  60              		.loc 1 77 18 view .LVU10
  61 0010 DFF87481 		ldr	r8, .L83+24
  62              		.loc 1 77 20 view .LVU11
  63 0014 99B2     		uxth	r1, r3
  64              		.loc 1 77 9 view .LVU12
  65 0016 1804     		lsls	r0, r3, #16
  66              		.loc 1 77 18 view .LVU13
  67 0018 A8F80010 		strh	r1, [r8]	@ movhi
  68              		.loc 1 77 9 view .LVU14
  69 001c 40F19480 		bpl	.L1
  70              		.loc 1 77 20 view .LVU15
  71 0020 9246     		mov	r10, r2
  72 0022 DFF86891 		ldr	r9, .L83+28
  78:../Drivers/STM32_USB-FS-Device_Driver/src/usb_int.c ****   {
  79:../Drivers/STM32_USB-FS-Device_Driver/src/usb_int.c ****     /* extract highest priority endpoint number */
  80:../Drivers/STM32_USB-FS-Device_Driver/src/usb_int.c ****     EPindex = (uint8_t)(wIstr & ISTR_EP_ID);
  81:../Drivers/STM32_USB-FS-Device_Driver/src/usb_int.c ****     if (EPindex == 0)
  82:../Drivers/STM32_USB-FS-Device_Driver/src/usb_int.c ****     {
  83:../Drivers/STM32_USB-FS-Device_Driver/src/usb_int.c ****       /* Decode and service control endpoint interrupt */
  84:../Drivers/STM32_USB-FS-Device_Driver/src/usb_int.c ****       /* calling related service routine */
  85:../Drivers/STM32_USB-FS-Device_Driver/src/usb_int.c ****       /* (Setup0_Process, In0_Process, Out0_Process) */
  86:../Drivers/STM32_USB-FS-Device_Driver/src/usb_int.c **** 
  87:../Drivers/STM32_USB-FS-Device_Driver/src/usb_int.c ****       /* save RX & TX status */
  88:../Drivers/STM32_USB-FS-Device_Driver/src/usb_int.c ****       /* and set both to NAK */
  89:../Drivers/STM32_USB-FS-Device_Driver/src/usb_int.c ****       
  90:../Drivers/STM32_USB-FS-Device_Driver/src/usb_int.c **** 	    SaveRState = _GetENDPOINT(ENDP0);
  91:../Drivers/STM32_USB-FS-Device_Driver/src/usb_int.c **** 	    SaveTState = SaveRState & EPTX_STAT;
  92:../Drivers/STM32_USB-FS-Device_Driver/src/usb_int.c **** 	    SaveRState &=  EPRX_STAT;	
  93:../Drivers/STM32_USB-FS-Device_Driver/src/usb_int.c **** 
  94:../Drivers/STM32_USB-FS-Device_Driver/src/usb_int.c **** 	    _SetEPRxTxStatus(ENDP0,EP_RX_NAK,EP_TX_NAK);
  95:../Drivers/STM32_USB-FS-Device_Driver/src/usb_int.c **** 
  96:../Drivers/STM32_USB-FS-Device_Driver/src/usb_int.c ****       /* DIR bit = origin of the interrupt */
  97:../Drivers/STM32_USB-FS-Device_Driver/src/usb_int.c **** 
ARM GAS  /tmp/ccJaREVT.s 			page 4


  98:../Drivers/STM32_USB-FS-Device_Driver/src/usb_int.c ****       if ((wIstr & ISTR_DIR) == 0)
  99:../Drivers/STM32_USB-FS-Device_Driver/src/usb_int.c ****       {
 100:../Drivers/STM32_USB-FS-Device_Driver/src/usb_int.c ****         /* DIR = 0 */
 101:../Drivers/STM32_USB-FS-Device_Driver/src/usb_int.c **** 
 102:../Drivers/STM32_USB-FS-Device_Driver/src/usb_int.c ****         /* DIR = 0      => IN  int */
 103:../Drivers/STM32_USB-FS-Device_Driver/src/usb_int.c ****         /* DIR = 0 implies that (EP_CTR_TX = 1) always  */
 104:../Drivers/STM32_USB-FS-Device_Driver/src/usb_int.c **** 
 105:../Drivers/STM32_USB-FS-Device_Driver/src/usb_int.c ****         _ClearEP_CTR_TX(ENDP0);
 106:../Drivers/STM32_USB-FS-Device_Driver/src/usb_int.c ****         In0_Process();
 107:../Drivers/STM32_USB-FS-Device_Driver/src/usb_int.c **** 
 108:../Drivers/STM32_USB-FS-Device_Driver/src/usb_int.c ****            /* before terminate set Tx & Rx status */
 109:../Drivers/STM32_USB-FS-Device_Driver/src/usb_int.c **** 
 110:../Drivers/STM32_USB-FS-Device_Driver/src/usb_int.c ****             _SetEPRxTxStatus(ENDP0,SaveRState,SaveTState);
 111:../Drivers/STM32_USB-FS-Device_Driver/src/usb_int.c **** 		  return;
 112:../Drivers/STM32_USB-FS-Device_Driver/src/usb_int.c ****       }
 113:../Drivers/STM32_USB-FS-Device_Driver/src/usb_int.c ****       else
 114:../Drivers/STM32_USB-FS-Device_Driver/src/usb_int.c ****       {
 115:../Drivers/STM32_USB-FS-Device_Driver/src/usb_int.c ****         /* DIR = 1 */
 116:../Drivers/STM32_USB-FS-Device_Driver/src/usb_int.c **** 
 117:../Drivers/STM32_USB-FS-Device_Driver/src/usb_int.c ****         /* DIR = 1 & CTR_RX       => SETUP or OUT int */
 118:../Drivers/STM32_USB-FS-Device_Driver/src/usb_int.c ****         /* DIR = 1 & (CTR_TX | CTR_RX) => 2 int pending */
 119:../Drivers/STM32_USB-FS-Device_Driver/src/usb_int.c **** 
 120:../Drivers/STM32_USB-FS-Device_Driver/src/usb_int.c ****         wEPVal = _GetENDPOINT(ENDP0);
 121:../Drivers/STM32_USB-FS-Device_Driver/src/usb_int.c ****         
 122:../Drivers/STM32_USB-FS-Device_Driver/src/usb_int.c ****         if ((wEPVal &EP_SETUP) != 0)
 123:../Drivers/STM32_USB-FS-Device_Driver/src/usb_int.c ****         {
 124:../Drivers/STM32_USB-FS-Device_Driver/src/usb_int.c ****           _ClearEP_CTR_RX(ENDP0); /* SETUP bit kept frozen while CTR_RX = 1 */
 125:../Drivers/STM32_USB-FS-Device_Driver/src/usb_int.c ****           Setup0_Process();
 126:../Drivers/STM32_USB-FS-Device_Driver/src/usb_int.c ****           /* before terminate set Tx & Rx status */
 127:../Drivers/STM32_USB-FS-Device_Driver/src/usb_int.c **** 
 128:../Drivers/STM32_USB-FS-Device_Driver/src/usb_int.c **** 		      _SetEPRxTxStatus(ENDP0,SaveRState,SaveTState);
 129:../Drivers/STM32_USB-FS-Device_Driver/src/usb_int.c ****           return;
 130:../Drivers/STM32_USB-FS-Device_Driver/src/usb_int.c ****         }
 131:../Drivers/STM32_USB-FS-Device_Driver/src/usb_int.c **** 
 132:../Drivers/STM32_USB-FS-Device_Driver/src/usb_int.c ****         else if ((wEPVal & EP_CTR_RX) != 0)
 133:../Drivers/STM32_USB-FS-Device_Driver/src/usb_int.c ****         {
 134:../Drivers/STM32_USB-FS-Device_Driver/src/usb_int.c ****           _ClearEP_CTR_RX(ENDP0);
 135:../Drivers/STM32_USB-FS-Device_Driver/src/usb_int.c ****           Out0_Process();
 136:../Drivers/STM32_USB-FS-Device_Driver/src/usb_int.c ****           /* before terminate set Tx & Rx status */
 137:../Drivers/STM32_USB-FS-Device_Driver/src/usb_int.c ****      
 138:../Drivers/STM32_USB-FS-Device_Driver/src/usb_int.c **** 		     _SetEPRxTxStatus(ENDP0,SaveRState,SaveTState);
 139:../Drivers/STM32_USB-FS-Device_Driver/src/usb_int.c ****           return;
 140:../Drivers/STM32_USB-FS-Device_Driver/src/usb_int.c ****         }
 141:../Drivers/STM32_USB-FS-Device_Driver/src/usb_int.c ****       }
 142:../Drivers/STM32_USB-FS-Device_Driver/src/usb_int.c ****     }/* if(EPindex == 0) */
 143:../Drivers/STM32_USB-FS-Device_Driver/src/usb_int.c ****     else
 144:../Drivers/STM32_USB-FS-Device_Driver/src/usb_int.c ****     {
 145:../Drivers/STM32_USB-FS-Device_Driver/src/usb_int.c ****       /* Decode and service non control endpoints interrupt  */
 146:../Drivers/STM32_USB-FS-Device_Driver/src/usb_int.c **** 
 147:../Drivers/STM32_USB-FS-Device_Driver/src/usb_int.c ****       /* process related endpoint register */
 148:../Drivers/STM32_USB-FS-Device_Driver/src/usb_int.c ****       wEPVal = _GetENDPOINT(EPindex);
 149:../Drivers/STM32_USB-FS-Device_Driver/src/usb_int.c ****       if ((wEPVal & EP_CTR_RX) != 0)
 150:../Drivers/STM32_USB-FS-Device_Driver/src/usb_int.c ****       {
 151:../Drivers/STM32_USB-FS-Device_Driver/src/usb_int.c ****         /* clear int flag */
 152:../Drivers/STM32_USB-FS-Device_Driver/src/usb_int.c ****         _ClearEP_CTR_RX(EPindex);
 153:../Drivers/STM32_USB-FS-Device_Driver/src/usb_int.c **** 
 154:../Drivers/STM32_USB-FS-Device_Driver/src/usb_int.c ****         /* call OUT service function */
ARM GAS  /tmp/ccJaREVT.s 			page 5


 155:../Drivers/STM32_USB-FS-Device_Driver/src/usb_int.c ****         (*pEpInt_OUT[EPindex-1])();
 156:../Drivers/STM32_USB-FS-Device_Driver/src/usb_int.c **** 
 157:../Drivers/STM32_USB-FS-Device_Driver/src/usb_int.c ****       } /* if((wEPVal & EP_CTR_RX) */
 158:../Drivers/STM32_USB-FS-Device_Driver/src/usb_int.c **** 
 159:../Drivers/STM32_USB-FS-Device_Driver/src/usb_int.c ****       if ((wEPVal & EP_CTR_TX) != 0)
 160:../Drivers/STM32_USB-FS-Device_Driver/src/usb_int.c ****       {
 161:../Drivers/STM32_USB-FS-Device_Driver/src/usb_int.c ****         /* clear int flag */
 162:../Drivers/STM32_USB-FS-Device_Driver/src/usb_int.c ****         _ClearEP_CTR_TX(EPindex);
 163:../Drivers/STM32_USB-FS-Device_Driver/src/usb_int.c **** 
 164:../Drivers/STM32_USB-FS-Device_Driver/src/usb_int.c ****         /* call IN service function */
 165:../Drivers/STM32_USB-FS-Device_Driver/src/usb_int.c ****         (*pEpInt_IN[EPindex-1])();
  73              		.loc 1 165 10 view .LVU16
  74 0026 534E     		ldr	r6, .L83+4
 155:../Drivers/STM32_USB-FS-Device_Driver/src/usb_int.c **** 
  75              		.loc 1 155 10 view .LVU17
  76 0028 534F     		ldr	r7, .L83+8
  77 002a 2FE0     		b	.L23
  78              	.L82:
  79              	.LBB2:
  94:../Drivers/STM32_USB-FS-Device_Driver/src/usb_int.c **** 
  80              		.loc 1 94 6 view .LVU18
  81 002c 4BF6BF7B 		movw	fp, #49087
  82              	.LBE2:
  90:../Drivers/STM32_USB-FS-Device_Driver/src/usb_int.c **** 	    SaveTState = SaveRState & EPTX_STAT;
  83              		.loc 1 90 19 view .LVU19
  84 0030 2368     		ldr	r3, [r4]
  85 0032 9BB2     		uxth	r3, r3
  90:../Drivers/STM32_USB-FS-Device_Driver/src/usb_int.c **** 	    SaveTState = SaveRState & EPTX_STAT;
  86              		.loc 1 90 17 view .LVU20
  87 0034 2B80     		strh	r3, [r5]	@ movhi
  91:../Drivers/STM32_USB-FS-Device_Driver/src/usb_int.c **** 	    SaveRState &=  EPRX_STAT;	
  88              		.loc 1 91 6 is_stmt 1 view .LVU21
  91:../Drivers/STM32_USB-FS-Device_Driver/src/usb_int.c **** 	    SaveRState &=  EPRX_STAT;	
  89              		.loc 1 91 30 is_stmt 0 view .LVU22
  90 0036 2B88     		ldrh	r3, [r5]
  91 0038 03F03003 		and	r3, r3, #48
  91:../Drivers/STM32_USB-FS-Device_Driver/src/usb_int.c **** 	    SaveRState &=  EPRX_STAT;	
  92              		.loc 1 91 17 view .LVU23
  93 003c 1380     		strh	r3, [r2]	@ movhi
  92:../Drivers/STM32_USB-FS-Device_Driver/src/usb_int.c **** 
  94              		.loc 1 92 6 is_stmt 1 view .LVU24
  92:../Drivers/STM32_USB-FS-Device_Driver/src/usb_int.c **** 
  95              		.loc 1 92 17 is_stmt 0 view .LVU25
  96 003e 2B88     		ldrh	r3, [r5]
  97 0040 03F44053 		and	r3, r3, #12288
  98 0044 2B80     		strh	r3, [r5]	@ movhi
  99              	.LBB3:
  94:../Drivers/STM32_USB-FS-Device_Driver/src/usb_int.c **** 
 100              		.loc 1 94 6 is_stmt 1 view .LVU26
  94:../Drivers/STM32_USB-FS-Device_Driver/src/usb_int.c **** 
 101              		.loc 1 94 6 view .LVU27
 102 0046 2368     		ldr	r3, [r4]
 103 0048 03EA0B03 		and	r3, r3, fp
 104              	.LVL0:
  94:../Drivers/STM32_USB-FS-Device_Driver/src/usb_int.c **** 
 105              		.loc 1 94 6 view .LVU28
  94:../Drivers/STM32_USB-FS-Device_Driver/src/usb_int.c **** 
ARM GAS  /tmp/ccJaREVT.s 			page 6


 106              		.loc 1 94 6 view .LVU29
  94:../Drivers/STM32_USB-FS-Device_Driver/src/usb_int.c **** 
 107              		.loc 1 94 6 view .LVU30
  94:../Drivers/STM32_USB-FS-Device_Driver/src/usb_int.c **** 
 108              		.loc 1 94 6 view .LVU31
  94:../Drivers/STM32_USB-FS-Device_Driver/src/usb_int.c **** 
 109              		.loc 1 94 6 view .LVU32
  94:../Drivers/STM32_USB-FS-Device_Driver/src/usb_int.c **** 
 110              		.loc 1 94 6 view .LVU33
  94:../Drivers/STM32_USB-FS-Device_Driver/src/usb_int.c **** 
 111              		.loc 1 94 6 view .LVU34
 112 004c 83F40053 		eor	r3, r3, #8192
 113              	.LVL1:
  94:../Drivers/STM32_USB-FS-Device_Driver/src/usb_int.c **** 
 114              		.loc 1 94 6 is_stmt 0 view .LVU35
 115 0050 83F02003 		eor	r3, r3, #32
 116              	.LVL2:
  94:../Drivers/STM32_USB-FS-Device_Driver/src/usb_int.c **** 
 117              		.loc 1 94 6 view .LVU36
 118 0054 43F40043 		orr	r3, r3, #32768
 119              	.LVL3:
  94:../Drivers/STM32_USB-FS-Device_Driver/src/usb_int.c **** 
 120              		.loc 1 94 6 view .LVU37
 121 0058 43F08003 		orr	r3, r3, #128
 122 005c 2360     		str	r3, [r4]
 123              	.LBE3:
  94:../Drivers/STM32_USB-FS-Device_Driver/src/usb_int.c **** 
 124              		.loc 1 94 49 is_stmt 1 view .LVU38
  98:../Drivers/STM32_USB-FS-Device_Driver/src/usb_int.c ****       {
 125              		.loc 1 98 7 view .LVU39
  98:../Drivers/STM32_USB-FS-Device_Driver/src/usb_int.c ****       {
 126              		.loc 1 98 18 is_stmt 0 view .LVU40
 127 005e B8F80030 		ldrh	r3, [r8]
  98:../Drivers/STM32_USB-FS-Device_Driver/src/usb_int.c ****       {
 128              		.loc 1 98 10 view .LVU41
 129 0062 D906     		lsls	r1, r3, #27
 130 0064 48D5     		bpl	.L79
 120:../Drivers/STM32_USB-FS-Device_Driver/src/usb_int.c ****         
 131              		.loc 1 120 18 view .LVU42
 132 0066 2368     		ldr	r3, [r4]
 133 0068 9BB2     		uxth	r3, r3
 120:../Drivers/STM32_USB-FS-Device_Driver/src/usb_int.c ****         
 134              		.loc 1 120 16 view .LVU43
 135 006a ADF80630 		strh	r3, [sp, #6]	@ movhi
 122:../Drivers/STM32_USB-FS-Device_Driver/src/usb_int.c ****         {
 136              		.loc 1 122 9 is_stmt 1 view .LVU44
 122:../Drivers/STM32_USB-FS-Device_Driver/src/usb_int.c ****         {
 137              		.loc 1 122 21 is_stmt 0 view .LVU45
 138 006e BDF80630 		ldrh	r3, [sp, #6]
 122:../Drivers/STM32_USB-FS-Device_Driver/src/usb_int.c ****         {
 139              		.loc 1 122 12 view .LVU46
 140 0072 1A05     		lsls	r2, r3, #20
 141 0074 6BD4     		bmi	.L80
 132:../Drivers/STM32_USB-FS-Device_Driver/src/usb_int.c ****         {
 142              		.loc 1 132 39 view .LVU47
 143 0076 BDF80630 		ldrh	r3, [sp, #6]
 132:../Drivers/STM32_USB-FS-Device_Driver/src/usb_int.c ****         {
ARM GAS  /tmp/ccJaREVT.s 			page 7


 144              		.loc 1 132 17 view .LVU48
 145 007a 1B04     		lsls	r3, r3, #16
 146 007c 6FD4     		bmi	.L81
 147              	.L16:
  77:../Drivers/STM32_USB-FS-Device_Driver/src/usb_int.c ****   {
 148              		.loc 1 77 9 is_stmt 1 view .LVU49
  77:../Drivers/STM32_USB-FS-Device_Driver/src/usb_int.c ****   {
 149              		.loc 1 77 20 is_stmt 0 view .LVU50
 150 007e DAF80030 		ldr	r3, [r10]
 151 0082 9AB2     		uxth	r2, r3
  77:../Drivers/STM32_USB-FS-Device_Driver/src/usb_int.c ****   {
 152              		.loc 1 77 9 view .LVU51
 153 0084 1B04     		lsls	r3, r3, #16
  77:../Drivers/STM32_USB-FS-Device_Driver/src/usb_int.c ****   {
 154              		.loc 1 77 18 view .LVU52
 155 0086 A8F80020 		strh	r2, [r8]	@ movhi
  77:../Drivers/STM32_USB-FS-Device_Driver/src/usb_int.c ****   {
 156              		.loc 1 77 9 view .LVU53
 157 008a 5DD5     		bpl	.L1
 158              	.L23:
  80:../Drivers/STM32_USB-FS-Device_Driver/src/usb_int.c ****     if (EPindex == 0)
 159              		.loc 1 80 5 is_stmt 1 view .LVU54
  90:../Drivers/STM32_USB-FS-Device_Driver/src/usb_int.c **** 	    SaveTState = SaveRState & EPTX_STAT;
 160              		.loc 1 90 6 view .LVU55
 120:../Drivers/STM32_USB-FS-Device_Driver/src/usb_int.c ****         
 161              		.loc 1 120 9 view .LVU56
 132:../Drivers/STM32_USB-FS-Device_Driver/src/usb_int.c ****         {
 162              		.loc 1 132 14 view .LVU57
 148:../Drivers/STM32_USB-FS-Device_Driver/src/usb_int.c ****       if ((wEPVal & EP_CTR_RX) != 0)
 163              		.loc 1 148 7 view .LVU58
  80:../Drivers/STM32_USB-FS-Device_Driver/src/usb_int.c ****     if (EPindex == 0)
 164              		.loc 1 80 31 is_stmt 0 view .LVU59
 165 008c B8F80030 		ldrh	r3, [r8]
  90:../Drivers/STM32_USB-FS-Device_Driver/src/usb_int.c **** 	    SaveTState = SaveRState & EPTX_STAT;
 166              		.loc 1 90 19 view .LVU60
 167 0090 3A4C     		ldr	r4, .L83+12
  80:../Drivers/STM32_USB-FS-Device_Driver/src/usb_int.c ****     if (EPindex == 0)
 168              		.loc 1 80 15 view .LVU61
 169 0092 03F00F03 		and	r3, r3, #15
 148:../Drivers/STM32_USB-FS-Device_Driver/src/usb_int.c ****       if ((wEPVal & EP_CTR_RX) != 0)
 170              		.loc 1 148 16 view .LVU62
 171 0096 9900     		lsls	r1, r3, #2
 172 0098 01F18041 		add	r1, r1, #1073741824
  90:../Drivers/STM32_USB-FS-Device_Driver/src/usb_int.c **** 	    SaveTState = SaveRState & EPTX_STAT;
 173              		.loc 1 90 17 view .LVU63
 174 009c 384D     		ldr	r5, .L83+16
  91:../Drivers/STM32_USB-FS-Device_Driver/src/usb_int.c **** 	    SaveRState &=  EPRX_STAT;	
 175              		.loc 1 91 17 view .LVU64
 176 009e 394A     		ldr	r2, .L83+20
 148:../Drivers/STM32_USB-FS-Device_Driver/src/usb_int.c ****       if ((wEPVal & EP_CTR_RX) != 0)
 177              		.loc 1 148 16 view .LVU65
 178 00a0 01F5B841 		add	r1, r1, #23552
  80:../Drivers/STM32_USB-FS-Device_Driver/src/usb_int.c ****     if (EPindex == 0)
 179              		.loc 1 80 13 view .LVU66
 180 00a4 89F80030 		strb	r3, [r9]
  81:../Drivers/STM32_USB-FS-Device_Driver/src/usb_int.c ****     {
 181              		.loc 1 81 5 is_stmt 1 view .LVU67
ARM GAS  /tmp/ccJaREVT.s 			page 8


  81:../Drivers/STM32_USB-FS-Device_Driver/src/usb_int.c ****     {
 182              		.loc 1 81 8 is_stmt 0 view .LVU68
 183 00a8 002B     		cmp	r3, #0
 184 00aa BFD0     		beq	.L82
 152:../Drivers/STM32_USB-FS-Device_Driver/src/usb_int.c **** 
 185              		.loc 1 152 9 is_stmt 1 view .LVU69
 148:../Drivers/STM32_USB-FS-Device_Driver/src/usb_int.c ****       if ((wEPVal & EP_CTR_RX) != 0)
 186              		.loc 1 148 16 is_stmt 0 view .LVU70
 187 00ac 0A68     		ldr	r2, [r1]
 155:../Drivers/STM32_USB-FS-Device_Driver/src/usb_int.c **** 
 188              		.loc 1 155 10 view .LVU71
 189 00ae 013B     		subs	r3, r3, #1
 148:../Drivers/STM32_USB-FS-Device_Driver/src/usb_int.c ****       if ((wEPVal & EP_CTR_RX) != 0)
 190              		.loc 1 148 16 view .LVU72
 191 00b0 92B2     		uxth	r2, r2
 148:../Drivers/STM32_USB-FS-Device_Driver/src/usb_int.c ****       if ((wEPVal & EP_CTR_RX) != 0)
 192              		.loc 1 148 14 view .LVU73
 193 00b2 ADF80620 		strh	r2, [sp, #6]	@ movhi
 149:../Drivers/STM32_USB-FS-Device_Driver/src/usb_int.c ****       {
 194              		.loc 1 149 7 is_stmt 1 view .LVU74
 149:../Drivers/STM32_USB-FS-Device_Driver/src/usb_int.c ****       {
 195              		.loc 1 149 32 is_stmt 0 view .LVU75
 196 00b6 BDF80620 		ldrh	r2, [sp, #6]
 149:../Drivers/STM32_USB-FS-Device_Driver/src/usb_int.c ****       {
 197              		.loc 1 149 10 view .LVU76
 198 00ba 1004     		lsls	r0, r2, #16
 199 00bc 07D5     		bpl	.L21
 152:../Drivers/STM32_USB-FS-Device_Driver/src/usb_int.c **** 
 200              		.loc 1 152 9 view .LVU77
 201 00be 40F68F74 		movw	r4, #3983
 202 00c2 0A68     		ldr	r2, [r1]
 155:../Drivers/STM32_USB-FS-Device_Driver/src/usb_int.c **** 
 203              		.loc 1 155 10 view .LVU78
 204 00c4 57F82300 		ldr	r0, [r7, r3, lsl #2]
 152:../Drivers/STM32_USB-FS-Device_Driver/src/usb_int.c **** 
 205              		.loc 1 152 9 view .LVU79
 206 00c8 2240     		ands	r2, r2, r4
 207 00ca 0A60     		str	r2, [r1]
 155:../Drivers/STM32_USB-FS-Device_Driver/src/usb_int.c **** 
 208              		.loc 1 155 9 is_stmt 1 view .LVU80
 155:../Drivers/STM32_USB-FS-Device_Driver/src/usb_int.c **** 
 209              		.loc 1 155 10 is_stmt 0 view .LVU81
 210 00cc 8047     		blx	r0
 211              	.LVL4:
 212              	.L21:
 159:../Drivers/STM32_USB-FS-Device_Driver/src/usb_int.c ****       {
 213              		.loc 1 159 7 is_stmt 1 view .LVU82
 162:../Drivers/STM32_USB-FS-Device_Driver/src/usb_int.c **** 
 214              		.loc 1 162 9 view .LVU83
 159:../Drivers/STM32_USB-FS-Device_Driver/src/usb_int.c ****       {
 215              		.loc 1 159 19 is_stmt 0 view .LVU84
 216 00ce BDF80630 		ldrh	r3, [sp, #6]
 159:../Drivers/STM32_USB-FS-Device_Driver/src/usb_int.c ****       {
 217              		.loc 1 159 10 view .LVU85
 218 00d2 1A06     		lsls	r2, r3, #24
 219 00d4 D3D5     		bpl	.L16
 162:../Drivers/STM32_USB-FS-Device_Driver/src/usb_int.c **** 
ARM GAS  /tmp/ccJaREVT.s 			page 9


 220              		.loc 1 162 9 view .LVU86
 221 00d6 48F60F70 		movw	r0, #36623
 222 00da 99F80020 		ldrb	r2, [r9]	@ zero_extendqisi2
 223 00de 9300     		lsls	r3, r2, #2
 224 00e0 03F18043 		add	r3, r3, #1073741824
 225 00e4 03F5B843 		add	r3, r3, #23552
 226 00e8 1968     		ldr	r1, [r3]
 227              		.loc 1 165 10 view .LVU87
 228 00ea 013A     		subs	r2, r2, #1
 162:../Drivers/STM32_USB-FS-Device_Driver/src/usb_int.c **** 
 229              		.loc 1 162 9 view .LVU88
 230 00ec 0140     		ands	r1, r1, r0
 231              		.loc 1 165 10 view .LVU89
 232 00ee 56F82220 		ldr	r2, [r6, r2, lsl #2]
 162:../Drivers/STM32_USB-FS-Device_Driver/src/usb_int.c **** 
 233              		.loc 1 162 9 view .LVU90
 234 00f2 1960     		str	r1, [r3]
 235              		.loc 1 165 9 is_stmt 1 view .LVU91
 236              		.loc 1 165 10 is_stmt 0 view .LVU92
 237 00f4 9047     		blx	r2
 238              	.LVL5:
 239 00f6 C2E7     		b	.L16
 240              	.L79:
 105:../Drivers/STM32_USB-FS-Device_Driver/src/usb_int.c ****         In0_Process();
 241              		.loc 1 105 9 is_stmt 1 view .LVU93
 242 00f8 48F60F71 		movw	r1, #36623
 243 00fc 2368     		ldr	r3, [r4]
 244 00fe 0B40     		ands	r3, r3, r1
 245 0100 2360     		str	r3, [r4]
 106:../Drivers/STM32_USB-FS-Device_Driver/src/usb_int.c **** 
 246              		.loc 1 106 9 view .LVU94
 247 0102 FFF7FEFF 		bl	In0_Process
 248              	.LVL6:
 249              	.LBB4:
 110:../Drivers/STM32_USB-FS-Device_Driver/src/usb_int.c **** 		  return;
 250              		.loc 1 110 13 view .LVU95
 110:../Drivers/STM32_USB-FS-Device_Driver/src/usb_int.c **** 		  return;
 251              		.loc 1 110 13 view .LVU96
 252              	.L76:
 253              	.LBE4:
 254              	.LBB5:
 138:../Drivers/STM32_USB-FS-Device_Driver/src/usb_int.c ****           return;
 255              		.loc 1 138 8 view .LVU97
 138:../Drivers/STM32_USB-FS-Device_Driver/src/usb_int.c ****           return;
 256              		.loc 1 138 8 view .LVU98
 257 0106 2368     		ldr	r3, [r4]
 258 0108 2988     		ldrh	r1, [r5]
 259 010a 03EA0B0B 		and	fp, r3, fp
 260              	.LVL7:
 138:../Drivers/STM32_USB-FS-Device_Driver/src/usb_int.c ****           return;
 261              		.loc 1 138 8 view .LVU99
 262 010e 1D4A     		ldr	r2, .L83+20
 138:../Drivers/STM32_USB-FS-Device_Driver/src/usb_int.c ****           return;
 263              		.loc 1 138 8 view .LVU100
 264 0110 2B88     		ldrh	r3, [r5]
 265 0112 11F4805F 		tst	r1, #4096
 266 0116 18BF     		it	ne
ARM GAS  /tmp/ccJaREVT.s 			page 10


 267 0118 8BF4805B 		eorne	fp, fp, #4096
 268              	.LVL8:
 138:../Drivers/STM32_USB-FS-Device_Driver/src/usb_int.c ****           return;
 269              		.loc 1 138 8 view .LVU101
 270 011c 9E04     		lsls	r6, r3, #18
 138:../Drivers/STM32_USB-FS-Device_Driver/src/usb_int.c ****           return;
 271              		.loc 1 138 8 view .LVU102
 272 011e 1388     		ldrh	r3, [r2]
 273 0120 48BF     		it	mi
 274 0122 8BF4005B 		eormi	fp, fp, #8192
 275              	.LVL9:
 138:../Drivers/STM32_USB-FS-Device_Driver/src/usb_int.c ****           return;
 276              		.loc 1 138 8 view .LVU103
 277 0126 DD06     		lsls	r5, r3, #27
 138:../Drivers/STM32_USB-FS-Device_Driver/src/usb_int.c ****           return;
 278              		.loc 1 138 8 view .LVU104
 279 0128 1388     		ldrh	r3, [r2]
 280 012a 48BF     		it	mi
 281 012c 8BF0100B 		eormi	fp, fp, #16
 282              	.LVL10:
 138:../Drivers/STM32_USB-FS-Device_Driver/src/usb_int.c ****           return;
 283              		.loc 1 138 8 view .LVU105
 284 0130 9C06     		lsls	r4, r3, #26
 138:../Drivers/STM32_USB-FS-Device_Driver/src/usb_int.c ****           return;
 285              		.loc 1 138 8 view .LVU106
 286 0132 48BF     		it	mi
 287 0134 8BF0200B 		eormi	fp, fp, #32
 288              	.LVL11:
 138:../Drivers/STM32_USB-FS-Device_Driver/src/usb_int.c ****           return;
 289              		.loc 1 138 8 view .LVU107
 290 0138 4BF4004B 		orr	fp, fp, #32768
 291              	.LVL12:
 138:../Drivers/STM32_USB-FS-Device_Driver/src/usb_int.c ****           return;
 292              		.loc 1 138 8 is_stmt 0 view .LVU108
 293 013c 0F4A     		ldr	r2, .L83+12
 294 013e 4BF0800B 		orr	fp, fp, #128
 295 0142 1FFA8BF3 		uxth	r3, fp
 296 0146 1360     		str	r3, [r2]
 297              	.LBE5:
 138:../Drivers/STM32_USB-FS-Device_Driver/src/usb_int.c ****           return;
 298              		.loc 1 138 53 is_stmt 1 view .LVU109
 139:../Drivers/STM32_USB-FS-Device_Driver/src/usb_int.c ****         }
 299              		.loc 1 139 11 view .LVU110
 300              	.L1:
 166:../Drivers/STM32_USB-FS-Device_Driver/src/usb_int.c ****       } /* if((wEPVal & EP_CTR_TX) != 0) */
 167:../Drivers/STM32_USB-FS-Device_Driver/src/usb_int.c **** 
 168:../Drivers/STM32_USB-FS-Device_Driver/src/usb_int.c ****     }/* if(EPindex == 0) else */
 169:../Drivers/STM32_USB-FS-Device_Driver/src/usb_int.c **** 
 170:../Drivers/STM32_USB-FS-Device_Driver/src/usb_int.c ****   }/* while(...) */
 171:../Drivers/STM32_USB-FS-Device_Driver/src/usb_int.c **** }
 301              		.loc 1 171 1 is_stmt 0 view .LVU111
 302 0148 03B0     		add	sp, sp, #12
 303              	.LCFI2:
 304              		.cfi_remember_state
 305              		.cfi_def_cfa_offset 36
 306              		@ sp needed
 307 014a BDE8F08F 		pop	{r4, r5, r6, r7, r8, r9, r10, fp, pc}
ARM GAS  /tmp/ccJaREVT.s 			page 11


 308              	.L80:
 309              	.LCFI3:
 310              		.cfi_restore_state
 124:../Drivers/STM32_USB-FS-Device_Driver/src/usb_int.c ****           Setup0_Process();
 311              		.loc 1 124 11 is_stmt 1 view .LVU112
 312 014e 40F68F71 		movw	r1, #3983
 313 0152 2368     		ldr	r3, [r4]
 314 0154 0B40     		ands	r3, r3, r1
 315 0156 2360     		str	r3, [r4]
 125:../Drivers/STM32_USB-FS-Device_Driver/src/usb_int.c ****           /* before terminate set Tx & Rx status */
 316              		.loc 1 125 11 view .LVU113
 317 0158 FFF7FEFF 		bl	Setup0_Process
 318              	.LVL13:
 319              	.LBB6:
 128:../Drivers/STM32_USB-FS-Device_Driver/src/usb_int.c ****           return;
 320              		.loc 1 128 9 view .LVU114
 128:../Drivers/STM32_USB-FS-Device_Driver/src/usb_int.c ****           return;
 321              		.loc 1 128 9 view .LVU115
 322 015c D3E7     		b	.L76
 323              	.L81:
 324              	.LBE6:
 134:../Drivers/STM32_USB-FS-Device_Driver/src/usb_int.c ****           Out0_Process();
 325              		.loc 1 134 11 view .LVU116
 326 015e 40F68F71 		movw	r1, #3983
 327 0162 2368     		ldr	r3, [r4]
 328 0164 0B40     		ands	r3, r3, r1
 329 0166 2360     		str	r3, [r4]
 135:../Drivers/STM32_USB-FS-Device_Driver/src/usb_int.c ****           /* before terminate set Tx & Rx status */
 330              		.loc 1 135 11 view .LVU117
 331 0168 FFF7FEFF 		bl	Out0_Process
 332              	.LVL14:
 333 016c CBE7     		b	.L76
 334              	.L84:
 335 016e 00BF     		.align	2
 336              	.L83:
 337 0170 445C0040 		.word	1073765444
 338 0174 00000000 		.word	pEpInt_IN
 339 0178 00000000 		.word	pEpInt_OUT
 340 017c 005C0040 		.word	1073765376
 341 0180 00000000 		.word	SaveRState
 342 0184 00000000 		.word	SaveTState
 343 0188 00000000 		.word	wIstr
 344 018c 00000000 		.word	EPindex
 345              		.cfi_endproc
 346              	.LFE29:
 348              		.section	.text.CTR_HP,"ax",%progbits
 349              		.align	1
 350              		.p2align 2,,3
 351              		.global	CTR_HP
 352              		.syntax unified
 353              		.thumb
 354              		.thumb_func
 355              		.fpu softvfp
 357              	CTR_HP:
 358              	.LFB30:
 172:../Drivers/STM32_USB-FS-Device_Driver/src/usb_int.c **** 
 173:../Drivers/STM32_USB-FS-Device_Driver/src/usb_int.c **** /**
ARM GAS  /tmp/ccJaREVT.s 			page 12


 174:../Drivers/STM32_USB-FS-Device_Driver/src/usb_int.c ****   * Function Name  : CTR_HP.
 175:../Drivers/STM32_USB-FS-Device_Driver/src/usb_int.c ****   * Description    : High Priority Endpoint Correct Transfer interrupt's service 
 176:../Drivers/STM32_USB-FS-Device_Driver/src/usb_int.c ****   *                  routine.
 177:../Drivers/STM32_USB-FS-Device_Driver/src/usb_int.c ****   * Input          : None.
 178:../Drivers/STM32_USB-FS-Device_Driver/src/usb_int.c ****   * Output         : None.
 179:../Drivers/STM32_USB-FS-Device_Driver/src/usb_int.c ****   * Return         : None.
 180:../Drivers/STM32_USB-FS-Device_Driver/src/usb_int.c ****   **/
 181:../Drivers/STM32_USB-FS-Device_Driver/src/usb_int.c **** void CTR_HP(void)
 182:../Drivers/STM32_USB-FS-Device_Driver/src/usb_int.c **** {
 359              		.loc 1 182 1 view -0
 360              		.cfi_startproc
 361              		@ args = 0, pretend = 0, frame = 0
 362              		@ frame_needed = 0, uses_anonymous_args = 0
 183:../Drivers/STM32_USB-FS-Device_Driver/src/usb_int.c ****   uint32_t wEPVal = 0;
 363              		.loc 1 183 3 view .LVU119
 364              	.LVL15:
 184:../Drivers/STM32_USB-FS-Device_Driver/src/usb_int.c **** 
 185:../Drivers/STM32_USB-FS-Device_Driver/src/usb_int.c ****   while (((wIstr = _GetISTR()) & ISTR_CTR) != 0)
 365              		.loc 1 185 3 view .LVU120
 366              		.loc 1 185 9 view .LVU121
 367              		.loc 1 185 20 is_stmt 0 view .LVU122
 368 0000 214A     		ldr	r2, .L96
 182:../Drivers/STM32_USB-FS-Device_Driver/src/usb_int.c ****   uint32_t wEPVal = 0;
 369              		.loc 1 182 1 view .LVU123
 370 0002 2DE9F843 		push	{r3, r4, r5, r6, r7, r8, r9, lr}
 371              	.LCFI4:
 372              		.cfi_def_cfa_offset 32
 373              		.cfi_offset 3, -32
 374              		.cfi_offset 4, -28
 375              		.cfi_offset 5, -24
 376              		.cfi_offset 6, -20
 377              		.cfi_offset 7, -16
 378              		.cfi_offset 8, -12
 379              		.cfi_offset 9, -8
 380              		.cfi_offset 14, -4
 381              		.loc 1 185 20 view .LVU124
 382 0006 1368     		ldr	r3, [r2]
 383              		.loc 1 185 18 view .LVU125
 384 0008 DFF88C90 		ldr	r9, .L96+16
 385              		.loc 1 185 20 view .LVU126
 386 000c 99B2     		uxth	r1, r3
 387              		.loc 1 185 9 view .LVU127
 388 000e 1B04     		lsls	r3, r3, #16
 389              		.loc 1 185 18 view .LVU128
 390 0010 A9F80010 		strh	r1, [r9]	@ movhi
 391              		.loc 1 185 9 view .LVU129
 392 0014 35D5     		bpl	.L85
 186:../Drivers/STM32_USB-FS-Device_Driver/src/usb_int.c ****   {
 187:../Drivers/STM32_USB-FS-Device_Driver/src/usb_int.c ****     _SetISTR((uint16_t)CLR_CTR); /* clear CTR flag */
 393              		.loc 1 187 5 view .LVU130
 394 0016 9046     		mov	r8, r2
 395 0018 47F6FF75 		movw	r5, #32767
 396 001c 1B4C     		ldr	r4, .L96+4
 188:../Drivers/STM32_USB-FS-Device_Driver/src/usb_int.c ****     /* extract highest priority endpoint number */
 189:../Drivers/STM32_USB-FS-Device_Driver/src/usb_int.c ****     EPindex = (uint8_t)(wIstr & ISTR_EP_ID);
 190:../Drivers/STM32_USB-FS-Device_Driver/src/usb_int.c ****     /* process related endpoint register */
 191:../Drivers/STM32_USB-FS-Device_Driver/src/usb_int.c ****     wEPVal = _GetENDPOINT(EPindex);
ARM GAS  /tmp/ccJaREVT.s 			page 13


 192:../Drivers/STM32_USB-FS-Device_Driver/src/usb_int.c ****     if ((wEPVal & EP_CTR_RX) != 0)
 193:../Drivers/STM32_USB-FS-Device_Driver/src/usb_int.c ****     {
 194:../Drivers/STM32_USB-FS-Device_Driver/src/usb_int.c ****       /* clear int flag */
 195:../Drivers/STM32_USB-FS-Device_Driver/src/usb_int.c ****       _ClearEP_CTR_RX(EPindex);
 196:../Drivers/STM32_USB-FS-Device_Driver/src/usb_int.c **** 
 197:../Drivers/STM32_USB-FS-Device_Driver/src/usb_int.c ****       /* call OUT service function */
 198:../Drivers/STM32_USB-FS-Device_Driver/src/usb_int.c ****       (*pEpInt_OUT[EPindex-1])();
 199:../Drivers/STM32_USB-FS-Device_Driver/src/usb_int.c **** 
 200:../Drivers/STM32_USB-FS-Device_Driver/src/usb_int.c ****     } /* if((wEPVal & EP_CTR_RX) */
 201:../Drivers/STM32_USB-FS-Device_Driver/src/usb_int.c ****     else if ((wEPVal & EP_CTR_TX) != 0)
 202:../Drivers/STM32_USB-FS-Device_Driver/src/usb_int.c ****     {
 203:../Drivers/STM32_USB-FS-Device_Driver/src/usb_int.c ****       /* clear int flag */
 204:../Drivers/STM32_USB-FS-Device_Driver/src/usb_int.c ****       _ClearEP_CTR_TX(EPindex);
 205:../Drivers/STM32_USB-FS-Device_Driver/src/usb_int.c **** 
 206:../Drivers/STM32_USB-FS-Device_Driver/src/usb_int.c ****       /* call IN service function */
 207:../Drivers/STM32_USB-FS-Device_Driver/src/usb_int.c ****       (*pEpInt_IN[EPindex-1])();
 397              		.loc 1 207 8 view .LVU131
 398 001e 1C4F     		ldr	r7, .L96+8
 198:../Drivers/STM32_USB-FS-Device_Driver/src/usb_int.c **** 
 399              		.loc 1 198 8 view .LVU132
 400 0020 1C4E     		ldr	r6, .L96+12
 401 0022 0FE0     		b	.L89
 402              	.LVL16:
 403              	.L95:
 195:../Drivers/STM32_USB-FS-Device_Driver/src/usb_int.c **** 
 404              		.loc 1 195 7 view .LVU133
 405 0024 40F68F7C 		movw	ip, #3983
 406 0028 1A68     		ldr	r2, [r3]
 198:../Drivers/STM32_USB-FS-Device_Driver/src/usb_int.c **** 
 407              		.loc 1 198 8 view .LVU134
 408 002a 56F82010 		ldr	r1, [r6, r0, lsl #2]
 409              	.LVL17:
 195:../Drivers/STM32_USB-FS-Device_Driver/src/usb_int.c **** 
 410              		.loc 1 195 7 view .LVU135
 411 002e 02EA0C02 		and	r2, r2, ip
 412 0032 1A60     		str	r2, [r3]
 198:../Drivers/STM32_USB-FS-Device_Driver/src/usb_int.c **** 
 413              		.loc 1 198 7 is_stmt 1 view .LVU136
 198:../Drivers/STM32_USB-FS-Device_Driver/src/usb_int.c **** 
 414              		.loc 1 198 8 is_stmt 0 view .LVU137
 415 0034 8847     		blx	r1
 416              	.LVL18:
 417              	.L88:
 185:../Drivers/STM32_USB-FS-Device_Driver/src/usb_int.c ****   {
 418              		.loc 1 185 9 is_stmt 1 view .LVU138
 185:../Drivers/STM32_USB-FS-Device_Driver/src/usb_int.c ****   {
 419              		.loc 1 185 20 is_stmt 0 view .LVU139
 420 0036 D8F80030 		ldr	r3, [r8]
 421 003a 9AB2     		uxth	r2, r3
 185:../Drivers/STM32_USB-FS-Device_Driver/src/usb_int.c ****   {
 422              		.loc 1 185 9 view .LVU140
 423 003c 1B04     		lsls	r3, r3, #16
 185:../Drivers/STM32_USB-FS-Device_Driver/src/usb_int.c ****   {
 424              		.loc 1 185 18 view .LVU141
 425 003e A9F80020 		strh	r2, [r9]	@ movhi
 185:../Drivers/STM32_USB-FS-Device_Driver/src/usb_int.c ****   {
 426              		.loc 1 185 9 view .LVU142
ARM GAS  /tmp/ccJaREVT.s 			page 14


 427 0042 1ED5     		bpl	.L85
 428              	.L89:
 187:../Drivers/STM32_USB-FS-Device_Driver/src/usb_int.c ****     /* extract highest priority endpoint number */
 429              		.loc 1 187 5 is_stmt 1 view .LVU143
 195:../Drivers/STM32_USB-FS-Device_Driver/src/usb_int.c **** 
 430              		.loc 1 195 7 view .LVU144
 201:../Drivers/STM32_USB-FS-Device_Driver/src/usb_int.c ****     {
 431              		.loc 1 201 10 view .LVU145
 187:../Drivers/STM32_USB-FS-Device_Driver/src/usb_int.c ****     /* extract highest priority endpoint number */
 432              		.loc 1 187 5 is_stmt 0 view .LVU146
 433 0044 C8F80050 		str	r5, [r8]
 189:../Drivers/STM32_USB-FS-Device_Driver/src/usb_int.c ****     /* process related endpoint register */
 434              		.loc 1 189 5 is_stmt 1 view .LVU147
 189:../Drivers/STM32_USB-FS-Device_Driver/src/usb_int.c ****     /* process related endpoint register */
 435              		.loc 1 189 31 is_stmt 0 view .LVU148
 436 0048 B9F80020 		ldrh	r2, [r9]
 189:../Drivers/STM32_USB-FS-Device_Driver/src/usb_int.c ****     /* process related endpoint register */
 437              		.loc 1 189 15 view .LVU149
 438 004c 02F00F02 		and	r2, r2, #15
 191:../Drivers/STM32_USB-FS-Device_Driver/src/usb_int.c ****     if ((wEPVal & EP_CTR_RX) != 0)
 439              		.loc 1 191 14 view .LVU150
 440 0050 9300     		lsls	r3, r2, #2
 441 0052 03F18043 		add	r3, r3, #1073741824
 189:../Drivers/STM32_USB-FS-Device_Driver/src/usb_int.c ****     /* process related endpoint register */
 442              		.loc 1 189 13 view .LVU151
 443 0056 2270     		strb	r2, [r4]
 191:../Drivers/STM32_USB-FS-Device_Driver/src/usb_int.c ****     if ((wEPVal & EP_CTR_RX) != 0)
 444              		.loc 1 191 5 is_stmt 1 view .LVU152
 191:../Drivers/STM32_USB-FS-Device_Driver/src/usb_int.c ****     if ((wEPVal & EP_CTR_RX) != 0)
 445              		.loc 1 191 14 is_stmt 0 view .LVU153
 446 0058 03F5B843 		add	r3, r3, #23552
 447 005c 1968     		ldr	r1, [r3]
 448              	.LVL19:
 192:../Drivers/STM32_USB-FS-Device_Driver/src/usb_int.c ****     {
 449              		.loc 1 192 5 is_stmt 1 view .LVU154
 198:../Drivers/STM32_USB-FS-Device_Driver/src/usb_int.c **** 
 450              		.loc 1 198 8 is_stmt 0 view .LVU155
 451 005e 501E     		subs	r0, r2, #1
 192:../Drivers/STM32_USB-FS-Device_Driver/src/usb_int.c ****     {
 452              		.loc 1 192 8 view .LVU156
 453 0060 11F4004F 		tst	r1, #32768
 454 0064 DED1     		bne	.L95
 204:../Drivers/STM32_USB-FS-Device_Driver/src/usb_int.c **** 
 455              		.loc 1 204 7 is_stmt 1 view .LVU157
 201:../Drivers/STM32_USB-FS-Device_Driver/src/usb_int.c ****     {
 456              		.loc 1 201 13 is_stmt 0 view .LVU158
 457 0066 0906     		lsls	r1, r1, #24
 458              	.LVL20:
 459              		.loc 1 207 8 view .LVU159
 460 0068 02F1FF32 		add	r2, r2, #-1
 201:../Drivers/STM32_USB-FS-Device_Driver/src/usb_int.c ****     {
 461              		.loc 1 201 13 view .LVU160
 462 006c E3D5     		bpl	.L88
 204:../Drivers/STM32_USB-FS-Device_Driver/src/usb_int.c **** 
 463              		.loc 1 204 7 view .LVU161
 464 006e 48F60F7C 		movw	ip, #36623
 465 0072 1968     		ldr	r1, [r3]
ARM GAS  /tmp/ccJaREVT.s 			page 15


 466              		.loc 1 207 8 view .LVU162
 467 0074 57F82200 		ldr	r0, [r7, r2, lsl #2]
 204:../Drivers/STM32_USB-FS-Device_Driver/src/usb_int.c **** 
 468              		.loc 1 204 7 view .LVU163
 469 0078 01EA0C01 		and	r1, r1, ip
 470 007c 1960     		str	r1, [r3]
 471              		.loc 1 207 7 is_stmt 1 view .LVU164
 472              		.loc 1 207 8 is_stmt 0 view .LVU165
 473 007e 8047     		blx	r0
 474              	.LVL21:
 475 0080 D9E7     		b	.L88
 476              	.L85:
 208:../Drivers/STM32_USB-FS-Device_Driver/src/usb_int.c **** 
 209:../Drivers/STM32_USB-FS-Device_Driver/src/usb_int.c **** 
 210:../Drivers/STM32_USB-FS-Device_Driver/src/usb_int.c ****     } /* if((wEPVal & EP_CTR_TX) != 0) */
 211:../Drivers/STM32_USB-FS-Device_Driver/src/usb_int.c **** 
 212:../Drivers/STM32_USB-FS-Device_Driver/src/usb_int.c ****   }/* while(...) */
 213:../Drivers/STM32_USB-FS-Device_Driver/src/usb_int.c **** }
 477              		.loc 1 213 1 view .LVU166
 478 0082 BDE8F883 		pop	{r3, r4, r5, r6, r7, r8, r9, pc}
 479              	.L97:
 480 0086 00BF     		.align	2
 481              	.L96:
 482 0088 445C0040 		.word	1073765444
 483 008c 00000000 		.word	EPindex
 484 0090 00000000 		.word	pEpInt_IN
 485 0094 00000000 		.word	pEpInt_OUT
 486 0098 00000000 		.word	wIstr
 487              		.cfi_endproc
 488              	.LFE30:
 490              		.comm	SaveTState,2,2
 491              		.comm	SaveRState,2,2
 492              		.text
 493              	.Letext0:
 494              		.file 2 "/usr/lib/gcc/arm-none-eabi/9.2.1/include/stdint.h"
 495              		.file 3 "../Drivers/CMSIS/CM3/CoreSupport/core_cm3.h"
 496              		.file 4 "../Drivers/CMSIS/CM3/DeviceSupport/ST/STM32F10x/system_stm32f10x.h"
 497              		.file 5 "../Drivers/STM32_USB-FS-Device_Driver/inc/usb_regs.h"
 498              		.file 6 "../Drivers/STM32_USB-FS-Device_Driver/inc/usb_core.h"
 499              		.file 7 "../Drivers/STM32_USB-FS-Device_Driver/inc/usb_init.h"
 500              		.file 8 "../Drivers/STM32_USB-FS-Device_Driver/inc/usb_lib.h"
ARM GAS  /tmp/ccJaREVT.s 			page 16

