ARM GAS  /tmp/ccmEjIPx.s 			page 1


   1              		.cpu cortex-m3
   2              		.eabi_attribute 20, 1
   3              		.eabi_attribute 21, 1
   4              		.eabi_attribute 23, 3
   5              		.eabi_attribute 24, 1
   6              		.eabi_attribute 25, 1
   7              		.eabi_attribute 26, 1
   8              		.eabi_attribute 30, 2
   9              		.eabi_attribute 34, 1
  10              		.eabi_attribute 18, 4
  11              		.file	"usb_init.c"
  12              		.text
  13              	.Ltext0:
  14              		.cfi_sections	.debug_frame
  15              		.section	.text.USB_Init,"ax",%progbits
  16              		.align	1
  17              		.p2align 2,,3
  18              		.global	USB_Init
  19              		.arch armv7-m
  20              		.syntax unified
  21              		.thumb
  22              		.thumb_func
  23              		.fpu softvfp
  25              	USB_Init:
  26              	.LFB29:
  27              		.file 1 "../Drivers/STM32_USB-FS-Device_Driver/src/usb_init.c"
   1:../Drivers/STM32_USB-FS-Device_Driver/src/usb_init.c **** /**
   2:../Drivers/STM32_USB-FS-Device_Driver/src/usb_init.c ****   ******************************************************************************
   3:../Drivers/STM32_USB-FS-Device_Driver/src/usb_init.c ****   * @file    usb_init.c
   4:../Drivers/STM32_USB-FS-Device_Driver/src/usb_init.c ****   * @author  MCD Application Team
   5:../Drivers/STM32_USB-FS-Device_Driver/src/usb_init.c ****   * @version V4.1.0
   6:../Drivers/STM32_USB-FS-Device_Driver/src/usb_init.c ****   * @date    26-May-2017
   7:../Drivers/STM32_USB-FS-Device_Driver/src/usb_init.c ****   * @brief   Initialization routines & global variables
   8:../Drivers/STM32_USB-FS-Device_Driver/src/usb_init.c ****   ******************************************************************************
   9:../Drivers/STM32_USB-FS-Device_Driver/src/usb_init.c ****   * @attention
  10:../Drivers/STM32_USB-FS-Device_Driver/src/usb_init.c ****   *
  11:../Drivers/STM32_USB-FS-Device_Driver/src/usb_init.c ****   * <h2><center>&copy; Copyright (c) 2017 STMicroelectronics International N.V. 
  12:../Drivers/STM32_USB-FS-Device_Driver/src/usb_init.c ****   * All rights reserved.</center></h2>
  13:../Drivers/STM32_USB-FS-Device_Driver/src/usb_init.c ****   *
  14:../Drivers/STM32_USB-FS-Device_Driver/src/usb_init.c ****   * Redistribution and use in source and binary forms, with or without 
  15:../Drivers/STM32_USB-FS-Device_Driver/src/usb_init.c ****   * modification, are permitted, provided that the following conditions are met:
  16:../Drivers/STM32_USB-FS-Device_Driver/src/usb_init.c ****   *
  17:../Drivers/STM32_USB-FS-Device_Driver/src/usb_init.c ****   * 1. Redistribution of source code must retain the above copyright notice, 
  18:../Drivers/STM32_USB-FS-Device_Driver/src/usb_init.c ****   *    this list of conditions and the following disclaimer.
  19:../Drivers/STM32_USB-FS-Device_Driver/src/usb_init.c ****   * 2. Redistributions in binary form must reproduce the above copyright notice,
  20:../Drivers/STM32_USB-FS-Device_Driver/src/usb_init.c ****   *    this list of conditions and the following disclaimer in the documentation
  21:../Drivers/STM32_USB-FS-Device_Driver/src/usb_init.c ****   *    and/or other materials provided with the distribution.
  22:../Drivers/STM32_USB-FS-Device_Driver/src/usb_init.c ****   * 3. Neither the name of STMicroelectronics nor the names of other 
  23:../Drivers/STM32_USB-FS-Device_Driver/src/usb_init.c ****   *    contributors to this software may be used to endorse or promote products 
  24:../Drivers/STM32_USB-FS-Device_Driver/src/usb_init.c ****   *    derived from this software without specific written permission.
  25:../Drivers/STM32_USB-FS-Device_Driver/src/usb_init.c ****   * 4. This software, including modifications and/or derivative works of this 
  26:../Drivers/STM32_USB-FS-Device_Driver/src/usb_init.c ****   *    software, must execute solely and exclusively on microcontroller or
  27:../Drivers/STM32_USB-FS-Device_Driver/src/usb_init.c ****   *    microprocessor devices manufactured by or for STMicroelectronics.
  28:../Drivers/STM32_USB-FS-Device_Driver/src/usb_init.c ****   * 5. Redistribution and use of this software other than as permitted under 
  29:../Drivers/STM32_USB-FS-Device_Driver/src/usb_init.c ****   *    this license is void and will automatically terminate your rights under 
  30:../Drivers/STM32_USB-FS-Device_Driver/src/usb_init.c ****   *    this license. 
  31:../Drivers/STM32_USB-FS-Device_Driver/src/usb_init.c ****   *
ARM GAS  /tmp/ccmEjIPx.s 			page 2


  32:../Drivers/STM32_USB-FS-Device_Driver/src/usb_init.c ****   * THIS SOFTWARE IS PROVIDED BY STMICROELECTRONICS AND CONTRIBUTORS "AS IS" 
  33:../Drivers/STM32_USB-FS-Device_Driver/src/usb_init.c ****   * AND ANY EXPRESS, IMPLIED OR STATUTORY WARRANTIES, INCLUDING, BUT NOT 
  34:../Drivers/STM32_USB-FS-Device_Driver/src/usb_init.c ****   * LIMITED TO, THE IMPLIED WARRANTIES OF MERCHANTABILITY, FITNESS FOR A 
  35:../Drivers/STM32_USB-FS-Device_Driver/src/usb_init.c ****   * PARTICULAR PURPOSE AND NON-INFRINGEMENT OF THIRD PARTY INTELLECTUAL PROPERTY
  36:../Drivers/STM32_USB-FS-Device_Driver/src/usb_init.c ****   * RIGHTS ARE DISCLAIMED TO THE FULLEST EXTENT PERMITTED BY LAW. IN NO EVENT 
  37:../Drivers/STM32_USB-FS-Device_Driver/src/usb_init.c ****   * SHALL STMICROELECTRONICS OR CONTRIBUTORS BE LIABLE FOR ANY DIRECT, INDIRECT,
  38:../Drivers/STM32_USB-FS-Device_Driver/src/usb_init.c ****   * INCIDENTAL, SPECIAL, EXEMPLARY, OR CONSEQUENTIAL DAMAGES (INCLUDING, BUT NOT
  39:../Drivers/STM32_USB-FS-Device_Driver/src/usb_init.c ****   * LIMITED TO, PROCUREMENT OF SUBSTITUTE GOODS OR SERVICES; LOSS OF USE, DATA, 
  40:../Drivers/STM32_USB-FS-Device_Driver/src/usb_init.c ****   * OR PROFITS; OR BUSINESS INTERRUPTION) HOWEVER CAUSED AND ON ANY THEORY OF 
  41:../Drivers/STM32_USB-FS-Device_Driver/src/usb_init.c ****   * LIABILITY, WHETHER IN CONTRACT, STRICT LIABILITY, OR TORT (INCLUDING 
  42:../Drivers/STM32_USB-FS-Device_Driver/src/usb_init.c ****   * NEGLIGENCE OR OTHERWISE) ARISING IN ANY WAY OUT OF THE USE OF THIS SOFTWARE,
  43:../Drivers/STM32_USB-FS-Device_Driver/src/usb_init.c ****   * EVEN IF ADVISED OF THE POSSIBILITY OF SUCH DAMAGE.
  44:../Drivers/STM32_USB-FS-Device_Driver/src/usb_init.c ****   *
  45:../Drivers/STM32_USB-FS-Device_Driver/src/usb_init.c ****   ******************************************************************************
  46:../Drivers/STM32_USB-FS-Device_Driver/src/usb_init.c ****   */
  47:../Drivers/STM32_USB-FS-Device_Driver/src/usb_init.c **** 
  48:../Drivers/STM32_USB-FS-Device_Driver/src/usb_init.c **** 
  49:../Drivers/STM32_USB-FS-Device_Driver/src/usb_init.c **** /* Includes ------------------------------------------------------------------*/
  50:../Drivers/STM32_USB-FS-Device_Driver/src/usb_init.c **** #include "usb_lib.h"
  51:../Drivers/STM32_USB-FS-Device_Driver/src/usb_init.c **** 
  52:../Drivers/STM32_USB-FS-Device_Driver/src/usb_init.c **** /* Private typedef -----------------------------------------------------------*/
  53:../Drivers/STM32_USB-FS-Device_Driver/src/usb_init.c **** /* Private define ------------------------------------------------------------*/
  54:../Drivers/STM32_USB-FS-Device_Driver/src/usb_init.c **** /* Private macro -------------------------------------------------------------*/
  55:../Drivers/STM32_USB-FS-Device_Driver/src/usb_init.c **** /* Private variables ---------------------------------------------------------*/
  56:../Drivers/STM32_USB-FS-Device_Driver/src/usb_init.c **** /*  The number of current endpoint, it will be used to specify an endpoint */
  57:../Drivers/STM32_USB-FS-Device_Driver/src/usb_init.c ****  uint8_t	EPindex;
  58:../Drivers/STM32_USB-FS-Device_Driver/src/usb_init.c **** /*  The number of current device, it is an index to the Device_Table */
  59:../Drivers/STM32_USB-FS-Device_Driver/src/usb_init.c **** /* uint8_t	Device_no; */
  60:../Drivers/STM32_USB-FS-Device_Driver/src/usb_init.c **** /*  Points to the DEVICE_INFO structure of current device */
  61:../Drivers/STM32_USB-FS-Device_Driver/src/usb_init.c **** /*  The purpose of this register is to speed up the execution */
  62:../Drivers/STM32_USB-FS-Device_Driver/src/usb_init.c **** DEVICE_INFO *pInformation;
  63:../Drivers/STM32_USB-FS-Device_Driver/src/usb_init.c **** /*  Points to the DEVICE_PROP structure of current device */
  64:../Drivers/STM32_USB-FS-Device_Driver/src/usb_init.c **** /*  The purpose of this register is to speed up the execution */
  65:../Drivers/STM32_USB-FS-Device_Driver/src/usb_init.c **** DEVICE_PROP *pProperty;
  66:../Drivers/STM32_USB-FS-Device_Driver/src/usb_init.c **** /*  Temporary save the state of Rx & Tx status. */
  67:../Drivers/STM32_USB-FS-Device_Driver/src/usb_init.c **** /*  Whenever the Rx or Tx state is changed, its value is saved */
  68:../Drivers/STM32_USB-FS-Device_Driver/src/usb_init.c **** /*  in this variable first and will be set to the EPRB or EPRA */
  69:../Drivers/STM32_USB-FS-Device_Driver/src/usb_init.c **** /*  at the end of interrupt process */
  70:../Drivers/STM32_USB-FS-Device_Driver/src/usb_init.c **** uint16_t	SaveState ;
  71:../Drivers/STM32_USB-FS-Device_Driver/src/usb_init.c **** uint16_t  wInterrupt_Mask;
  72:../Drivers/STM32_USB-FS-Device_Driver/src/usb_init.c **** DEVICE_INFO	Device_Info;
  73:../Drivers/STM32_USB-FS-Device_Driver/src/usb_init.c **** USER_STANDARD_REQUESTS  *pUser_Standard_Requests;
  74:../Drivers/STM32_USB-FS-Device_Driver/src/usb_init.c **** 
  75:../Drivers/STM32_USB-FS-Device_Driver/src/usb_init.c **** /* Extern variables ----------------------------------------------------------*/
  76:../Drivers/STM32_USB-FS-Device_Driver/src/usb_init.c **** /* Private function prototypes -----------------------------------------------*/
  77:../Drivers/STM32_USB-FS-Device_Driver/src/usb_init.c **** /* Private functions ---------------------------------------------------------*/
  78:../Drivers/STM32_USB-FS-Device_Driver/src/usb_init.c **** 
  79:../Drivers/STM32_USB-FS-Device_Driver/src/usb_init.c **** /**
  80:../Drivers/STM32_USB-FS-Device_Driver/src/usb_init.c ****   * Function Name  : USB_Init
  81:../Drivers/STM32_USB-FS-Device_Driver/src/usb_init.c ****   * Description    : USB system initialization
  82:../Drivers/STM32_USB-FS-Device_Driver/src/usb_init.c ****   * Input          : None.
  83:../Drivers/STM32_USB-FS-Device_Driver/src/usb_init.c ****   * Output         : None.
  84:../Drivers/STM32_USB-FS-Device_Driver/src/usb_init.c ****   * Return         : None.
  85:../Drivers/STM32_USB-FS-Device_Driver/src/usb_init.c ****   **/
  86:../Drivers/STM32_USB-FS-Device_Driver/src/usb_init.c **** void USB_Init(void)
  87:../Drivers/STM32_USB-FS-Device_Driver/src/usb_init.c **** {
  28              		.loc 1 87 1 view -0
ARM GAS  /tmp/ccmEjIPx.s 			page 3


  29              		.cfi_startproc
  30              		@ args = 0, pretend = 0, frame = 0
  31              		@ frame_needed = 0, uses_anonymous_args = 0
  32              		@ link register save eliminated.
  88:../Drivers/STM32_USB-FS-Device_Driver/src/usb_init.c ****   pInformation = &Device_Info;
  33              		.loc 1 88 3 view .LVU1
  89:../Drivers/STM32_USB-FS-Device_Driver/src/usb_init.c ****   pInformation->ControlState = 2;
  34              		.loc 1 89 30 is_stmt 0 view .LVU2
  35 0000 0220     		movs	r0, #2
  87:../Drivers/STM32_USB-FS-Device_Driver/src/usb_init.c ****   pInformation = &Device_Info;
  36              		.loc 1 87 1 view .LVU3
  37 0002 30B4     		push	{r4, r5}
  38              	.LCFI0:
  39              		.cfi_def_cfa_offset 8
  40              		.cfi_offset 4, -8
  41              		.cfi_offset 5, -4
  88:../Drivers/STM32_USB-FS-Device_Driver/src/usb_init.c ****   pInformation = &Device_Info;
  42              		.loc 1 88 16 view .LVU4
  43 0004 064A     		ldr	r2, .L4
  44 0006 074D     		ldr	r5, .L4+4
  90:../Drivers/STM32_USB-FS-Device_Driver/src/usb_init.c ****   pProperty = &Device_Property;
  45              		.loc 1 90 13 view .LVU5
  46 0008 074C     		ldr	r4, .L4+8
  47 000a 084B     		ldr	r3, .L4+12
  89:../Drivers/STM32_USB-FS-Device_Driver/src/usb_init.c ****   pInformation->ControlState = 2;
  48              		.loc 1 89 30 view .LVU6
  49 000c 1072     		strb	r0, [r2, #8]
  91:../Drivers/STM32_USB-FS-Device_Driver/src/usb_init.c ****   pUser_Standard_Requests = &User_Standard_Requests;
  50              		.loc 1 91 27 view .LVU7
  51 000e 0849     		ldr	r1, .L4+16
  52 0010 0848     		ldr	r0, .L4+20
  90:../Drivers/STM32_USB-FS-Device_Driver/src/usb_init.c ****   pProperty = &Device_Property;
  53              		.loc 1 90 13 view .LVU8
  54 0012 2360     		str	r3, [r4]
  88:../Drivers/STM32_USB-FS-Device_Driver/src/usb_init.c ****   pInformation->ControlState = 2;
  55              		.loc 1 88 16 view .LVU9
  56 0014 2A60     		str	r2, [r5]
  89:../Drivers/STM32_USB-FS-Device_Driver/src/usb_init.c ****   pProperty = &Device_Property;
  57              		.loc 1 89 3 is_stmt 1 view .LVU10
  90:../Drivers/STM32_USB-FS-Device_Driver/src/usb_init.c ****   pUser_Standard_Requests = &User_Standard_Requests;
  58              		.loc 1 90 3 view .LVU11
  59              		.loc 1 91 3 view .LVU12
  92:../Drivers/STM32_USB-FS-Device_Driver/src/usb_init.c ****   /* Initialize devices one by one */
  93:../Drivers/STM32_USB-FS-Device_Driver/src/usb_init.c ****   pProperty->Init();
  60              		.loc 1 93 3 is_stmt 0 view .LVU13
  61 0016 1B68     		ldr	r3, [r3]
  91:../Drivers/STM32_USB-FS-Device_Driver/src/usb_init.c ****   /* Initialize devices one by one */
  62              		.loc 1 91 27 view .LVU14
  63 0018 0860     		str	r0, [r1]
  64              		.loc 1 93 3 is_stmt 1 view .LVU15
  94:../Drivers/STM32_USB-FS-Device_Driver/src/usb_init.c **** }
  65              		.loc 1 94 1 is_stmt 0 view .LVU16
  66 001a 30BC     		pop	{r4, r5}
  67              	.LCFI1:
  68              		.cfi_restore 5
  69              		.cfi_restore 4
  70              		.cfi_def_cfa_offset 0
ARM GAS  /tmp/ccmEjIPx.s 			page 4


  93:../Drivers/STM32_USB-FS-Device_Driver/src/usb_init.c **** }
  71              		.loc 1 93 3 view .LVU17
  72 001c 1847     		bx	r3	@ indirect register sibling call
  73              	.LVL0:
  74              	.L5:
  75 001e 00BF     		.align	2
  76              	.L4:
  77 0020 00000000 		.word	Device_Info
  78 0024 00000000 		.word	pInformation
  79 0028 00000000 		.word	pProperty
  80 002c 00000000 		.word	Device_Property
  81 0030 00000000 		.word	pUser_Standard_Requests
  82 0034 00000000 		.word	User_Standard_Requests
  83              		.cfi_endproc
  84              	.LFE29:
  86              		.comm	pUser_Standard_Requests,4,4
  87              		.comm	Device_Info,28,4
  88              		.comm	wInterrupt_Mask,2,2
  89              		.comm	SaveState,2,2
  90              		.comm	pProperty,4,4
  91              		.comm	pInformation,4,4
  92              		.comm	EPindex,1,1
  93              		.text
  94              	.Letext0:
  95              		.file 2 "/usr/lib/gcc/arm-none-eabi/9.2.1/include/stdint.h"
  96              		.file 3 "../Drivers/CMSIS/CM3/CoreSupport/core_cm3.h"
  97              		.file 4 "../Drivers/CMSIS/CM3/DeviceSupport/ST/STM32F10x/system_stm32f10x.h"
  98              		.file 5 "../Drivers/STM32_USB-FS-Device_Driver/inc/usb_regs.h"
  99              		.file 6 "../Drivers/STM32_USB-FS-Device_Driver/inc/usb_core.h"
 100              		.file 7 "../Drivers/STM32_USB-FS-Device_Driver/inc/usb_init.h"
 101              		.file 8 "../Drivers/STM32_USB-FS-Device_Driver/inc/usb_lib.h"
ARM GAS  /tmp/ccmEjIPx.s 			page 5

