ARM GAS  /tmp/cc0QnpuC.s 			page 1


   1              		.cpu cortex-m3
   2              		.eabi_attribute 20, 1
   3              		.eabi_attribute 21, 1
   4              		.eabi_attribute 23, 3
   5              		.eabi_attribute 24, 1
   6              		.eabi_attribute 25, 1
   7              		.eabi_attribute 26, 1
   8              		.eabi_attribute 30, 4
   9              		.eabi_attribute 34, 1
  10              		.eabi_attribute 18, 4
  11              		.file	"misc.c"
  12              		.text
  13              	.Ltext0:
  14              		.cfi_sections	.debug_frame
  15              		.section	.text.NVIC_PriorityGroupConfig,"ax",%progbits
  16              		.align	1
  17              		.global	NVIC_PriorityGroupConfig
  18              		.arch armv7-m
  19              		.syntax unified
  20              		.thumb
  21              		.thumb_func
  22              		.fpu softvfp
  24              	NVIC_PriorityGroupConfig:
  25              	.LVL0:
  26              	.LFB29:
  27              		.file 1 "../Drivers/STM32F10x_StdPeriph_Driver/src/misc.c"
   1:../Drivers/STM32F10x_StdPeriph_Driver/src/misc.c **** /**
   2:../Drivers/STM32F10x_StdPeriph_Driver/src/misc.c ****   ******************************************************************************
   3:../Drivers/STM32F10x_StdPeriph_Driver/src/misc.c ****   * @file    misc.c
   4:../Drivers/STM32F10x_StdPeriph_Driver/src/misc.c ****   * @author  MCD Application Team
   5:../Drivers/STM32F10x_StdPeriph_Driver/src/misc.c ****   * @version V3.5.0
   6:../Drivers/STM32F10x_StdPeriph_Driver/src/misc.c ****   * @date    11-March-2011
   7:../Drivers/STM32F10x_StdPeriph_Driver/src/misc.c ****   * @brief   This file provides all the miscellaneous firmware functions (add-on
   8:../Drivers/STM32F10x_StdPeriph_Driver/src/misc.c ****   *          to CMSIS functions).
   9:../Drivers/STM32F10x_StdPeriph_Driver/src/misc.c ****   ******************************************************************************
  10:../Drivers/STM32F10x_StdPeriph_Driver/src/misc.c ****   * @attention
  11:../Drivers/STM32F10x_StdPeriph_Driver/src/misc.c ****   *
  12:../Drivers/STM32F10x_StdPeriph_Driver/src/misc.c ****   * THE PRESENT FIRMWARE WHICH IS FOR GUIDANCE ONLY AIMS AT PROVIDING CUSTOMERS
  13:../Drivers/STM32F10x_StdPeriph_Driver/src/misc.c ****   * WITH CODING INFORMATION REGARDING THEIR PRODUCTS IN ORDER FOR THEM TO SAVE
  14:../Drivers/STM32F10x_StdPeriph_Driver/src/misc.c ****   * TIME. AS A RESULT, STMICROELECTRONICS SHALL NOT BE HELD LIABLE FOR ANY
  15:../Drivers/STM32F10x_StdPeriph_Driver/src/misc.c ****   * DIRECT, INDIRECT OR CONSEQUENTIAL DAMAGES WITH RESPECT TO ANY CLAIMS ARISING
  16:../Drivers/STM32F10x_StdPeriph_Driver/src/misc.c ****   * FROM THE CONTENT OF SUCH FIRMWARE AND/OR THE USE MADE BY CUSTOMERS OF THE
  17:../Drivers/STM32F10x_StdPeriph_Driver/src/misc.c ****   * CODING INFORMATION CONTAINED HEREIN IN CONNECTION WITH THEIR PRODUCTS.
  18:../Drivers/STM32F10x_StdPeriph_Driver/src/misc.c ****   *
  19:../Drivers/STM32F10x_StdPeriph_Driver/src/misc.c ****   * <h2><center>&copy; COPYRIGHT 2011 STMicroelectronics</center></h2>
  20:../Drivers/STM32F10x_StdPeriph_Driver/src/misc.c ****   ******************************************************************************
  21:../Drivers/STM32F10x_StdPeriph_Driver/src/misc.c ****   */
  22:../Drivers/STM32F10x_StdPeriph_Driver/src/misc.c **** 
  23:../Drivers/STM32F10x_StdPeriph_Driver/src/misc.c **** /* Includes ------------------------------------------------------------------*/
  24:../Drivers/STM32F10x_StdPeriph_Driver/src/misc.c **** #include "misc.h"
  25:../Drivers/STM32F10x_StdPeriph_Driver/src/misc.c **** 
  26:../Drivers/STM32F10x_StdPeriph_Driver/src/misc.c **** /** @addtogroup STM32F10x_StdPeriph_Driver
  27:../Drivers/STM32F10x_StdPeriph_Driver/src/misc.c ****   * @{
  28:../Drivers/STM32F10x_StdPeriph_Driver/src/misc.c ****   */
  29:../Drivers/STM32F10x_StdPeriph_Driver/src/misc.c **** 
  30:../Drivers/STM32F10x_StdPeriph_Driver/src/misc.c **** /** @defgroup MISC 
  31:../Drivers/STM32F10x_StdPeriph_Driver/src/misc.c ****   * @brief MISC driver modules
ARM GAS  /tmp/cc0QnpuC.s 			page 2


  32:../Drivers/STM32F10x_StdPeriph_Driver/src/misc.c ****   * @{
  33:../Drivers/STM32F10x_StdPeriph_Driver/src/misc.c ****   */
  34:../Drivers/STM32F10x_StdPeriph_Driver/src/misc.c **** 
  35:../Drivers/STM32F10x_StdPeriph_Driver/src/misc.c **** /** @defgroup MISC_Private_TypesDefinitions
  36:../Drivers/STM32F10x_StdPeriph_Driver/src/misc.c ****   * @{
  37:../Drivers/STM32F10x_StdPeriph_Driver/src/misc.c ****   */
  38:../Drivers/STM32F10x_StdPeriph_Driver/src/misc.c **** 
  39:../Drivers/STM32F10x_StdPeriph_Driver/src/misc.c **** /**
  40:../Drivers/STM32F10x_StdPeriph_Driver/src/misc.c ****   * @}
  41:../Drivers/STM32F10x_StdPeriph_Driver/src/misc.c ****   */ 
  42:../Drivers/STM32F10x_StdPeriph_Driver/src/misc.c **** 
  43:../Drivers/STM32F10x_StdPeriph_Driver/src/misc.c **** /** @defgroup MISC_Private_Defines
  44:../Drivers/STM32F10x_StdPeriph_Driver/src/misc.c ****   * @{
  45:../Drivers/STM32F10x_StdPeriph_Driver/src/misc.c ****   */
  46:../Drivers/STM32F10x_StdPeriph_Driver/src/misc.c **** 
  47:../Drivers/STM32F10x_StdPeriph_Driver/src/misc.c **** #define AIRCR_VECTKEY_MASK    ((uint32_t)0x05FA0000)
  48:../Drivers/STM32F10x_StdPeriph_Driver/src/misc.c **** /**
  49:../Drivers/STM32F10x_StdPeriph_Driver/src/misc.c ****   * @}
  50:../Drivers/STM32F10x_StdPeriph_Driver/src/misc.c ****   */
  51:../Drivers/STM32F10x_StdPeriph_Driver/src/misc.c **** 
  52:../Drivers/STM32F10x_StdPeriph_Driver/src/misc.c **** /** @defgroup MISC_Private_Macros
  53:../Drivers/STM32F10x_StdPeriph_Driver/src/misc.c ****   * @{
  54:../Drivers/STM32F10x_StdPeriph_Driver/src/misc.c ****   */
  55:../Drivers/STM32F10x_StdPeriph_Driver/src/misc.c **** 
  56:../Drivers/STM32F10x_StdPeriph_Driver/src/misc.c **** /**
  57:../Drivers/STM32F10x_StdPeriph_Driver/src/misc.c ****   * @}
  58:../Drivers/STM32F10x_StdPeriph_Driver/src/misc.c ****   */
  59:../Drivers/STM32F10x_StdPeriph_Driver/src/misc.c **** 
  60:../Drivers/STM32F10x_StdPeriph_Driver/src/misc.c **** /** @defgroup MISC_Private_Variables
  61:../Drivers/STM32F10x_StdPeriph_Driver/src/misc.c ****   * @{
  62:../Drivers/STM32F10x_StdPeriph_Driver/src/misc.c ****   */
  63:../Drivers/STM32F10x_StdPeriph_Driver/src/misc.c **** 
  64:../Drivers/STM32F10x_StdPeriph_Driver/src/misc.c **** /**
  65:../Drivers/STM32F10x_StdPeriph_Driver/src/misc.c ****   * @}
  66:../Drivers/STM32F10x_StdPeriph_Driver/src/misc.c ****   */
  67:../Drivers/STM32F10x_StdPeriph_Driver/src/misc.c **** 
  68:../Drivers/STM32F10x_StdPeriph_Driver/src/misc.c **** /** @defgroup MISC_Private_FunctionPrototypes
  69:../Drivers/STM32F10x_StdPeriph_Driver/src/misc.c ****   * @{
  70:../Drivers/STM32F10x_StdPeriph_Driver/src/misc.c ****   */
  71:../Drivers/STM32F10x_StdPeriph_Driver/src/misc.c **** 
  72:../Drivers/STM32F10x_StdPeriph_Driver/src/misc.c **** /**
  73:../Drivers/STM32F10x_StdPeriph_Driver/src/misc.c ****   * @}
  74:../Drivers/STM32F10x_StdPeriph_Driver/src/misc.c ****   */
  75:../Drivers/STM32F10x_StdPeriph_Driver/src/misc.c **** 
  76:../Drivers/STM32F10x_StdPeriph_Driver/src/misc.c **** /** @defgroup MISC_Private_Functions
  77:../Drivers/STM32F10x_StdPeriph_Driver/src/misc.c ****   * @{
  78:../Drivers/STM32F10x_StdPeriph_Driver/src/misc.c ****   */
  79:../Drivers/STM32F10x_StdPeriph_Driver/src/misc.c **** 
  80:../Drivers/STM32F10x_StdPeriph_Driver/src/misc.c **** /**
  81:../Drivers/STM32F10x_StdPeriph_Driver/src/misc.c ****   * @brief  Configures the priority grouping: pre-emption priority and subpriority.
  82:../Drivers/STM32F10x_StdPeriph_Driver/src/misc.c ****   * @param  NVIC_PriorityGroup: specifies the priority grouping bits length. 
  83:../Drivers/STM32F10x_StdPeriph_Driver/src/misc.c ****   *   This parameter can be one of the following values:
  84:../Drivers/STM32F10x_StdPeriph_Driver/src/misc.c ****   *     @arg NVIC_PriorityGroup_0: 0 bits for pre-emption priority
  85:../Drivers/STM32F10x_StdPeriph_Driver/src/misc.c ****   *                                4 bits for subpriority
  86:../Drivers/STM32F10x_StdPeriph_Driver/src/misc.c ****   *     @arg NVIC_PriorityGroup_1: 1 bits for pre-emption priority
  87:../Drivers/STM32F10x_StdPeriph_Driver/src/misc.c ****   *                                3 bits for subpriority
  88:../Drivers/STM32F10x_StdPeriph_Driver/src/misc.c ****   *     @arg NVIC_PriorityGroup_2: 2 bits for pre-emption priority
ARM GAS  /tmp/cc0QnpuC.s 			page 3


  89:../Drivers/STM32F10x_StdPeriph_Driver/src/misc.c ****   *                                2 bits for subpriority
  90:../Drivers/STM32F10x_StdPeriph_Driver/src/misc.c ****   *     @arg NVIC_PriorityGroup_3: 3 bits for pre-emption priority
  91:../Drivers/STM32F10x_StdPeriph_Driver/src/misc.c ****   *                                1 bits for subpriority
  92:../Drivers/STM32F10x_StdPeriph_Driver/src/misc.c ****   *     @arg NVIC_PriorityGroup_4: 4 bits for pre-emption priority
  93:../Drivers/STM32F10x_StdPeriph_Driver/src/misc.c ****   *                                0 bits for subpriority
  94:../Drivers/STM32F10x_StdPeriph_Driver/src/misc.c ****   * @retval None
  95:../Drivers/STM32F10x_StdPeriph_Driver/src/misc.c ****   */
  96:../Drivers/STM32F10x_StdPeriph_Driver/src/misc.c **** void NVIC_PriorityGroupConfig(uint32_t NVIC_PriorityGroup)
  97:../Drivers/STM32F10x_StdPeriph_Driver/src/misc.c **** {
  28              		.loc 1 97 1 view -0
  29              		.cfi_startproc
  30              		@ args = 0, pretend = 0, frame = 0
  31              		@ frame_needed = 0, uses_anonymous_args = 0
  32              		@ link register save eliminated.
  98:../Drivers/STM32F10x_StdPeriph_Driver/src/misc.c ****   /* Check the parameters */
  99:../Drivers/STM32F10x_StdPeriph_Driver/src/misc.c ****   assert_param(IS_NVIC_PRIORITY_GROUP(NVIC_PriorityGroup));
  33              		.loc 1 99 3 view .LVU1
 100:../Drivers/STM32F10x_StdPeriph_Driver/src/misc.c ****   
 101:../Drivers/STM32F10x_StdPeriph_Driver/src/misc.c ****   /* Set the PRIGROUP[10:8] bits according to NVIC_PriorityGroup value */
 102:../Drivers/STM32F10x_StdPeriph_Driver/src/misc.c ****   SCB->AIRCR = AIRCR_VECTKEY_MASK | NVIC_PriorityGroup;
  34              		.loc 1 102 3 view .LVU2
  35              		.loc 1 102 14 is_stmt 0 view .LVU3
  36 0000 034B     		ldr	r3, .L2
  37              		.loc 1 102 35 view .LVU4
  38 0002 40F0BF60 		orr	r0, r0, #100139008
  39              	.LVL1:
  40              		.loc 1 102 35 view .LVU5
  41 0006 40F40030 		orr	r0, r0, #131072
  42              		.loc 1 102 14 view .LVU6
  43 000a D860     		str	r0, [r3, #12]
 103:../Drivers/STM32F10x_StdPeriph_Driver/src/misc.c **** }
  44              		.loc 1 103 1 view .LVU7
  45 000c 7047     		bx	lr
  46              	.L3:
  47 000e 00BF     		.align	2
  48              	.L2:
  49 0010 00ED00E0 		.word	-536810240
  50              		.cfi_endproc
  51              	.LFE29:
  53              		.section	.text.NVIC_Init,"ax",%progbits
  54              		.align	1
  55              		.global	NVIC_Init
  56              		.syntax unified
  57              		.thumb
  58              		.thumb_func
  59              		.fpu softvfp
  61              	NVIC_Init:
  62              	.LVL2:
  63              	.LFB30:
 104:../Drivers/STM32F10x_StdPeriph_Driver/src/misc.c **** 
 105:../Drivers/STM32F10x_StdPeriph_Driver/src/misc.c **** /**
 106:../Drivers/STM32F10x_StdPeriph_Driver/src/misc.c ****   * @brief  Initializes the NVIC peripheral according to the specified
 107:../Drivers/STM32F10x_StdPeriph_Driver/src/misc.c ****   *         parameters in the NVIC_InitStruct.
 108:../Drivers/STM32F10x_StdPeriph_Driver/src/misc.c ****   * @param  NVIC_InitStruct: pointer to a NVIC_InitTypeDef structure that contains
 109:../Drivers/STM32F10x_StdPeriph_Driver/src/misc.c ****   *         the configuration information for the specified NVIC peripheral.
 110:../Drivers/STM32F10x_StdPeriph_Driver/src/misc.c ****   * @retval None
 111:../Drivers/STM32F10x_StdPeriph_Driver/src/misc.c ****   */
ARM GAS  /tmp/cc0QnpuC.s 			page 4


 112:../Drivers/STM32F10x_StdPeriph_Driver/src/misc.c **** void NVIC_Init(NVIC_InitTypeDef* NVIC_InitStruct)
 113:../Drivers/STM32F10x_StdPeriph_Driver/src/misc.c **** {
  64              		.loc 1 113 1 is_stmt 1 view -0
  65              		.cfi_startproc
  66              		@ args = 0, pretend = 0, frame = 0
  67              		@ frame_needed = 0, uses_anonymous_args = 0
 114:../Drivers/STM32F10x_StdPeriph_Driver/src/misc.c ****   uint32_t tmppriority = 0x00, tmppre = 0x00, tmpsub = 0x0F;
  68              		.loc 1 114 3 view .LVU9
 115:../Drivers/STM32F10x_StdPeriph_Driver/src/misc.c ****   
 116:../Drivers/STM32F10x_StdPeriph_Driver/src/misc.c ****   /* Check the parameters */
 117:../Drivers/STM32F10x_StdPeriph_Driver/src/misc.c ****   assert_param(IS_FUNCTIONAL_STATE(NVIC_InitStruct->NVIC_IRQChannelCmd));
  69              		.loc 1 117 3 view .LVU10
 118:../Drivers/STM32F10x_StdPeriph_Driver/src/misc.c ****   assert_param(IS_NVIC_PREEMPTION_PRIORITY(NVIC_InitStruct->NVIC_IRQChannelPreemptionPriority));  
  70              		.loc 1 118 3 view .LVU11
 119:../Drivers/STM32F10x_StdPeriph_Driver/src/misc.c ****   assert_param(IS_NVIC_SUB_PRIORITY(NVIC_InitStruct->NVIC_IRQChannelSubPriority));
  71              		.loc 1 119 3 view .LVU12
 120:../Drivers/STM32F10x_StdPeriph_Driver/src/misc.c ****     
 121:../Drivers/STM32F10x_StdPeriph_Driver/src/misc.c ****   if (NVIC_InitStruct->NVIC_IRQChannelCmd != DISABLE)
  72              		.loc 1 121 3 view .LVU13
 113:../Drivers/STM32F10x_StdPeriph_Driver/src/misc.c ****   uint32_t tmppriority = 0x00, tmppre = 0x00, tmpsub = 0x0F;
  73              		.loc 1 113 1 is_stmt 0 view .LVU14
  74 0000 70B5     		push	{r4, r5, r6, lr}
  75              	.LCFI0:
  76              		.cfi_def_cfa_offset 16
  77              		.cfi_offset 4, -16
  78              		.cfi_offset 5, -12
  79              		.cfi_offset 6, -8
  80              		.cfi_offset 14, -4
  81 0002 0125     		movs	r5, #1
  82 0004 0178     		ldrb	r1, [r0]	@ zero_extendqisi2
  83 0006 01F01F03 		and	r3, r1, #31
  84 000a 9D40     		lsls	r5, r5, r3
  85              		.loc 1 121 6 view .LVU15
  86 000c C378     		ldrb	r3, [r0, #3]	@ zero_extendqisi2
  87 000e 4C09     		lsrs	r4, r1, #5
  88 0010 C3B1     		cbz	r3, .L5
 122:../Drivers/STM32F10x_StdPeriph_Driver/src/misc.c ****   {
 123:../Drivers/STM32F10x_StdPeriph_Driver/src/misc.c ****     /* Compute the Corresponding IRQ Priority --------------------------------*/    
 124:../Drivers/STM32F10x_StdPeriph_Driver/src/misc.c ****     tmppriority = (0x700 - ((SCB->AIRCR) & (uint32_t)0x700))>> 0x08;
  89              		.loc 1 124 5 is_stmt 1 view .LVU16
  90              		.loc 1 124 33 is_stmt 0 view .LVU17
  91 0012 0F4B     		ldr	r3, .L7
  92 0014 DA68     		ldr	r2, [r3, #12]
 125:../Drivers/STM32F10x_StdPeriph_Driver/src/misc.c ****     tmppre = (0x4 - tmppriority);
 126:../Drivers/STM32F10x_StdPeriph_Driver/src/misc.c ****     tmpsub = tmpsub >> tmppriority;
 127:../Drivers/STM32F10x_StdPeriph_Driver/src/misc.c **** 
 128:../Drivers/STM32F10x_StdPeriph_Driver/src/misc.c ****     tmppriority = (uint32_t)NVIC_InitStruct->NVIC_IRQChannelPreemptionPriority << tmppre;
  93              		.loc 1 128 19 view .LVU18
  94 0016 4378     		ldrb	r3, [r0, #1]	@ zero_extendqisi2
 124:../Drivers/STM32F10x_StdPeriph_Driver/src/misc.c ****     tmppre = (0x4 - tmppriority);
  95              		.loc 1 124 26 view .LVU19
  96 0018 D243     		mvns	r2, r2
 124:../Drivers/STM32F10x_StdPeriph_Driver/src/misc.c ****     tmppre = (0x4 - tmppriority);
  97              		.loc 1 124 17 view .LVU20
  98 001a C2F30222 		ubfx	r2, r2, #8, #3
  99              	.LVL3:
 125:../Drivers/STM32F10x_StdPeriph_Driver/src/misc.c ****     tmppre = (0x4 - tmppriority);
ARM GAS  /tmp/cc0QnpuC.s 			page 5


 100              		.loc 1 125 5 is_stmt 1 view .LVU21
 125:../Drivers/STM32F10x_StdPeriph_Driver/src/misc.c ****     tmppre = (0x4 - tmppriority);
 101              		.loc 1 125 12 is_stmt 0 view .LVU22
 102 001e C2F10406 		rsb	r6, r2, #4
 103              	.LVL4:
 126:../Drivers/STM32F10x_StdPeriph_Driver/src/misc.c **** 
 104              		.loc 1 126 5 is_stmt 1 view .LVU23
 105              		.loc 1 128 5 view .LVU24
 106              		.loc 1 128 17 is_stmt 0 view .LVU25
 107 0022 03FA06F6 		lsl	r6, r3, r6
 108              	.LVL5:
 129:../Drivers/STM32F10x_StdPeriph_Driver/src/misc.c ****     tmppriority |=  NVIC_InitStruct->NVIC_IRQChannelSubPriority & tmpsub;
 109              		.loc 1 129 5 is_stmt 1 view .LVU26
 110              		.loc 1 129 36 is_stmt 0 view .LVU27
 111 0026 8378     		ldrb	r3, [r0, #2]	@ zero_extendqisi2
 126:../Drivers/STM32F10x_StdPeriph_Driver/src/misc.c **** 
 112              		.loc 1 126 12 view .LVU28
 113 0028 0F20     		movs	r0, #15
 114              	.LVL6:
 126:../Drivers/STM32F10x_StdPeriph_Driver/src/misc.c **** 
 115              		.loc 1 126 12 view .LVU29
 116 002a 20FA02F2 		lsr	r2, r0, r2
 117              	.LVL7:
 118              		.loc 1 129 65 view .LVU30
 119 002e 1340     		ands	r3, r3, r2
 120              		.loc 1 129 17 view .LVU31
 121 0030 3343     		orrs	r3, r3, r6
 122              	.LVL8:
 130:../Drivers/STM32F10x_StdPeriph_Driver/src/misc.c ****     tmppriority = tmppriority << 0x04;
 123              		.loc 1 130 5 is_stmt 1 view .LVU32
 131:../Drivers/STM32F10x_StdPeriph_Driver/src/misc.c ****         
 132:../Drivers/STM32F10x_StdPeriph_Driver/src/misc.c ****     NVIC->IP[NVIC_InitStruct->NVIC_IRQChannel] = tmppriority;
 124              		.loc 1 132 5 view .LVU33
 125              		.loc 1 132 48 is_stmt 0 view .LVU34
 126 0032 084A     		ldr	r2, .L7+4
 127              	.LVL9:
 130:../Drivers/STM32F10x_StdPeriph_Driver/src/misc.c ****     tmppriority = tmppriority << 0x04;
 128              		.loc 1 130 17 view .LVU35
 129 0034 1B01     		lsls	r3, r3, #4
 130              	.LVL10:
 131              		.loc 1 132 48 view .LVU36
 132 0036 DBB2     		uxtb	r3, r3
 133              	.LVL11:
 134              		.loc 1 132 48 view .LVU37
 135 0038 1144     		add	r1, r1, r2
 136 003a 81F80033 		strb	r3, [r1, #768]
 133:../Drivers/STM32F10x_StdPeriph_Driver/src/misc.c ****     
 134:../Drivers/STM32F10x_StdPeriph_Driver/src/misc.c ****     /* Enable the Selected IRQ Channels --------------------------------------*/
 135:../Drivers/STM32F10x_StdPeriph_Driver/src/misc.c ****     NVIC->ISER[NVIC_InitStruct->NVIC_IRQChannel >> 0x05] =
 137              		.loc 1 135 5 is_stmt 1 view .LVU38
 138              		.loc 1 135 58 is_stmt 0 view .LVU39
 139 003e 42F82450 		str	r5, [r2, r4, lsl #2]
 140              	.L4:
 136:../Drivers/STM32F10x_StdPeriph_Driver/src/misc.c ****       (uint32_t)0x01 << (NVIC_InitStruct->NVIC_IRQChannel & (uint8_t)0x1F);
 137:../Drivers/STM32F10x_StdPeriph_Driver/src/misc.c ****   }
 138:../Drivers/STM32F10x_StdPeriph_Driver/src/misc.c ****   else
 139:../Drivers/STM32F10x_StdPeriph_Driver/src/misc.c ****   {
ARM GAS  /tmp/cc0QnpuC.s 			page 6


 140:../Drivers/STM32F10x_StdPeriph_Driver/src/misc.c ****     /* Disable the Selected IRQ Channels -------------------------------------*/
 141:../Drivers/STM32F10x_StdPeriph_Driver/src/misc.c ****     NVIC->ICER[NVIC_InitStruct->NVIC_IRQChannel >> 0x05] =
 142:../Drivers/STM32F10x_StdPeriph_Driver/src/misc.c ****       (uint32_t)0x01 << (NVIC_InitStruct->NVIC_IRQChannel & (uint8_t)0x1F);
 143:../Drivers/STM32F10x_StdPeriph_Driver/src/misc.c ****   }
 144:../Drivers/STM32F10x_StdPeriph_Driver/src/misc.c **** }
 141              		.loc 1 144 1 view .LVU40
 142 0042 70BD     		pop	{r4, r5, r6, pc}
 143              	.LVL12:
 144              	.L5:
 141:../Drivers/STM32F10x_StdPeriph_Driver/src/misc.c ****       (uint32_t)0x01 << (NVIC_InitStruct->NVIC_IRQChannel & (uint8_t)0x1F);
 145              		.loc 1 141 5 is_stmt 1 view .LVU41
 141:../Drivers/STM32F10x_StdPeriph_Driver/src/misc.c ****       (uint32_t)0x01 << (NVIC_InitStruct->NVIC_IRQChannel & (uint8_t)0x1F);
 146              		.loc 1 141 58 is_stmt 0 view .LVU42
 147 0044 034B     		ldr	r3, .L7+4
 148 0046 2034     		adds	r4, r4, #32
 149 0048 43F82450 		str	r5, [r3, r4, lsl #2]
 150              		.loc 1 144 1 view .LVU43
 151 004c F9E7     		b	.L4
 152              	.L8:
 153 004e 00BF     		.align	2
 154              	.L7:
 155 0050 00ED00E0 		.word	-536810240
 156 0054 00E100E0 		.word	-536813312
 157              		.cfi_endproc
 158              	.LFE30:
 160              		.section	.text.NVIC_SetVectorTable,"ax",%progbits
 161              		.align	1
 162              		.global	NVIC_SetVectorTable
 163              		.syntax unified
 164              		.thumb
 165              		.thumb_func
 166              		.fpu softvfp
 168              	NVIC_SetVectorTable:
 169              	.LVL13:
 170              	.LFB31:
 145:../Drivers/STM32F10x_StdPeriph_Driver/src/misc.c **** 
 146:../Drivers/STM32F10x_StdPeriph_Driver/src/misc.c **** /**
 147:../Drivers/STM32F10x_StdPeriph_Driver/src/misc.c ****   * @brief  Sets the vector table location and Offset.
 148:../Drivers/STM32F10x_StdPeriph_Driver/src/misc.c ****   * @param  NVIC_VectTab: specifies if the vector table is in RAM or FLASH memory.
 149:../Drivers/STM32F10x_StdPeriph_Driver/src/misc.c ****   *   This parameter can be one of the following values:
 150:../Drivers/STM32F10x_StdPeriph_Driver/src/misc.c ****   *     @arg NVIC_VectTab_RAM
 151:../Drivers/STM32F10x_StdPeriph_Driver/src/misc.c ****   *     @arg NVIC_VectTab_FLASH
 152:../Drivers/STM32F10x_StdPeriph_Driver/src/misc.c ****   * @param  Offset: Vector Table base offset field. This value must be a multiple 
 153:../Drivers/STM32F10x_StdPeriph_Driver/src/misc.c ****   *         of 0x200.
 154:../Drivers/STM32F10x_StdPeriph_Driver/src/misc.c ****   * @retval None
 155:../Drivers/STM32F10x_StdPeriph_Driver/src/misc.c ****   */
 156:../Drivers/STM32F10x_StdPeriph_Driver/src/misc.c **** void NVIC_SetVectorTable(uint32_t NVIC_VectTab, uint32_t Offset)
 157:../Drivers/STM32F10x_StdPeriph_Driver/src/misc.c **** { 
 171              		.loc 1 157 1 is_stmt 1 view -0
 172              		.cfi_startproc
 173              		@ args = 0, pretend = 0, frame = 0
 174              		@ frame_needed = 0, uses_anonymous_args = 0
 175              		@ link register save eliminated.
 158:../Drivers/STM32F10x_StdPeriph_Driver/src/misc.c ****   /* Check the parameters */
 159:../Drivers/STM32F10x_StdPeriph_Driver/src/misc.c ****   assert_param(IS_NVIC_VECTTAB(NVIC_VectTab));
 176              		.loc 1 159 3 view .LVU45
 160:../Drivers/STM32F10x_StdPeriph_Driver/src/misc.c ****   assert_param(IS_NVIC_OFFSET(Offset));  
ARM GAS  /tmp/cc0QnpuC.s 			page 7


 177              		.loc 1 160 3 view .LVU46
 161:../Drivers/STM32F10x_StdPeriph_Driver/src/misc.c ****    
 162:../Drivers/STM32F10x_StdPeriph_Driver/src/misc.c ****   SCB->VTOR = NVIC_VectTab | (Offset & (uint32_t)0x1FFFFF80);
 178              		.loc 1 162 3 view .LVU47
 179              		.loc 1 162 38 is_stmt 0 view .LVU48
 180 0000 21F06041 		bic	r1, r1, #-536870912
 181              	.LVL14:
 182              		.loc 1 162 13 view .LVU49
 183 0004 024B     		ldr	r3, .L10
 184              		.loc 1 162 38 view .LVU50
 185 0006 21F07F01 		bic	r1, r1, #127
 186              		.loc 1 162 28 view .LVU51
 187 000a 0143     		orrs	r1, r1, r0
 188              		.loc 1 162 13 view .LVU52
 189 000c 9960     		str	r1, [r3, #8]
 163:../Drivers/STM32F10x_StdPeriph_Driver/src/misc.c **** }
 190              		.loc 1 163 1 view .LVU53
 191 000e 7047     		bx	lr
 192              	.L11:
 193              		.align	2
 194              	.L10:
 195 0010 00ED00E0 		.word	-536810240
 196              		.cfi_endproc
 197              	.LFE31:
 199              		.section	.text.NVIC_SystemLPConfig,"ax",%progbits
 200              		.align	1
 201              		.global	NVIC_SystemLPConfig
 202              		.syntax unified
 203              		.thumb
 204              		.thumb_func
 205              		.fpu softvfp
 207              	NVIC_SystemLPConfig:
 208              	.LVL15:
 209              	.LFB32:
 164:../Drivers/STM32F10x_StdPeriph_Driver/src/misc.c **** 
 165:../Drivers/STM32F10x_StdPeriph_Driver/src/misc.c **** /**
 166:../Drivers/STM32F10x_StdPeriph_Driver/src/misc.c ****   * @brief  Selects the condition for the system to enter low power mode.
 167:../Drivers/STM32F10x_StdPeriph_Driver/src/misc.c ****   * @param  LowPowerMode: Specifies the new mode for the system to enter low power mode.
 168:../Drivers/STM32F10x_StdPeriph_Driver/src/misc.c ****   *   This parameter can be one of the following values:
 169:../Drivers/STM32F10x_StdPeriph_Driver/src/misc.c ****   *     @arg NVIC_LP_SEVONPEND
 170:../Drivers/STM32F10x_StdPeriph_Driver/src/misc.c ****   *     @arg NVIC_LP_SLEEPDEEP
 171:../Drivers/STM32F10x_StdPeriph_Driver/src/misc.c ****   *     @arg NVIC_LP_SLEEPONEXIT
 172:../Drivers/STM32F10x_StdPeriph_Driver/src/misc.c ****   * @param  NewState: new state of LP condition. This parameter can be: ENABLE or DISABLE.
 173:../Drivers/STM32F10x_StdPeriph_Driver/src/misc.c ****   * @retval None
 174:../Drivers/STM32F10x_StdPeriph_Driver/src/misc.c ****   */
 175:../Drivers/STM32F10x_StdPeriph_Driver/src/misc.c **** void NVIC_SystemLPConfig(uint8_t LowPowerMode, FunctionalState NewState)
 176:../Drivers/STM32F10x_StdPeriph_Driver/src/misc.c **** {
 210              		.loc 1 176 1 is_stmt 1 view -0
 211              		.cfi_startproc
 212              		@ args = 0, pretend = 0, frame = 0
 213              		@ frame_needed = 0, uses_anonymous_args = 0
 214              		@ link register save eliminated.
 177:../Drivers/STM32F10x_StdPeriph_Driver/src/misc.c ****   /* Check the parameters */
 178:../Drivers/STM32F10x_StdPeriph_Driver/src/misc.c ****   assert_param(IS_NVIC_LP(LowPowerMode));
 215              		.loc 1 178 3 view .LVU55
 179:../Drivers/STM32F10x_StdPeriph_Driver/src/misc.c ****   assert_param(IS_FUNCTIONAL_STATE(NewState));  
 216              		.loc 1 179 3 view .LVU56
ARM GAS  /tmp/cc0QnpuC.s 			page 8


 180:../Drivers/STM32F10x_StdPeriph_Driver/src/misc.c ****   
 181:../Drivers/STM32F10x_StdPeriph_Driver/src/misc.c ****   if (NewState != DISABLE)
 217              		.loc 1 181 3 view .LVU57
 218 0000 044B     		ldr	r3, .L16
 182:../Drivers/STM32F10x_StdPeriph_Driver/src/misc.c ****   {
 183:../Drivers/STM32F10x_StdPeriph_Driver/src/misc.c ****     SCB->SCR |= LowPowerMode;
 219              		.loc 1 183 14 is_stmt 0 view .LVU58
 220 0002 1A69     		ldr	r2, [r3, #16]
 181:../Drivers/STM32F10x_StdPeriph_Driver/src/misc.c ****   {
 221              		.loc 1 181 6 view .LVU59
 222 0004 11B1     		cbz	r1, .L13
 223              		.loc 1 183 5 is_stmt 1 view .LVU60
 224              		.loc 1 183 14 is_stmt 0 view .LVU61
 225 0006 1043     		orrs	r0, r0, r2
 226              	.LVL16:
 227              	.L15:
 184:../Drivers/STM32F10x_StdPeriph_Driver/src/misc.c ****   }
 185:../Drivers/STM32F10x_StdPeriph_Driver/src/misc.c ****   else
 186:../Drivers/STM32F10x_StdPeriph_Driver/src/misc.c ****   {
 187:../Drivers/STM32F10x_StdPeriph_Driver/src/misc.c ****     SCB->SCR &= (uint32_t)(~(uint32_t)LowPowerMode);
 228              		.loc 1 187 14 view .LVU62
 229 0008 1861     		str	r0, [r3, #16]
 188:../Drivers/STM32F10x_StdPeriph_Driver/src/misc.c ****   }
 189:../Drivers/STM32F10x_StdPeriph_Driver/src/misc.c **** }
 230              		.loc 1 189 1 view .LVU63
 231 000a 7047     		bx	lr
 232              	.LVL17:
 233              	.L13:
 187:../Drivers/STM32F10x_StdPeriph_Driver/src/misc.c ****   }
 234              		.loc 1 187 5 is_stmt 1 view .LVU64
 187:../Drivers/STM32F10x_StdPeriph_Driver/src/misc.c ****   }
 235              		.loc 1 187 14 is_stmt 0 view .LVU65
 236 000c 22EA0000 		bic	r0, r2, r0
 237              	.LVL18:
 187:../Drivers/STM32F10x_StdPeriph_Driver/src/misc.c ****   }
 238              		.loc 1 187 14 view .LVU66
 239 0010 FAE7     		b	.L15
 240              	.L17:
 241 0012 00BF     		.align	2
 242              	.L16:
 243 0014 00ED00E0 		.word	-536810240
 244              		.cfi_endproc
 245              	.LFE32:
 247              		.section	.text.SysTick_CLKSourceConfig,"ax",%progbits
 248              		.align	1
 249              		.global	SysTick_CLKSourceConfig
 250              		.syntax unified
 251              		.thumb
 252              		.thumb_func
 253              		.fpu softvfp
 255              	SysTick_CLKSourceConfig:
 256              	.LVL19:
 257              	.LFB33:
 190:../Drivers/STM32F10x_StdPeriph_Driver/src/misc.c **** 
 191:../Drivers/STM32F10x_StdPeriph_Driver/src/misc.c **** /**
 192:../Drivers/STM32F10x_StdPeriph_Driver/src/misc.c ****   * @brief  Configures the SysTick clock source.
 193:../Drivers/STM32F10x_StdPeriph_Driver/src/misc.c ****   * @param  SysTick_CLKSource: specifies the SysTick clock source.
ARM GAS  /tmp/cc0QnpuC.s 			page 9


 194:../Drivers/STM32F10x_StdPeriph_Driver/src/misc.c ****   *   This parameter can be one of the following values:
 195:../Drivers/STM32F10x_StdPeriph_Driver/src/misc.c ****   *     @arg SysTick_CLKSource_HCLK_Div8: AHB clock divided by 8 selected as SysTick clock source.
 196:../Drivers/STM32F10x_StdPeriph_Driver/src/misc.c ****   *     @arg SysTick_CLKSource_HCLK: AHB clock selected as SysTick clock source.
 197:../Drivers/STM32F10x_StdPeriph_Driver/src/misc.c ****   * @retval None
 198:../Drivers/STM32F10x_StdPeriph_Driver/src/misc.c ****   */
 199:../Drivers/STM32F10x_StdPeriph_Driver/src/misc.c **** void SysTick_CLKSourceConfig(uint32_t SysTick_CLKSource)
 200:../Drivers/STM32F10x_StdPeriph_Driver/src/misc.c **** {
 258              		.loc 1 200 1 is_stmt 1 view -0
 259              		.cfi_startproc
 260              		@ args = 0, pretend = 0, frame = 0
 261              		@ frame_needed = 0, uses_anonymous_args = 0
 262              		@ link register save eliminated.
 201:../Drivers/STM32F10x_StdPeriph_Driver/src/misc.c ****   /* Check the parameters */
 202:../Drivers/STM32F10x_StdPeriph_Driver/src/misc.c ****   assert_param(IS_SYSTICK_CLK_SOURCE(SysTick_CLKSource));
 263              		.loc 1 202 3 view .LVU68
 203:../Drivers/STM32F10x_StdPeriph_Driver/src/misc.c ****   if (SysTick_CLKSource == SysTick_CLKSource_HCLK)
 264              		.loc 1 203 3 view .LVU69
 265 0000 044B     		ldr	r3, .L22
 266              		.loc 1 203 6 is_stmt 0 view .LVU70
 267 0002 0428     		cmp	r0, #4
 204:../Drivers/STM32F10x_StdPeriph_Driver/src/misc.c ****   {
 205:../Drivers/STM32F10x_StdPeriph_Driver/src/misc.c ****     SysTick->CTRL |= SysTick_CLKSource_HCLK;
 268              		.loc 1 205 19 view .LVU71
 269 0004 1A68     		ldr	r2, [r3]
 270              		.loc 1 205 5 is_stmt 1 view .LVU72
 271              		.loc 1 205 19 is_stmt 0 view .LVU73
 272 0006 0CBF     		ite	eq
 273 0008 42F00402 		orreq	r2, r2, #4
 206:../Drivers/STM32F10x_StdPeriph_Driver/src/misc.c ****   }
 207:../Drivers/STM32F10x_StdPeriph_Driver/src/misc.c ****   else
 208:../Drivers/STM32F10x_StdPeriph_Driver/src/misc.c ****   {
 209:../Drivers/STM32F10x_StdPeriph_Driver/src/misc.c ****     SysTick->CTRL &= SysTick_CLKSource_HCLK_Div8;
 274              		.loc 1 209 5 is_stmt 1 view .LVU74
 275              		.loc 1 209 19 is_stmt 0 view .LVU75
 276 000c 22F00402 		bicne	r2, r2, #4
 277 0010 1A60     		str	r2, [r3]
 210:../Drivers/STM32F10x_StdPeriph_Driver/src/misc.c ****   }
 211:../Drivers/STM32F10x_StdPeriph_Driver/src/misc.c **** }
 278              		.loc 1 211 1 view .LVU76
 279 0012 7047     		bx	lr
 280              	.L23:
 281              		.align	2
 282              	.L22:
 283 0014 10E000E0 		.word	-536813552
 284              		.cfi_endproc
 285              	.LFE33:
 287              		.text
 288              	.Letext0:
 289              		.file 2 "/usr/lib/gcc/arm-none-eabi/9.2.1/include/stdint.h"
 290              		.file 3 "../Drivers/CMSIS/CM3/CoreSupport/core_cm3.h"
 291              		.file 4 "../Drivers/CMSIS/CM3/DeviceSupport/ST/STM32F10x/system_stm32f10x.h"
 292              		.file 5 "../Drivers/CMSIS/CM3/DeviceSupport/ST/STM32F10x/stm32f10x.h"
 293              		.file 6 "../Drivers/STM32F10x_StdPeriph_Driver/inc/misc.h"
ARM GAS  /tmp/cc0QnpuC.s 			page 10

