ARM GAS  /tmp/ccVSt2Mv.s 			page 1


   1              		.cpu cortex-m3
   2              		.eabi_attribute 20, 1
   3              		.eabi_attribute 21, 1
   4              		.eabi_attribute 23, 3
   5              		.eabi_attribute 24, 1
   6              		.eabi_attribute 25, 1
   7              		.eabi_attribute 26, 1
   8              		.eabi_attribute 30, 4
   9              		.eabi_attribute 34, 1
  10              		.eabi_attribute 18, 4
  11              		.file	"usb_int.c"
  12              		.text
  13              	.Ltext0:
  14              		.cfi_sections	.debug_frame
  15              		.section	.text.CTR_LP,"ax",%progbits
  16              		.align	1
  17              		.global	CTR_LP
  18              		.arch armv7-m
  19              		.syntax unified
  20              		.thumb
  21              		.thumb_func
  22              		.fpu softvfp
  24              	CTR_LP:
  25              	.LFB29:
  26              		.file 1 "../Drivers/STM32_USB-FS-Device_Driver/src/usb_int.c"
   1:../Drivers/STM32_USB-FS-Device_Driver/src/usb_int.c **** /**
   2:../Drivers/STM32_USB-FS-Device_Driver/src/usb_int.c ****   ******************************************************************************
   3:../Drivers/STM32_USB-FS-Device_Driver/src/usb_int.c ****   * @file    usb_int.c
   4:../Drivers/STM32_USB-FS-Device_Driver/src/usb_int.c ****   * @author  MCD Application Team
   5:../Drivers/STM32_USB-FS-Device_Driver/src/usb_int.c ****   * @version V4.1.0
   6:../Drivers/STM32_USB-FS-Device_Driver/src/usb_int.c ****   * @date    26-May-2017
   7:../Drivers/STM32_USB-FS-Device_Driver/src/usb_int.c ****   * @brief   Endpoint CTR (Low and High) interrupt's service routines
   8:../Drivers/STM32_USB-FS-Device_Driver/src/usb_int.c ****   ******************************************************************************
   9:../Drivers/STM32_USB-FS-Device_Driver/src/usb_int.c ****   * @attention
  10:../Drivers/STM32_USB-FS-Device_Driver/src/usb_int.c ****   *
  11:../Drivers/STM32_USB-FS-Device_Driver/src/usb_int.c ****   * <h2><center>&copy; Copyright (c) 2017 STMicroelectronics International N.V. 
  12:../Drivers/STM32_USB-FS-Device_Driver/src/usb_int.c ****   * All rights reserved.</center></h2>
  13:../Drivers/STM32_USB-FS-Device_Driver/src/usb_int.c ****   *
  14:../Drivers/STM32_USB-FS-Device_Driver/src/usb_int.c ****   * Redistribution and use in source and binary forms, with or without 
  15:../Drivers/STM32_USB-FS-Device_Driver/src/usb_int.c ****   * modification, are permitted, provided that the following conditions are met:
  16:../Drivers/STM32_USB-FS-Device_Driver/src/usb_int.c ****   *
  17:../Drivers/STM32_USB-FS-Device_Driver/src/usb_int.c ****   * 1. Redistribution of source code must retain the above copyright notice, 
  18:../Drivers/STM32_USB-FS-Device_Driver/src/usb_int.c ****   *    this list of conditions and the following disclaimer.
  19:../Drivers/STM32_USB-FS-Device_Driver/src/usb_int.c ****   * 2. Redistributions in binary form must reproduce the above copyright notice,
  20:../Drivers/STM32_USB-FS-Device_Driver/src/usb_int.c ****   *    this list of conditions and the following disclaimer in the documentation
  21:../Drivers/STM32_USB-FS-Device_Driver/src/usb_int.c ****   *    and/or other materials provided with the distribution.
  22:../Drivers/STM32_USB-FS-Device_Driver/src/usb_int.c ****   * 3. Neither the name of STMicroelectronics nor the names of other 
  23:../Drivers/STM32_USB-FS-Device_Driver/src/usb_int.c ****   *    contributors to this software may be used to endorse or promote products 
  24:../Drivers/STM32_USB-FS-Device_Driver/src/usb_int.c ****   *    derived from this software without specific written permission.
  25:../Drivers/STM32_USB-FS-Device_Driver/src/usb_int.c ****   * 4. This software, including modifications and/or derivative works of this 
  26:../Drivers/STM32_USB-FS-Device_Driver/src/usb_int.c ****   *    software, must execute solely and exclusively on microcontroller or
  27:../Drivers/STM32_USB-FS-Device_Driver/src/usb_int.c ****   *    microprocessor devices manufactured by or for STMicroelectronics.
  28:../Drivers/STM32_USB-FS-Device_Driver/src/usb_int.c ****   * 5. Redistribution and use of this software other than as permitted under 
  29:../Drivers/STM32_USB-FS-Device_Driver/src/usb_int.c ****   *    this license is void and will automatically terminate your rights under 
  30:../Drivers/STM32_USB-FS-Device_Driver/src/usb_int.c ****   *    this license. 
  31:../Drivers/STM32_USB-FS-Device_Driver/src/usb_int.c ****   *
  32:../Drivers/STM32_USB-FS-Device_Driver/src/usb_int.c ****   * THIS SOFTWARE IS PROVIDED BY STMICROELECTRONICS AND CONTRIBUTORS "AS IS" 
ARM GAS  /tmp/ccVSt2Mv.s 			page 2


  33:../Drivers/STM32_USB-FS-Device_Driver/src/usb_int.c ****   * AND ANY EXPRESS, IMPLIED OR STATUTORY WARRANTIES, INCLUDING, BUT NOT 
  34:../Drivers/STM32_USB-FS-Device_Driver/src/usb_int.c ****   * LIMITED TO, THE IMPLIED WARRANTIES OF MERCHANTABILITY, FITNESS FOR A 
  35:../Drivers/STM32_USB-FS-Device_Driver/src/usb_int.c ****   * PARTICULAR PURPOSE AND NON-INFRINGEMENT OF THIRD PARTY INTELLECTUAL PROPERTY
  36:../Drivers/STM32_USB-FS-Device_Driver/src/usb_int.c ****   * RIGHTS ARE DISCLAIMED TO THE FULLEST EXTENT PERMITTED BY LAW. IN NO EVENT 
  37:../Drivers/STM32_USB-FS-Device_Driver/src/usb_int.c ****   * SHALL STMICROELECTRONICS OR CONTRIBUTORS BE LIABLE FOR ANY DIRECT, INDIRECT,
  38:../Drivers/STM32_USB-FS-Device_Driver/src/usb_int.c ****   * INCIDENTAL, SPECIAL, EXEMPLARY, OR CONSEQUENTIAL DAMAGES (INCLUDING, BUT NOT
  39:../Drivers/STM32_USB-FS-Device_Driver/src/usb_int.c ****   * LIMITED TO, PROCUREMENT OF SUBSTITUTE GOODS OR SERVICES; LOSS OF USE, DATA, 
  40:../Drivers/STM32_USB-FS-Device_Driver/src/usb_int.c ****   * OR PROFITS; OR BUSINESS INTERRUPTION) HOWEVER CAUSED AND ON ANY THEORY OF 
  41:../Drivers/STM32_USB-FS-Device_Driver/src/usb_int.c ****   * LIABILITY, WHETHER IN CONTRACT, STRICT LIABILITY, OR TORT (INCLUDING 
  42:../Drivers/STM32_USB-FS-Device_Driver/src/usb_int.c ****   * NEGLIGENCE OR OTHERWISE) ARISING IN ANY WAY OUT OF THE USE OF THIS SOFTWARE,
  43:../Drivers/STM32_USB-FS-Device_Driver/src/usb_int.c ****   * EVEN IF ADVISED OF THE POSSIBILITY OF SUCH DAMAGE.
  44:../Drivers/STM32_USB-FS-Device_Driver/src/usb_int.c ****   *
  45:../Drivers/STM32_USB-FS-Device_Driver/src/usb_int.c ****   ******************************************************************************
  46:../Drivers/STM32_USB-FS-Device_Driver/src/usb_int.c ****   */
  47:../Drivers/STM32_USB-FS-Device_Driver/src/usb_int.c **** 
  48:../Drivers/STM32_USB-FS-Device_Driver/src/usb_int.c **** /* Includes ------------------------------------------------------------------*/
  49:../Drivers/STM32_USB-FS-Device_Driver/src/usb_int.c **** #include "usb_lib.h"
  50:../Drivers/STM32_USB-FS-Device_Driver/src/usb_int.c **** 
  51:../Drivers/STM32_USB-FS-Device_Driver/src/usb_int.c **** /* Private typedef -----------------------------------------------------------*/
  52:../Drivers/STM32_USB-FS-Device_Driver/src/usb_int.c **** /* Private define ------------------------------------------------------------*/
  53:../Drivers/STM32_USB-FS-Device_Driver/src/usb_int.c **** /* Private macro -------------------------------------------------------------*/
  54:../Drivers/STM32_USB-FS-Device_Driver/src/usb_int.c **** /* Private variables ---------------------------------------------------------*/
  55:../Drivers/STM32_USB-FS-Device_Driver/src/usb_int.c **** __IO uint16_t SaveRState;
  56:../Drivers/STM32_USB-FS-Device_Driver/src/usb_int.c **** __IO uint16_t SaveTState;
  57:../Drivers/STM32_USB-FS-Device_Driver/src/usb_int.c **** 
  58:../Drivers/STM32_USB-FS-Device_Driver/src/usb_int.c **** /* Extern variables ----------------------------------------------------------*/
  59:../Drivers/STM32_USB-FS-Device_Driver/src/usb_int.c **** extern void (*pEpInt_IN[7])(void);    /*  Handles IN  interrupts   */
  60:../Drivers/STM32_USB-FS-Device_Driver/src/usb_int.c **** extern void (*pEpInt_OUT[7])(void);   /*  Handles OUT interrupts   */
  61:../Drivers/STM32_USB-FS-Device_Driver/src/usb_int.c **** 
  62:../Drivers/STM32_USB-FS-Device_Driver/src/usb_int.c **** /* Private function prototypes -----------------------------------------------*/
  63:../Drivers/STM32_USB-FS-Device_Driver/src/usb_int.c **** /* Private functions ---------------------------------------------------------*/
  64:../Drivers/STM32_USB-FS-Device_Driver/src/usb_int.c **** 
  65:../Drivers/STM32_USB-FS-Device_Driver/src/usb_int.c **** /**
  66:../Drivers/STM32_USB-FS-Device_Driver/src/usb_int.c **** * Function Name  : CTR_LP.
  67:../Drivers/STM32_USB-FS-Device_Driver/src/usb_int.c **** * Description    : Low priority Endpoint Correct Transfer interrupt's service
  68:../Drivers/STM32_USB-FS-Device_Driver/src/usb_int.c **** *                  routine.
  69:../Drivers/STM32_USB-FS-Device_Driver/src/usb_int.c **** * Input          : None.
  70:../Drivers/STM32_USB-FS-Device_Driver/src/usb_int.c **** * Output         : None.
  71:../Drivers/STM32_USB-FS-Device_Driver/src/usb_int.c **** * Return         : None.
  72:../Drivers/STM32_USB-FS-Device_Driver/src/usb_int.c **** **/
  73:../Drivers/STM32_USB-FS-Device_Driver/src/usb_int.c **** void CTR_LP(void)
  74:../Drivers/STM32_USB-FS-Device_Driver/src/usb_int.c **** {
  27              		.loc 1 74 1 view -0
  28              		.cfi_startproc
  29              		@ args = 0, pretend = 0, frame = 8
  30              		@ frame_needed = 0, uses_anonymous_args = 0
  75:../Drivers/STM32_USB-FS-Device_Driver/src/usb_int.c ****   __IO uint16_t wEPVal = 0;
  31              		.loc 1 75 3 view .LVU1
  32              		.loc 1 75 17 is_stmt 0 view .LVU2
  33 0000 0023     		movs	r3, #0
  74:../Drivers/STM32_USB-FS-Device_Driver/src/usb_int.c ****   __IO uint16_t wEPVal = 0;
  34              		.loc 1 74 1 view .LVU3
  35 0002 2DE9F743 		push	{r0, r1, r2, r4, r5, r6, r7, r8, r9, lr}
  36              	.LCFI0:
  37              		.cfi_def_cfa_offset 40
  38              		.cfi_offset 4, -28
  39              		.cfi_offset 5, -24
ARM GAS  /tmp/ccVSt2Mv.s 			page 3


  40              		.cfi_offset 6, -20
  41              		.cfi_offset 7, -16
  42              		.cfi_offset 8, -12
  43              		.cfi_offset 9, -8
  44              		.cfi_offset 14, -4
  76:../Drivers/STM32_USB-FS-Device_Driver/src/usb_int.c ****   /* stay in loop while pending interrupts */
  77:../Drivers/STM32_USB-FS-Device_Driver/src/usb_int.c ****   while (((wIstr = _GetISTR()) & ISTR_CTR) != 0)
  45              		.loc 1 77 20 view .LVU4
  46 0006 DFF87091 		ldr	r9, .L76+24
  78:../Drivers/STM32_USB-FS-Device_Driver/src/usb_int.c ****   {
  79:../Drivers/STM32_USB-FS-Device_Driver/src/usb_int.c ****     /* extract highest priority endpoint number */
  80:../Drivers/STM32_USB-FS-Device_Driver/src/usb_int.c ****     EPindex = (uint8_t)(wIstr & ISTR_EP_ID);
  47              		.loc 1 80 13 view .LVU5
  48 000a DFF87081 		ldr	r8, .L76+28
  75:../Drivers/STM32_USB-FS-Device_Driver/src/usb_int.c ****   /* stay in loop while pending interrupts */
  49              		.loc 1 75 17 view .LVU6
  50 000e ADF80630 		strh	r3, [sp, #6]	@ movhi
  77:../Drivers/STM32_USB-FS-Device_Driver/src/usb_int.c ****   {
  51              		.loc 1 77 3 is_stmt 1 view .LVU7
  52              	.L2:
  77:../Drivers/STM32_USB-FS-Device_Driver/src/usb_int.c ****   {
  53              		.loc 1 77 9 view .LVU8
  77:../Drivers/STM32_USB-FS-Device_Driver/src/usb_int.c ****   {
  54              		.loc 1 77 20 is_stmt 0 view .LVU9
  55 0012 D9F80030 		ldr	r3, [r9]
  77:../Drivers/STM32_USB-FS-Device_Driver/src/usb_int.c ****   {
  56              		.loc 1 77 18 view .LVU10
  57 0016 524A     		ldr	r2, .L76
  77:../Drivers/STM32_USB-FS-Device_Driver/src/usb_int.c ****   {
  58              		.loc 1 77 20 view .LVU11
  59 0018 99B2     		uxth	r1, r3
  77:../Drivers/STM32_USB-FS-Device_Driver/src/usb_int.c ****   {
  60              		.loc 1 77 9 view .LVU12
  61 001a 1B04     		lsls	r3, r3, #16
  77:../Drivers/STM32_USB-FS-Device_Driver/src/usb_int.c ****   {
  62              		.loc 1 77 18 view .LVU13
  63 001c 1180     		strh	r1, [r2]	@ movhi
  77:../Drivers/STM32_USB-FS-Device_Driver/src/usb_int.c ****   {
  64              		.loc 1 77 9 view .LVU14
  65 001e 4CD5     		bpl	.L1
  66              		.loc 1 80 5 is_stmt 1 view .LVU15
  67              		.loc 1 80 31 is_stmt 0 view .LVU16
  68 0020 1388     		ldrh	r3, [r2]
  69              		.loc 1 80 15 view .LVU17
  70 0022 03F00F03 		and	r3, r3, #15
  71              		.loc 1 80 13 view .LVU18
  72 0026 88F80030 		strb	r3, [r8]
  81:../Drivers/STM32_USB-FS-Device_Driver/src/usb_int.c ****     if (EPindex == 0)
  73              		.loc 1 81 5 is_stmt 1 view .LVU19
  74              		.loc 1 81 8 is_stmt 0 view .LVU20
  75 002a 002B     		cmp	r3, #0
  76 002c 65D1     		bne	.L3
  82:../Drivers/STM32_USB-FS-Device_Driver/src/usb_int.c ****     {
  83:../Drivers/STM32_USB-FS-Device_Driver/src/usb_int.c ****       /* Decode and service control endpoint interrupt */
  84:../Drivers/STM32_USB-FS-Device_Driver/src/usb_int.c ****       /* calling related service routine */
  85:../Drivers/STM32_USB-FS-Device_Driver/src/usb_int.c ****       /* (Setup0_Process, In0_Process, Out0_Process) */
  86:../Drivers/STM32_USB-FS-Device_Driver/src/usb_int.c **** 
ARM GAS  /tmp/ccVSt2Mv.s 			page 4


  87:../Drivers/STM32_USB-FS-Device_Driver/src/usb_int.c ****       /* save RX & TX status */
  88:../Drivers/STM32_USB-FS-Device_Driver/src/usb_int.c ****       /* and set both to NAK */
  89:../Drivers/STM32_USB-FS-Device_Driver/src/usb_int.c ****       
  90:../Drivers/STM32_USB-FS-Device_Driver/src/usb_int.c **** 	    SaveRState = _GetENDPOINT(ENDP0);
  77              		.loc 1 90 6 is_stmt 1 view .LVU21
  78              	.LBB2:
  91:../Drivers/STM32_USB-FS-Device_Driver/src/usb_int.c **** 	    SaveTState = SaveRState & EPTX_STAT;
  92:../Drivers/STM32_USB-FS-Device_Driver/src/usb_int.c **** 	    SaveRState &=  EPRX_STAT;	
  93:../Drivers/STM32_USB-FS-Device_Driver/src/usb_int.c **** 
  94:../Drivers/STM32_USB-FS-Device_Driver/src/usb_int.c **** 	    _SetEPRxTxStatus(ENDP0,EP_RX_NAK,EP_TX_NAK);
  79              		.loc 1 94 6 is_stmt 0 view .LVU22
  80 002e 4BF6BF76 		movw	r6, #49087
  81              	.LBE2:
  90:../Drivers/STM32_USB-FS-Device_Driver/src/usb_int.c **** 	    SaveTState = SaveRState & EPTX_STAT;
  82              		.loc 1 90 19 view .LVU23
  83 0032 4C4C     		ldr	r4, .L76+4
  90:../Drivers/STM32_USB-FS-Device_Driver/src/usb_int.c **** 	    SaveTState = SaveRState & EPTX_STAT;
  84              		.loc 1 90 17 view .LVU24
  85 0034 4C4D     		ldr	r5, .L76+8
  90:../Drivers/STM32_USB-FS-Device_Driver/src/usb_int.c **** 	    SaveTState = SaveRState & EPTX_STAT;
  86              		.loc 1 90 19 view .LVU25
  87 0036 2368     		ldr	r3, [r4]
  91:../Drivers/STM32_USB-FS-Device_Driver/src/usb_int.c **** 	    SaveTState = SaveRState & EPTX_STAT;
  88              		.loc 1 91 17 view .LVU26
  89 0038 4C4F     		ldr	r7, .L76+12
  90:../Drivers/STM32_USB-FS-Device_Driver/src/usb_int.c **** 	    SaveTState = SaveRState & EPTX_STAT;
  90              		.loc 1 90 19 view .LVU27
  91 003a 9BB2     		uxth	r3, r3
  90:../Drivers/STM32_USB-FS-Device_Driver/src/usb_int.c **** 	    SaveTState = SaveRState & EPTX_STAT;
  92              		.loc 1 90 17 view .LVU28
  93 003c 2B80     		strh	r3, [r5]	@ movhi
  91:../Drivers/STM32_USB-FS-Device_Driver/src/usb_int.c **** 	    SaveTState = SaveRState & EPTX_STAT;
  94              		.loc 1 91 6 is_stmt 1 view .LVU29
  91:../Drivers/STM32_USB-FS-Device_Driver/src/usb_int.c **** 	    SaveTState = SaveRState & EPTX_STAT;
  95              		.loc 1 91 30 is_stmt 0 view .LVU30
  96 003e 2B88     		ldrh	r3, [r5]
  97 0040 03F03003 		and	r3, r3, #48
  91:../Drivers/STM32_USB-FS-Device_Driver/src/usb_int.c **** 	    SaveTState = SaveRState & EPTX_STAT;
  98              		.loc 1 91 17 view .LVU31
  99 0044 3B80     		strh	r3, [r7]	@ movhi
  92:../Drivers/STM32_USB-FS-Device_Driver/src/usb_int.c **** 
 100              		.loc 1 92 6 is_stmt 1 view .LVU32
  92:../Drivers/STM32_USB-FS-Device_Driver/src/usb_int.c **** 
 101              		.loc 1 92 17 is_stmt 0 view .LVU33
 102 0046 2B88     		ldrh	r3, [r5]
 103 0048 03F44053 		and	r3, r3, #12288
 104 004c 2B80     		strh	r3, [r5]	@ movhi
 105              	.LBB3:
 106              		.loc 1 94 6 is_stmt 1 view .LVU34
 107              		.loc 1 94 6 view .LVU35
 108 004e 2368     		ldr	r3, [r4]
 109 0050 3340     		ands	r3, r3, r6
 110              	.LVL0:
 111              		.loc 1 94 6 view .LVU36
 112              		.loc 1 94 6 view .LVU37
 113              		.loc 1 94 6 view .LVU38
 114              		.loc 1 94 6 view .LVU39
ARM GAS  /tmp/ccVSt2Mv.s 			page 5


 115              		.loc 1 94 6 view .LVU40
 116              		.loc 1 94 6 view .LVU41
 117              		.loc 1 94 6 view .LVU42
 118 0052 83F40053 		eor	r3, r3, #8192
 119              	.LVL1:
 120              		.loc 1 94 6 is_stmt 0 view .LVU43
 121 0056 83F02003 		eor	r3, r3, #32
 122              	.LVL2:
 123              		.loc 1 94 6 view .LVU44
 124 005a 43F40043 		orr	r3, r3, #32768
 125              	.LVL3:
 126              		.loc 1 94 6 view .LVU45
 127 005e 43F08003 		orr	r3, r3, #128
 128 0062 2360     		str	r3, [r4]
 129              	.LBE3:
 130              		.loc 1 94 49 is_stmt 1 view .LVU46
  95:../Drivers/STM32_USB-FS-Device_Driver/src/usb_int.c **** 
  96:../Drivers/STM32_USB-FS-Device_Driver/src/usb_int.c ****       /* DIR bit = origin of the interrupt */
  97:../Drivers/STM32_USB-FS-Device_Driver/src/usb_int.c **** 
  98:../Drivers/STM32_USB-FS-Device_Driver/src/usb_int.c ****       if ((wIstr & ISTR_DIR) == 0)
 131              		.loc 1 98 7 view .LVU47
 132              		.loc 1 98 18 is_stmt 0 view .LVU48
 133 0064 1388     		ldrh	r3, [r2]
 134              		.loc 1 98 10 view .LVU49
 135 0066 13F0100F 		tst	r3, #16
  99:../Drivers/STM32_USB-FS-Device_Driver/src/usb_int.c ****       {
 100:../Drivers/STM32_USB-FS-Device_Driver/src/usb_int.c ****         /* DIR = 0 */
 101:../Drivers/STM32_USB-FS-Device_Driver/src/usb_int.c **** 
 102:../Drivers/STM32_USB-FS-Device_Driver/src/usb_int.c ****         /* DIR = 0      => IN  int */
 103:../Drivers/STM32_USB-FS-Device_Driver/src/usb_int.c ****         /* DIR = 0 implies that (EP_CTR_TX = 1) always  */
 104:../Drivers/STM32_USB-FS-Device_Driver/src/usb_int.c **** 
 105:../Drivers/STM32_USB-FS-Device_Driver/src/usb_int.c ****         _ClearEP_CTR_TX(ENDP0);
 136              		.loc 1 105 9 view .LVU50
 137 006a 2368     		ldr	r3, [r4]
  98:../Drivers/STM32_USB-FS-Device_Driver/src/usb_int.c ****       {
 138              		.loc 1 98 10 view .LVU51
 139 006c 28D1     		bne	.L4
 140              		.loc 1 105 9 is_stmt 1 view .LVU52
 141 006e 23F4E143 		bic	r3, r3, #28800
 142 0072 23F07003 		bic	r3, r3, #112
 143 0076 1B04     		lsls	r3, r3, #16
 144 0078 1B0C     		lsrs	r3, r3, #16
 145 007a 2360     		str	r3, [r4]
 106:../Drivers/STM32_USB-FS-Device_Driver/src/usb_int.c ****         In0_Process();
 146              		.loc 1 106 9 view .LVU53
 147 007c FFF7FEFF 		bl	In0_Process
 148              	.LVL4:
 149              	.LBB4:
 107:../Drivers/STM32_USB-FS-Device_Driver/src/usb_int.c **** 
 108:../Drivers/STM32_USB-FS-Device_Driver/src/usb_int.c ****            /* before terminate set Tx & Rx status */
 109:../Drivers/STM32_USB-FS-Device_Driver/src/usb_int.c **** 
 110:../Drivers/STM32_USB-FS-Device_Driver/src/usb_int.c ****             _SetEPRxTxStatus(ENDP0,SaveRState,SaveTState);
 150              		.loc 1 110 13 view .LVU54
 151              		.loc 1 110 13 view .LVU55
 152              	.L74:
 153              	.LBE4:
 154              	.LBB5:
ARM GAS  /tmp/ccVSt2Mv.s 			page 6


 111:../Drivers/STM32_USB-FS-Device_Driver/src/usb_int.c **** 		  return;
 112:../Drivers/STM32_USB-FS-Device_Driver/src/usb_int.c ****       }
 113:../Drivers/STM32_USB-FS-Device_Driver/src/usb_int.c ****       else
 114:../Drivers/STM32_USB-FS-Device_Driver/src/usb_int.c ****       {
 115:../Drivers/STM32_USB-FS-Device_Driver/src/usb_int.c ****         /* DIR = 1 */
 116:../Drivers/STM32_USB-FS-Device_Driver/src/usb_int.c **** 
 117:../Drivers/STM32_USB-FS-Device_Driver/src/usb_int.c ****         /* DIR = 1 & CTR_RX       => SETUP or OUT int */
 118:../Drivers/STM32_USB-FS-Device_Driver/src/usb_int.c ****         /* DIR = 1 & (CTR_TX | CTR_RX) => 2 int pending */
 119:../Drivers/STM32_USB-FS-Device_Driver/src/usb_int.c **** 
 120:../Drivers/STM32_USB-FS-Device_Driver/src/usb_int.c ****         wEPVal = _GetENDPOINT(ENDP0);
 121:../Drivers/STM32_USB-FS-Device_Driver/src/usb_int.c ****         
 122:../Drivers/STM32_USB-FS-Device_Driver/src/usb_int.c ****         if ((wEPVal &EP_SETUP) != 0)
 123:../Drivers/STM32_USB-FS-Device_Driver/src/usb_int.c ****         {
 124:../Drivers/STM32_USB-FS-Device_Driver/src/usb_int.c ****           _ClearEP_CTR_RX(ENDP0); /* SETUP bit kept frozen while CTR_RX = 1 */
 125:../Drivers/STM32_USB-FS-Device_Driver/src/usb_int.c ****           Setup0_Process();
 126:../Drivers/STM32_USB-FS-Device_Driver/src/usb_int.c ****           /* before terminate set Tx & Rx status */
 127:../Drivers/STM32_USB-FS-Device_Driver/src/usb_int.c **** 
 128:../Drivers/STM32_USB-FS-Device_Driver/src/usb_int.c **** 		      _SetEPRxTxStatus(ENDP0,SaveRState,SaveTState);
 129:../Drivers/STM32_USB-FS-Device_Driver/src/usb_int.c ****           return;
 130:../Drivers/STM32_USB-FS-Device_Driver/src/usb_int.c ****         }
 131:../Drivers/STM32_USB-FS-Device_Driver/src/usb_int.c **** 
 132:../Drivers/STM32_USB-FS-Device_Driver/src/usb_int.c ****         else if ((wEPVal & EP_CTR_RX) != 0)
 133:../Drivers/STM32_USB-FS-Device_Driver/src/usb_int.c ****         {
 134:../Drivers/STM32_USB-FS-Device_Driver/src/usb_int.c ****           _ClearEP_CTR_RX(ENDP0);
 135:../Drivers/STM32_USB-FS-Device_Driver/src/usb_int.c ****           Out0_Process();
 136:../Drivers/STM32_USB-FS-Device_Driver/src/usb_int.c ****           /* before terminate set Tx & Rx status */
 137:../Drivers/STM32_USB-FS-Device_Driver/src/usb_int.c ****      
 138:../Drivers/STM32_USB-FS-Device_Driver/src/usb_int.c **** 		     _SetEPRxTxStatus(ENDP0,SaveRState,SaveTState);
 155              		.loc 1 138 8 view .LVU56
 156              		.loc 1 138 8 view .LVU57
 157 0080 2368     		ldr	r3, [r4]
 158 0082 2A88     		ldrh	r2, [r5]
 159 0084 3340     		ands	r3, r3, r6
 160              	.LVL5:
 161              		.loc 1 138 8 view .LVU58
 162 0086 D604     		lsls	r6, r2, #19
 163              		.loc 1 138 8 view .LVU59
 164 0088 2A88     		ldrh	r2, [r5]
 165 008a 48BF     		it	mi
 166 008c 83F48053 		eormi	r3, r3, #4096
 167              	.LVL6:
 168              		.loc 1 138 8 view .LVU60
 169 0090 9504     		lsls	r5, r2, #18
 170              		.loc 1 138 8 view .LVU61
 171 0092 3A88     		ldrh	r2, [r7]
 172 0094 48BF     		it	mi
 173 0096 83F40053 		eormi	r3, r3, #8192
 174              	.LVL7:
 175              		.loc 1 138 8 view .LVU62
 176 009a D406     		lsls	r4, r2, #27
 177              		.loc 1 138 8 view .LVU63
 178 009c 3A88     		ldrh	r2, [r7]
 179 009e 48BF     		it	mi
 180 00a0 83F01003 		eormi	r3, r3, #16
 181              	.LVL8:
 182              		.loc 1 138 8 view .LVU64
 183 00a4 9006     		lsls	r0, r2, #26
ARM GAS  /tmp/ccVSt2Mv.s 			page 7


 184              		.loc 1 138 8 view .LVU65
 185 00a6 48BF     		it	mi
 186 00a8 83F02003 		eormi	r3, r3, #32
 187              	.LVL9:
 188              		.loc 1 138 8 view .LVU66
 189 00ac 43F40043 		orr	r3, r3, #32768
 190              	.LVL10:
 191              		.loc 1 138 8 is_stmt 0 view .LVU67
 192 00b0 2C4A     		ldr	r2, .L76+4
 193 00b2 43F08003 		orr	r3, r3, #128
 194 00b6 9BB2     		uxth	r3, r3
 195 00b8 1360     		str	r3, [r2]
 196              	.LBE5:
 197              		.loc 1 138 53 is_stmt 1 view .LVU68
 139:../Drivers/STM32_USB-FS-Device_Driver/src/usb_int.c ****           return;
 198              		.loc 1 139 11 view .LVU69
 199              	.L1:
 140:../Drivers/STM32_USB-FS-Device_Driver/src/usb_int.c ****         }
 141:../Drivers/STM32_USB-FS-Device_Driver/src/usb_int.c ****       }
 142:../Drivers/STM32_USB-FS-Device_Driver/src/usb_int.c ****     }/* if(EPindex == 0) */
 143:../Drivers/STM32_USB-FS-Device_Driver/src/usb_int.c ****     else
 144:../Drivers/STM32_USB-FS-Device_Driver/src/usb_int.c ****     {
 145:../Drivers/STM32_USB-FS-Device_Driver/src/usb_int.c ****       /* Decode and service non control endpoints interrupt  */
 146:../Drivers/STM32_USB-FS-Device_Driver/src/usb_int.c **** 
 147:../Drivers/STM32_USB-FS-Device_Driver/src/usb_int.c ****       /* process related endpoint register */
 148:../Drivers/STM32_USB-FS-Device_Driver/src/usb_int.c ****       wEPVal = _GetENDPOINT(EPindex);
 149:../Drivers/STM32_USB-FS-Device_Driver/src/usb_int.c ****       if ((wEPVal & EP_CTR_RX) != 0)
 150:../Drivers/STM32_USB-FS-Device_Driver/src/usb_int.c ****       {
 151:../Drivers/STM32_USB-FS-Device_Driver/src/usb_int.c ****         /* clear int flag */
 152:../Drivers/STM32_USB-FS-Device_Driver/src/usb_int.c ****         _ClearEP_CTR_RX(EPindex);
 153:../Drivers/STM32_USB-FS-Device_Driver/src/usb_int.c **** 
 154:../Drivers/STM32_USB-FS-Device_Driver/src/usb_int.c ****         /* call OUT service function */
 155:../Drivers/STM32_USB-FS-Device_Driver/src/usb_int.c ****         (*pEpInt_OUT[EPindex-1])();
 156:../Drivers/STM32_USB-FS-Device_Driver/src/usb_int.c **** 
 157:../Drivers/STM32_USB-FS-Device_Driver/src/usb_int.c ****       } /* if((wEPVal & EP_CTR_RX) */
 158:../Drivers/STM32_USB-FS-Device_Driver/src/usb_int.c **** 
 159:../Drivers/STM32_USB-FS-Device_Driver/src/usb_int.c ****       if ((wEPVal & EP_CTR_TX) != 0)
 160:../Drivers/STM32_USB-FS-Device_Driver/src/usb_int.c ****       {
 161:../Drivers/STM32_USB-FS-Device_Driver/src/usb_int.c ****         /* clear int flag */
 162:../Drivers/STM32_USB-FS-Device_Driver/src/usb_int.c ****         _ClearEP_CTR_TX(EPindex);
 163:../Drivers/STM32_USB-FS-Device_Driver/src/usb_int.c **** 
 164:../Drivers/STM32_USB-FS-Device_Driver/src/usb_int.c ****         /* call IN service function */
 165:../Drivers/STM32_USB-FS-Device_Driver/src/usb_int.c ****         (*pEpInt_IN[EPindex-1])();
 166:../Drivers/STM32_USB-FS-Device_Driver/src/usb_int.c ****       } /* if((wEPVal & EP_CTR_TX) != 0) */
 167:../Drivers/STM32_USB-FS-Device_Driver/src/usb_int.c **** 
 168:../Drivers/STM32_USB-FS-Device_Driver/src/usb_int.c ****     }/* if(EPindex == 0) else */
 169:../Drivers/STM32_USB-FS-Device_Driver/src/usb_int.c **** 
 170:../Drivers/STM32_USB-FS-Device_Driver/src/usb_int.c ****   }/* while(...) */
 171:../Drivers/STM32_USB-FS-Device_Driver/src/usb_int.c **** }
 200              		.loc 1 171 1 is_stmt 0 view .LVU70
 201 00ba 03B0     		add	sp, sp, #12
 202              	.LCFI1:
 203              		.cfi_remember_state
 204              		.cfi_def_cfa_offset 28
 205              		@ sp needed
 206 00bc BDE8F083 		pop	{r4, r5, r6, r7, r8, r9, pc}
 207              	.L4:
ARM GAS  /tmp/ccVSt2Mv.s 			page 8


 208              	.LCFI2:
 209              		.cfi_restore_state
 120:../Drivers/STM32_USB-FS-Device_Driver/src/usb_int.c ****         
 210              		.loc 1 120 9 is_stmt 1 view .LVU71
 120:../Drivers/STM32_USB-FS-Device_Driver/src/usb_int.c ****         
 211              		.loc 1 120 18 is_stmt 0 view .LVU72
 212 00c0 9BB2     		uxth	r3, r3
 120:../Drivers/STM32_USB-FS-Device_Driver/src/usb_int.c ****         
 213              		.loc 1 120 16 view .LVU73
 214 00c2 ADF80630 		strh	r3, [sp, #6]	@ movhi
 122:../Drivers/STM32_USB-FS-Device_Driver/src/usb_int.c ****         {
 215              		.loc 1 122 9 is_stmt 1 view .LVU74
 122:../Drivers/STM32_USB-FS-Device_Driver/src/usb_int.c ****         {
 216              		.loc 1 122 21 is_stmt 0 view .LVU75
 217 00c6 BDF80630 		ldrh	r3, [sp, #6]
 122:../Drivers/STM32_USB-FS-Device_Driver/src/usb_int.c ****         {
 218              		.loc 1 122 12 view .LVU76
 219 00ca 1A05     		lsls	r2, r3, #20
 220 00cc 08D5     		bpl	.L10
 124:../Drivers/STM32_USB-FS-Device_Driver/src/usb_int.c ****           Setup0_Process();
 221              		.loc 1 124 11 is_stmt 1 view .LVU77
 222 00ce 2368     		ldr	r3, [r4]
 223 00d0 23F07003 		bic	r3, r3, #112
 224 00d4 1B05     		lsls	r3, r3, #20
 225 00d6 1B0D     		lsrs	r3, r3, #20
 226 00d8 2360     		str	r3, [r4]
 125:../Drivers/STM32_USB-FS-Device_Driver/src/usb_int.c ****           /* before terminate set Tx & Rx status */
 227              		.loc 1 125 11 view .LVU78
 228 00da FFF7FEFF 		bl	Setup0_Process
 229              	.LVL11:
 230              	.LBB6:
 128:../Drivers/STM32_USB-FS-Device_Driver/src/usb_int.c ****           return;
 231              		.loc 1 128 9 view .LVU79
 128:../Drivers/STM32_USB-FS-Device_Driver/src/usb_int.c ****           return;
 232              		.loc 1 128 9 view .LVU80
 233 00de CFE7     		b	.L74
 234              	.L10:
 235              	.LBE6:
 132:../Drivers/STM32_USB-FS-Device_Driver/src/usb_int.c ****         {
 236              		.loc 1 132 14 view .LVU81
 132:../Drivers/STM32_USB-FS-Device_Driver/src/usb_int.c ****         {
 237              		.loc 1 132 39 is_stmt 0 view .LVU82
 238 00e0 BDF80630 		ldrh	r3, [sp, #6]
 132:../Drivers/STM32_USB-FS-Device_Driver/src/usb_int.c ****         {
 239              		.loc 1 132 17 view .LVU83
 240 00e4 1B04     		lsls	r3, r3, #16
 241 00e6 94D5     		bpl	.L2
 134:../Drivers/STM32_USB-FS-Device_Driver/src/usb_int.c ****           Out0_Process();
 242              		.loc 1 134 11 is_stmt 1 view .LVU84
 243 00e8 2368     		ldr	r3, [r4]
 244 00ea 23F07003 		bic	r3, r3, #112
 245 00ee 1B05     		lsls	r3, r3, #20
 246 00f0 1B0D     		lsrs	r3, r3, #20
 247 00f2 2360     		str	r3, [r4]
 135:../Drivers/STM32_USB-FS-Device_Driver/src/usb_int.c ****           /* before terminate set Tx & Rx status */
 248              		.loc 1 135 11 view .LVU85
 249 00f4 FFF7FEFF 		bl	Out0_Process
ARM GAS  /tmp/ccVSt2Mv.s 			page 9


 250              	.LVL12:
 251 00f8 C2E7     		b	.L74
 252              	.L3:
 148:../Drivers/STM32_USB-FS-Device_Driver/src/usb_int.c ****       if ((wEPVal & EP_CTR_RX) != 0)
 253              		.loc 1 148 7 view .LVU86
 148:../Drivers/STM32_USB-FS-Device_Driver/src/usb_int.c ****       if ((wEPVal & EP_CTR_RX) != 0)
 254              		.loc 1 148 16 is_stmt 0 view .LVU87
 255 00fa 9A00     		lsls	r2, r3, #2
 256 00fc 02F18042 		add	r2, r2, #1073741824
 257 0100 02F5B842 		add	r2, r2, #23552
 258 0104 1168     		ldr	r1, [r2]
 259 0106 89B2     		uxth	r1, r1
 148:../Drivers/STM32_USB-FS-Device_Driver/src/usb_int.c ****       if ((wEPVal & EP_CTR_RX) != 0)
 260              		.loc 1 148 14 view .LVU88
 261 0108 ADF80610 		strh	r1, [sp, #6]	@ movhi
 149:../Drivers/STM32_USB-FS-Device_Driver/src/usb_int.c ****       {
 262              		.loc 1 149 7 is_stmt 1 view .LVU89
 149:../Drivers/STM32_USB-FS-Device_Driver/src/usb_int.c ****       {
 263              		.loc 1 149 32 is_stmt 0 view .LVU90
 264 010c BDF80610 		ldrh	r1, [sp, #6]
 149:../Drivers/STM32_USB-FS-Device_Driver/src/usb_int.c ****       {
 265              		.loc 1 149 10 view .LVU91
 266 0110 0904     		lsls	r1, r1, #16
 267 0112 0AD5     		bpl	.L21
 152:../Drivers/STM32_USB-FS-Device_Driver/src/usb_int.c **** 
 268              		.loc 1 152 9 is_stmt 1 view .LVU92
 269 0114 1168     		ldr	r1, [r2]
 155:../Drivers/STM32_USB-FS-Device_Driver/src/usb_int.c **** 
 270              		.loc 1 155 10 is_stmt 0 view .LVU93
 271 0116 013B     		subs	r3, r3, #1
 152:../Drivers/STM32_USB-FS-Device_Driver/src/usb_int.c **** 
 272              		.loc 1 152 9 view .LVU94
 273 0118 21F07001 		bic	r1, r1, #112
 274 011c 0905     		lsls	r1, r1, #20
 275 011e 090D     		lsrs	r1, r1, #20
 276 0120 1160     		str	r1, [r2]
 155:../Drivers/STM32_USB-FS-Device_Driver/src/usb_int.c **** 
 277              		.loc 1 155 9 is_stmt 1 view .LVU95
 155:../Drivers/STM32_USB-FS-Device_Driver/src/usb_int.c **** 
 278              		.loc 1 155 10 is_stmt 0 view .LVU96
 279 0122 134A     		ldr	r2, .L76+16
 280 0124 52F82330 		ldr	r3, [r2, r3, lsl #2]
 281 0128 9847     		blx	r3
 282              	.LVL13:
 283              	.L21:
 159:../Drivers/STM32_USB-FS-Device_Driver/src/usb_int.c ****       {
 284              		.loc 1 159 7 is_stmt 1 view .LVU97
 159:../Drivers/STM32_USB-FS-Device_Driver/src/usb_int.c ****       {
 285              		.loc 1 159 19 is_stmt 0 view .LVU98
 286 012a BDF80630 		ldrh	r3, [sp, #6]
 159:../Drivers/STM32_USB-FS-Device_Driver/src/usb_int.c ****       {
 287              		.loc 1 159 10 view .LVU99
 288 012e 1A06     		lsls	r2, r3, #24
 289 0130 7FF56FAF 		bpl	.L2
 162:../Drivers/STM32_USB-FS-Device_Driver/src/usb_int.c **** 
 290              		.loc 1 162 9 is_stmt 1 view .LVU100
 291 0134 98F80020 		ldrb	r2, [r8]	@ zero_extendqisi2
ARM GAS  /tmp/ccVSt2Mv.s 			page 10


 292 0138 9300     		lsls	r3, r2, #2
 293 013a 03F18043 		add	r3, r3, #1073741824
 294 013e 03F5B843 		add	r3, r3, #23552
 295 0142 1968     		ldr	r1, [r3]
 165:../Drivers/STM32_USB-FS-Device_Driver/src/usb_int.c ****       } /* if((wEPVal & EP_CTR_TX) != 0) */
 296              		.loc 1 165 10 is_stmt 0 view .LVU101
 297 0144 013A     		subs	r2, r2, #1
 162:../Drivers/STM32_USB-FS-Device_Driver/src/usb_int.c **** 
 298              		.loc 1 162 9 view .LVU102
 299 0146 21F4E141 		bic	r1, r1, #28800
 300 014a 21F07001 		bic	r1, r1, #112
 301 014e 0904     		lsls	r1, r1, #16
 302 0150 090C     		lsrs	r1, r1, #16
 303 0152 1960     		str	r1, [r3]
 165:../Drivers/STM32_USB-FS-Device_Driver/src/usb_int.c ****       } /* if((wEPVal & EP_CTR_TX) != 0) */
 304              		.loc 1 165 9 is_stmt 1 view .LVU103
 165:../Drivers/STM32_USB-FS-Device_Driver/src/usb_int.c ****       } /* if((wEPVal & EP_CTR_TX) != 0) */
 305              		.loc 1 165 10 is_stmt 0 view .LVU104
 306 0154 074B     		ldr	r3, .L76+20
 307 0156 53F82230 		ldr	r3, [r3, r2, lsl #2]
 308 015a 9847     		blx	r3
 309              	.LVL14:
 310 015c 59E7     		b	.L2
 311              	.L77:
 312 015e 00BF     		.align	2
 313              	.L76:
 314 0160 00000000 		.word	wIstr
 315 0164 005C0040 		.word	1073765376
 316 0168 00000000 		.word	SaveRState
 317 016c 00000000 		.word	SaveTState
 318 0170 00000000 		.word	pEpInt_OUT
 319 0174 00000000 		.word	pEpInt_IN
 320 0178 445C0040 		.word	1073765444
 321 017c 00000000 		.word	EPindex
 322              		.cfi_endproc
 323              	.LFE29:
 325              		.section	.text.CTR_HP,"ax",%progbits
 326              		.align	1
 327              		.global	CTR_HP
 328              		.syntax unified
 329              		.thumb
 330              		.thumb_func
 331              		.fpu softvfp
 333              	CTR_HP:
 334              	.LFB30:
 172:../Drivers/STM32_USB-FS-Device_Driver/src/usb_int.c **** 
 173:../Drivers/STM32_USB-FS-Device_Driver/src/usb_int.c **** /**
 174:../Drivers/STM32_USB-FS-Device_Driver/src/usb_int.c ****   * Function Name  : CTR_HP.
 175:../Drivers/STM32_USB-FS-Device_Driver/src/usb_int.c ****   * Description    : High Priority Endpoint Correct Transfer interrupt's service 
 176:../Drivers/STM32_USB-FS-Device_Driver/src/usb_int.c ****   *                  routine.
 177:../Drivers/STM32_USB-FS-Device_Driver/src/usb_int.c ****   * Input          : None.
 178:../Drivers/STM32_USB-FS-Device_Driver/src/usb_int.c ****   * Output         : None.
 179:../Drivers/STM32_USB-FS-Device_Driver/src/usb_int.c ****   * Return         : None.
 180:../Drivers/STM32_USB-FS-Device_Driver/src/usb_int.c ****   **/
 181:../Drivers/STM32_USB-FS-Device_Driver/src/usb_int.c **** void CTR_HP(void)
 182:../Drivers/STM32_USB-FS-Device_Driver/src/usb_int.c **** {
 335              		.loc 1 182 1 is_stmt 1 view -0
ARM GAS  /tmp/ccVSt2Mv.s 			page 11


 336              		.cfi_startproc
 337              		@ args = 0, pretend = 0, frame = 0
 338              		@ frame_needed = 0, uses_anonymous_args = 0
 183:../Drivers/STM32_USB-FS-Device_Driver/src/usb_int.c ****   uint32_t wEPVal = 0;
 339              		.loc 1 183 3 view .LVU106
 340              	.LVL15:
 184:../Drivers/STM32_USB-FS-Device_Driver/src/usb_int.c **** 
 185:../Drivers/STM32_USB-FS-Device_Driver/src/usb_int.c ****   while (((wIstr = _GetISTR()) & ISTR_CTR) != 0)
 341              		.loc 1 185 3 view .LVU107
 182:../Drivers/STM32_USB-FS-Device_Driver/src/usb_int.c ****   uint32_t wEPVal = 0;
 342              		.loc 1 182 1 is_stmt 0 view .LVU108
 343 0000 70B5     		push	{r4, r5, r6, lr}
 344              	.LCFI3:
 345              		.cfi_def_cfa_offset 16
 346              		.cfi_offset 4, -16
 347              		.cfi_offset 5, -12
 348              		.cfi_offset 6, -8
 349              		.cfi_offset 14, -4
 350              		.loc 1 185 20 view .LVU109
 351 0002 184D     		ldr	r5, .L87
 352              		.loc 1 185 18 view .LVU110
 353 0004 184C     		ldr	r4, .L87+4
 186:../Drivers/STM32_USB-FS-Device_Driver/src/usb_int.c ****   {
 187:../Drivers/STM32_USB-FS-Device_Driver/src/usb_int.c ****     _SetISTR((uint16_t)CLR_CTR); /* clear CTR flag */
 188:../Drivers/STM32_USB-FS-Device_Driver/src/usb_int.c ****     /* extract highest priority endpoint number */
 189:../Drivers/STM32_USB-FS-Device_Driver/src/usb_int.c ****     EPindex = (uint8_t)(wIstr & ISTR_EP_ID);
 354              		.loc 1 189 13 view .LVU111
 355 0006 194E     		ldr	r6, .L87+8
 356              	.LVL16:
 357              	.L79:
 185:../Drivers/STM32_USB-FS-Device_Driver/src/usb_int.c ****   {
 358              		.loc 1 185 9 is_stmt 1 view .LVU112
 185:../Drivers/STM32_USB-FS-Device_Driver/src/usb_int.c ****   {
 359              		.loc 1 185 20 is_stmt 0 view .LVU113
 360 0008 2B68     		ldr	r3, [r5]
 361 000a 9AB2     		uxth	r2, r3
 185:../Drivers/STM32_USB-FS-Device_Driver/src/usb_int.c ****   {
 362              		.loc 1 185 9 view .LVU114
 363 000c 1B04     		lsls	r3, r3, #16
 185:../Drivers/STM32_USB-FS-Device_Driver/src/usb_int.c ****   {
 364              		.loc 1 185 18 view .LVU115
 365 000e 2280     		strh	r2, [r4]	@ movhi
 185:../Drivers/STM32_USB-FS-Device_Driver/src/usb_int.c ****   {
 366              		.loc 1 185 9 view .LVU116
 367 0010 00D4     		bmi	.L82
 190:../Drivers/STM32_USB-FS-Device_Driver/src/usb_int.c ****     /* process related endpoint register */
 191:../Drivers/STM32_USB-FS-Device_Driver/src/usb_int.c ****     wEPVal = _GetENDPOINT(EPindex);
 192:../Drivers/STM32_USB-FS-Device_Driver/src/usb_int.c ****     if ((wEPVal & EP_CTR_RX) != 0)
 193:../Drivers/STM32_USB-FS-Device_Driver/src/usb_int.c ****     {
 194:../Drivers/STM32_USB-FS-Device_Driver/src/usb_int.c ****       /* clear int flag */
 195:../Drivers/STM32_USB-FS-Device_Driver/src/usb_int.c ****       _ClearEP_CTR_RX(EPindex);
 196:../Drivers/STM32_USB-FS-Device_Driver/src/usb_int.c **** 
 197:../Drivers/STM32_USB-FS-Device_Driver/src/usb_int.c ****       /* call OUT service function */
 198:../Drivers/STM32_USB-FS-Device_Driver/src/usb_int.c ****       (*pEpInt_OUT[EPindex-1])();
 199:../Drivers/STM32_USB-FS-Device_Driver/src/usb_int.c **** 
 200:../Drivers/STM32_USB-FS-Device_Driver/src/usb_int.c ****     } /* if((wEPVal & EP_CTR_RX) */
 201:../Drivers/STM32_USB-FS-Device_Driver/src/usb_int.c ****     else if ((wEPVal & EP_CTR_TX) != 0)
ARM GAS  /tmp/ccVSt2Mv.s 			page 12


 202:../Drivers/STM32_USB-FS-Device_Driver/src/usb_int.c ****     {
 203:../Drivers/STM32_USB-FS-Device_Driver/src/usb_int.c ****       /* clear int flag */
 204:../Drivers/STM32_USB-FS-Device_Driver/src/usb_int.c ****       _ClearEP_CTR_TX(EPindex);
 205:../Drivers/STM32_USB-FS-Device_Driver/src/usb_int.c **** 
 206:../Drivers/STM32_USB-FS-Device_Driver/src/usb_int.c ****       /* call IN service function */
 207:../Drivers/STM32_USB-FS-Device_Driver/src/usb_int.c ****       (*pEpInt_IN[EPindex-1])();
 208:../Drivers/STM32_USB-FS-Device_Driver/src/usb_int.c **** 
 209:../Drivers/STM32_USB-FS-Device_Driver/src/usb_int.c **** 
 210:../Drivers/STM32_USB-FS-Device_Driver/src/usb_int.c ****     } /* if((wEPVal & EP_CTR_TX) != 0) */
 211:../Drivers/STM32_USB-FS-Device_Driver/src/usb_int.c **** 
 212:../Drivers/STM32_USB-FS-Device_Driver/src/usb_int.c ****   }/* while(...) */
 213:../Drivers/STM32_USB-FS-Device_Driver/src/usb_int.c **** }
 368              		.loc 1 213 1 view .LVU117
 369 0012 70BD     		pop	{r4, r5, r6, pc}
 370              	.L82:
 187:../Drivers/STM32_USB-FS-Device_Driver/src/usb_int.c ****     /* extract highest priority endpoint number */
 371              		.loc 1 187 5 is_stmt 1 view .LVU118
 372 0014 47F6FF73 		movw	r3, #32767
 373 0018 2B60     		str	r3, [r5]
 189:../Drivers/STM32_USB-FS-Device_Driver/src/usb_int.c ****     /* process related endpoint register */
 374              		.loc 1 189 5 view .LVU119
 189:../Drivers/STM32_USB-FS-Device_Driver/src/usb_int.c ****     /* process related endpoint register */
 375              		.loc 1 189 31 is_stmt 0 view .LVU120
 376 001a 2388     		ldrh	r3, [r4]
 189:../Drivers/STM32_USB-FS-Device_Driver/src/usb_int.c ****     /* process related endpoint register */
 377              		.loc 1 189 15 view .LVU121
 378 001c 03F00F03 		and	r3, r3, #15
 191:../Drivers/STM32_USB-FS-Device_Driver/src/usb_int.c ****     if ((wEPVal & EP_CTR_RX) != 0)
 379              		.loc 1 191 14 view .LVU122
 380 0020 9A00     		lsls	r2, r3, #2
 381 0022 02F18042 		add	r2, r2, #1073741824
 189:../Drivers/STM32_USB-FS-Device_Driver/src/usb_int.c ****     /* process related endpoint register */
 382              		.loc 1 189 13 view .LVU123
 383 0026 3370     		strb	r3, [r6]
 191:../Drivers/STM32_USB-FS-Device_Driver/src/usb_int.c ****     if ((wEPVal & EP_CTR_RX) != 0)
 384              		.loc 1 191 5 is_stmt 1 view .LVU124
 191:../Drivers/STM32_USB-FS-Device_Driver/src/usb_int.c ****     if ((wEPVal & EP_CTR_RX) != 0)
 385              		.loc 1 191 14 is_stmt 0 view .LVU125
 386 0028 02F5B842 		add	r2, r2, #23552
 387 002c 1168     		ldr	r1, [r2]
 388              	.LVL17:
 192:../Drivers/STM32_USB-FS-Device_Driver/src/usb_int.c ****     {
 389              		.loc 1 192 5 is_stmt 1 view .LVU126
 192:../Drivers/STM32_USB-FS-Device_Driver/src/usb_int.c ****     {
 390              		.loc 1 192 8 is_stmt 0 view .LVU127
 391 002e 0804     		lsls	r0, r1, #16
 392 0030 0BD5     		bpl	.L80
 195:../Drivers/STM32_USB-FS-Device_Driver/src/usb_int.c **** 
 393              		.loc 1 195 7 is_stmt 1 view .LVU128
 394 0032 1168     		ldr	r1, [r2]
 395              	.LVL18:
 198:../Drivers/STM32_USB-FS-Device_Driver/src/usb_int.c **** 
 396              		.loc 1 198 8 is_stmt 0 view .LVU129
 397 0034 013B     		subs	r3, r3, #1
 195:../Drivers/STM32_USB-FS-Device_Driver/src/usb_int.c **** 
 398              		.loc 1 195 7 view .LVU130
 399 0036 21F07001 		bic	r1, r1, #112
ARM GAS  /tmp/ccVSt2Mv.s 			page 13


 400 003a 0905     		lsls	r1, r1, #20
 401 003c 090D     		lsrs	r1, r1, #20
 402 003e 1160     		str	r1, [r2]
 198:../Drivers/STM32_USB-FS-Device_Driver/src/usb_int.c **** 
 403              		.loc 1 198 7 is_stmt 1 view .LVU131
 198:../Drivers/STM32_USB-FS-Device_Driver/src/usb_int.c **** 
 404              		.loc 1 198 8 is_stmt 0 view .LVU132
 405 0040 0B4A     		ldr	r2, .L87+12
 406              	.L86:
 207:../Drivers/STM32_USB-FS-Device_Driver/src/usb_int.c **** 
 407              		.loc 1 207 8 view .LVU133
 408 0042 52F82330 		ldr	r3, [r2, r3, lsl #2]
 409 0046 9847     		blx	r3
 410              	.LVL19:
 411 0048 DEE7     		b	.L79
 412              	.LVL20:
 413              	.L80:
 201:../Drivers/STM32_USB-FS-Device_Driver/src/usb_int.c ****     {
 414              		.loc 1 201 10 is_stmt 1 view .LVU134
 201:../Drivers/STM32_USB-FS-Device_Driver/src/usb_int.c ****     {
 415              		.loc 1 201 13 is_stmt 0 view .LVU135
 416 004a 0906     		lsls	r1, r1, #24
 417              	.LVL21:
 201:../Drivers/STM32_USB-FS-Device_Driver/src/usb_int.c ****     {
 418              		.loc 1 201 13 view .LVU136
 419 004c DCD5     		bpl	.L79
 204:../Drivers/STM32_USB-FS-Device_Driver/src/usb_int.c **** 
 420              		.loc 1 204 7 is_stmt 1 view .LVU137
 421 004e 1168     		ldr	r1, [r2]
 207:../Drivers/STM32_USB-FS-Device_Driver/src/usb_int.c **** 
 422              		.loc 1 207 8 is_stmt 0 view .LVU138
 423 0050 013B     		subs	r3, r3, #1
 204:../Drivers/STM32_USB-FS-Device_Driver/src/usb_int.c **** 
 424              		.loc 1 204 7 view .LVU139
 425 0052 21F4E141 		bic	r1, r1, #28800
 426 0056 21F07001 		bic	r1, r1, #112
 427 005a 0904     		lsls	r1, r1, #16
 428 005c 090C     		lsrs	r1, r1, #16
 429 005e 1160     		str	r1, [r2]
 207:../Drivers/STM32_USB-FS-Device_Driver/src/usb_int.c **** 
 430              		.loc 1 207 7 is_stmt 1 view .LVU140
 207:../Drivers/STM32_USB-FS-Device_Driver/src/usb_int.c **** 
 431              		.loc 1 207 8 is_stmt 0 view .LVU141
 432 0060 044A     		ldr	r2, .L87+16
 433 0062 EEE7     		b	.L86
 434              	.L88:
 435              		.align	2
 436              	.L87:
 437 0064 445C0040 		.word	1073765444
 438 0068 00000000 		.word	wIstr
 439 006c 00000000 		.word	EPindex
 440 0070 00000000 		.word	pEpInt_OUT
 441 0074 00000000 		.word	pEpInt_IN
 442              		.cfi_endproc
 443              	.LFE30:
 445              		.comm	SaveTState,2,2
 446              		.comm	SaveRState,2,2
ARM GAS  /tmp/ccVSt2Mv.s 			page 14


 447              		.text
 448              	.Letext0:
 449              		.file 2 "/usr/lib/gcc/arm-none-eabi/9.2.1/include/stdint.h"
 450              		.file 3 "../Drivers/CMSIS/CM3/CoreSupport/core_cm3.h"
 451              		.file 4 "../Drivers/CMSIS/CM3/DeviceSupport/ST/STM32F10x/system_stm32f10x.h"
 452              		.file 5 "../Drivers/STM32_USB-FS-Device_Driver/inc/usb_type.h"
 453              		.file 6 "../bootloader/Inc/usb_hw.h"
 454              		.file 7 "../Drivers/STM32_USB-FS-Device_Driver/inc/usb_regs.h"
 455              		.file 8 "../Drivers/STM32_USB-FS-Device_Driver/inc/usb_core.h"
 456              		.file 9 "../Drivers/STM32_USB-FS-Device_Driver/inc/usb_init.h"
 457              		.file 10 "../Drivers/STM32_USB-FS-Device_Driver/inc/usb_lib.h"
ARM GAS  /tmp/ccVSt2Mv.s 			page 15

