ARM GAS  /tmp/ccTwDDMa.s 			page 1


   1              		.cpu cortex-m3
   2              		.eabi_attribute 20, 1
   3              		.eabi_attribute 21, 1
   4              		.eabi_attribute 23, 3
   5              		.eabi_attribute 24, 1
   6              		.eabi_attribute 25, 1
   7              		.eabi_attribute 26, 1
   8              		.eabi_attribute 30, 4
   9              		.eabi_attribute 34, 1
  10              		.eabi_attribute 18, 4
  11              		.file	"usb_regs.c"
  12              		.text
  13              	.Ltext0:
  14              		.cfi_sections	.debug_frame
  15              		.section	.text.SetCNTR,"ax",%progbits
  16              		.align	1
  17              		.global	SetCNTR
  18              		.arch armv7-m
  19              		.syntax unified
  20              		.thumb
  21              		.thumb_func
  22              		.fpu softvfp
  24              	SetCNTR:
  25              	.LVL0:
  26              	.LFB29:
  27              		.file 1 "../Drivers/STM32_USB-FS-Device_Driver/src/usb_regs.c"
   1:../Drivers/STM32_USB-FS-Device_Driver/src/usb_regs.c **** /**
   2:../Drivers/STM32_USB-FS-Device_Driver/src/usb_regs.c ****   ******************************************************************************
   3:../Drivers/STM32_USB-FS-Device_Driver/src/usb_regs.c ****   * @file    usb_regs.c
   4:../Drivers/STM32_USB-FS-Device_Driver/src/usb_regs.c ****   * @author  MCD Application Team
   5:../Drivers/STM32_USB-FS-Device_Driver/src/usb_regs.c ****   * @version V4.1.0
   6:../Drivers/STM32_USB-FS-Device_Driver/src/usb_regs.c ****   * @date    26-May-2017
   7:../Drivers/STM32_USB-FS-Device_Driver/src/usb_regs.c ****   * @brief   Interface functions to USB cell registers
   8:../Drivers/STM32_USB-FS-Device_Driver/src/usb_regs.c ****   ******************************************************************************
   9:../Drivers/STM32_USB-FS-Device_Driver/src/usb_regs.c ****   * @attention
  10:../Drivers/STM32_USB-FS-Device_Driver/src/usb_regs.c ****   *
  11:../Drivers/STM32_USB-FS-Device_Driver/src/usb_regs.c ****   * <h2><center>&copy; Copyright (c) 2017 STMicroelectronics International N.V. 
  12:../Drivers/STM32_USB-FS-Device_Driver/src/usb_regs.c ****   * All rights reserved.</center></h2>
  13:../Drivers/STM32_USB-FS-Device_Driver/src/usb_regs.c ****   *
  14:../Drivers/STM32_USB-FS-Device_Driver/src/usb_regs.c ****   * Redistribution and use in source and binary forms, with or without 
  15:../Drivers/STM32_USB-FS-Device_Driver/src/usb_regs.c ****   * modification, are permitted, provided that the following conditions are met:
  16:../Drivers/STM32_USB-FS-Device_Driver/src/usb_regs.c ****   *
  17:../Drivers/STM32_USB-FS-Device_Driver/src/usb_regs.c ****   * 1. Redistribution of source code must retain the above copyright notice, 
  18:../Drivers/STM32_USB-FS-Device_Driver/src/usb_regs.c ****   *    this list of conditions and the following disclaimer.
  19:../Drivers/STM32_USB-FS-Device_Driver/src/usb_regs.c ****   * 2. Redistributions in binary form must reproduce the above copyright notice,
  20:../Drivers/STM32_USB-FS-Device_Driver/src/usb_regs.c ****   *    this list of conditions and the following disclaimer in the documentation
  21:../Drivers/STM32_USB-FS-Device_Driver/src/usb_regs.c ****   *    and/or other materials provided with the distribution.
  22:../Drivers/STM32_USB-FS-Device_Driver/src/usb_regs.c ****   * 3. Neither the name of STMicroelectronics nor the names of other 
  23:../Drivers/STM32_USB-FS-Device_Driver/src/usb_regs.c ****   *    contributors to this software may be used to endorse or promote products 
  24:../Drivers/STM32_USB-FS-Device_Driver/src/usb_regs.c ****   *    derived from this software without specific written permission.
  25:../Drivers/STM32_USB-FS-Device_Driver/src/usb_regs.c ****   * 4. This software, including modifications and/or derivative works of this 
  26:../Drivers/STM32_USB-FS-Device_Driver/src/usb_regs.c ****   *    software, must execute solely and exclusively on microcontroller or
  27:../Drivers/STM32_USB-FS-Device_Driver/src/usb_regs.c ****   *    microprocessor devices manufactured by or for STMicroelectronics.
  28:../Drivers/STM32_USB-FS-Device_Driver/src/usb_regs.c ****   * 5. Redistribution and use of this software other than as permitted under 
  29:../Drivers/STM32_USB-FS-Device_Driver/src/usb_regs.c ****   *    this license is void and will automatically terminate your rights under 
  30:../Drivers/STM32_USB-FS-Device_Driver/src/usb_regs.c ****   *    this license. 
  31:../Drivers/STM32_USB-FS-Device_Driver/src/usb_regs.c ****   *
ARM GAS  /tmp/ccTwDDMa.s 			page 2


  32:../Drivers/STM32_USB-FS-Device_Driver/src/usb_regs.c ****   * THIS SOFTWARE IS PROVIDED BY STMICROELECTRONICS AND CONTRIBUTORS "AS IS" 
  33:../Drivers/STM32_USB-FS-Device_Driver/src/usb_regs.c ****   * AND ANY EXPRESS, IMPLIED OR STATUTORY WARRANTIES, INCLUDING, BUT NOT 
  34:../Drivers/STM32_USB-FS-Device_Driver/src/usb_regs.c ****   * LIMITED TO, THE IMPLIED WARRANTIES OF MERCHANTABILITY, FITNESS FOR A 
  35:../Drivers/STM32_USB-FS-Device_Driver/src/usb_regs.c ****   * PARTICULAR PURPOSE AND NON-INFRINGEMENT OF THIRD PARTY INTELLECTUAL PROPERTY
  36:../Drivers/STM32_USB-FS-Device_Driver/src/usb_regs.c ****   * RIGHTS ARE DISCLAIMED TO THE FULLEST EXTENT PERMITTED BY LAW. IN NO EVENT 
  37:../Drivers/STM32_USB-FS-Device_Driver/src/usb_regs.c ****   * SHALL STMICROELECTRONICS OR CONTRIBUTORS BE LIABLE FOR ANY DIRECT, INDIRECT,
  38:../Drivers/STM32_USB-FS-Device_Driver/src/usb_regs.c ****   * INCIDENTAL, SPECIAL, EXEMPLARY, OR CONSEQUENTIAL DAMAGES (INCLUDING, BUT NOT
  39:../Drivers/STM32_USB-FS-Device_Driver/src/usb_regs.c ****   * LIMITED TO, PROCUREMENT OF SUBSTITUTE GOODS OR SERVICES; LOSS OF USE, DATA, 
  40:../Drivers/STM32_USB-FS-Device_Driver/src/usb_regs.c ****   * OR PROFITS; OR BUSINESS INTERRUPTION) HOWEVER CAUSED AND ON ANY THEORY OF 
  41:../Drivers/STM32_USB-FS-Device_Driver/src/usb_regs.c ****   * LIABILITY, WHETHER IN CONTRACT, STRICT LIABILITY, OR TORT (INCLUDING 
  42:../Drivers/STM32_USB-FS-Device_Driver/src/usb_regs.c ****   * NEGLIGENCE OR OTHERWISE) ARISING IN ANY WAY OUT OF THE USE OF THIS SOFTWARE,
  43:../Drivers/STM32_USB-FS-Device_Driver/src/usb_regs.c ****   * EVEN IF ADVISED OF THE POSSIBILITY OF SUCH DAMAGE.
  44:../Drivers/STM32_USB-FS-Device_Driver/src/usb_regs.c ****   *
  45:../Drivers/STM32_USB-FS-Device_Driver/src/usb_regs.c ****   ******************************************************************************
  46:../Drivers/STM32_USB-FS-Device_Driver/src/usb_regs.c ****   */
  47:../Drivers/STM32_USB-FS-Device_Driver/src/usb_regs.c **** 
  48:../Drivers/STM32_USB-FS-Device_Driver/src/usb_regs.c **** /* Includes ------------------------------------------------------------------*/
  49:../Drivers/STM32_USB-FS-Device_Driver/src/usb_regs.c **** #include "usb_lib.h"
  50:../Drivers/STM32_USB-FS-Device_Driver/src/usb_regs.c **** 
  51:../Drivers/STM32_USB-FS-Device_Driver/src/usb_regs.c **** /* Private typedef -----------------------------------------------------------*/
  52:../Drivers/STM32_USB-FS-Device_Driver/src/usb_regs.c **** /* Private define ------------------------------------------------------------*/
  53:../Drivers/STM32_USB-FS-Device_Driver/src/usb_regs.c **** /* Private macro -------------------------------------------------------------*/
  54:../Drivers/STM32_USB-FS-Device_Driver/src/usb_regs.c **** /* Private variables ---------------------------------------------------------*/
  55:../Drivers/STM32_USB-FS-Device_Driver/src/usb_regs.c **** /* Extern variables ----------------------------------------------------------*/
  56:../Drivers/STM32_USB-FS-Device_Driver/src/usb_regs.c **** /* Private function prototypes -----------------------------------------------*/
  57:../Drivers/STM32_USB-FS-Device_Driver/src/usb_regs.c **** /* Private functions ---------------------------------------------------------*/
  58:../Drivers/STM32_USB-FS-Device_Driver/src/usb_regs.c **** 
  59:../Drivers/STM32_USB-FS-Device_Driver/src/usb_regs.c **** /**
  60:../Drivers/STM32_USB-FS-Device_Driver/src/usb_regs.c ****   * Function Name  : SetCNTR.
  61:../Drivers/STM32_USB-FS-Device_Driver/src/usb_regs.c ****   * Description    : Set the CNTR register value.
  62:../Drivers/STM32_USB-FS-Device_Driver/src/usb_regs.c ****   * Input          : wRegValue: new register value.
  63:../Drivers/STM32_USB-FS-Device_Driver/src/usb_regs.c ****   * Output         : None.
  64:../Drivers/STM32_USB-FS-Device_Driver/src/usb_regs.c ****   * Return         : None.
  65:../Drivers/STM32_USB-FS-Device_Driver/src/usb_regs.c ****   **/
  66:../Drivers/STM32_USB-FS-Device_Driver/src/usb_regs.c **** void SetCNTR(uint16_t wRegValue)
  67:../Drivers/STM32_USB-FS-Device_Driver/src/usb_regs.c **** {
  28              		.loc 1 67 1 view -0
  29              		.cfi_startproc
  30              		@ args = 0, pretend = 0, frame = 0
  31              		@ frame_needed = 0, uses_anonymous_args = 0
  32              		@ link register save eliminated.
  68:../Drivers/STM32_USB-FS-Device_Driver/src/usb_regs.c ****   _SetCNTR(wRegValue);
  33              		.loc 1 68 3 view .LVU1
  34 0000 014B     		ldr	r3, .L2
  35 0002 1860     		str	r0, [r3]
  69:../Drivers/STM32_USB-FS-Device_Driver/src/usb_regs.c **** }
  36              		.loc 1 69 1 is_stmt 0 view .LVU2
  37 0004 7047     		bx	lr
  38              	.L3:
  39 0006 00BF     		.align	2
  40              	.L2:
  41 0008 405C0040 		.word	1073765440
  42              		.cfi_endproc
  43              	.LFE29:
  45              		.section	.text.GetCNTR,"ax",%progbits
  46              		.align	1
  47              		.global	GetCNTR
ARM GAS  /tmp/ccTwDDMa.s 			page 3


  48              		.syntax unified
  49              		.thumb
  50              		.thumb_func
  51              		.fpu softvfp
  53              	GetCNTR:
  54              	.LFB30:
  70:../Drivers/STM32_USB-FS-Device_Driver/src/usb_regs.c **** 
  71:../Drivers/STM32_USB-FS-Device_Driver/src/usb_regs.c **** /**
  72:../Drivers/STM32_USB-FS-Device_Driver/src/usb_regs.c ****   * Function Name  : GetCNTR.
  73:../Drivers/STM32_USB-FS-Device_Driver/src/usb_regs.c ****   * Description    : returns the CNTR register value.
  74:../Drivers/STM32_USB-FS-Device_Driver/src/usb_regs.c ****   * Input          : None.
  75:../Drivers/STM32_USB-FS-Device_Driver/src/usb_regs.c ****   * Output         : None.
  76:../Drivers/STM32_USB-FS-Device_Driver/src/usb_regs.c ****   * Return         : CNTR register Value.
  77:../Drivers/STM32_USB-FS-Device_Driver/src/usb_regs.c ****   **/
  78:../Drivers/STM32_USB-FS-Device_Driver/src/usb_regs.c **** uint16_t GetCNTR(void)
  79:../Drivers/STM32_USB-FS-Device_Driver/src/usb_regs.c **** {
  55              		.loc 1 79 1 is_stmt 1 view -0
  56              		.cfi_startproc
  57              		@ args = 0, pretend = 0, frame = 0
  58              		@ frame_needed = 0, uses_anonymous_args = 0
  59              		@ link register save eliminated.
  80:../Drivers/STM32_USB-FS-Device_Driver/src/usb_regs.c ****   return(_GetCNTR());
  60              		.loc 1 80 3 view .LVU4
  61              		.loc 1 80 10 is_stmt 0 view .LVU5
  62 0000 014B     		ldr	r3, .L5
  63 0002 1868     		ldr	r0, [r3]
  81:../Drivers/STM32_USB-FS-Device_Driver/src/usb_regs.c **** }
  64              		.loc 1 81 1 view .LVU6
  65 0004 80B2     		uxth	r0, r0
  66 0006 7047     		bx	lr
  67              	.L6:
  68              		.align	2
  69              	.L5:
  70 0008 405C0040 		.word	1073765440
  71              		.cfi_endproc
  72              	.LFE30:
  74              		.section	.text.SetISTR,"ax",%progbits
  75              		.align	1
  76              		.global	SetISTR
  77              		.syntax unified
  78              		.thumb
  79              		.thumb_func
  80              		.fpu softvfp
  82              	SetISTR:
  83              	.LVL1:
  84              	.LFB31:
  82:../Drivers/STM32_USB-FS-Device_Driver/src/usb_regs.c **** 
  83:../Drivers/STM32_USB-FS-Device_Driver/src/usb_regs.c **** /**
  84:../Drivers/STM32_USB-FS-Device_Driver/src/usb_regs.c ****   * Function Name  : SetISTR.
  85:../Drivers/STM32_USB-FS-Device_Driver/src/usb_regs.c ****   * Description    : Set the ISTR register value.
  86:../Drivers/STM32_USB-FS-Device_Driver/src/usb_regs.c ****   * Input          : wRegValue: new register value.
  87:../Drivers/STM32_USB-FS-Device_Driver/src/usb_regs.c ****   * Output         : None.
  88:../Drivers/STM32_USB-FS-Device_Driver/src/usb_regs.c ****   * Return         : None.
  89:../Drivers/STM32_USB-FS-Device_Driver/src/usb_regs.c ****   **/
  90:../Drivers/STM32_USB-FS-Device_Driver/src/usb_regs.c **** void SetISTR(uint16_t wRegValue)
  91:../Drivers/STM32_USB-FS-Device_Driver/src/usb_regs.c **** {
  85              		.loc 1 91 1 is_stmt 1 view -0
ARM GAS  /tmp/ccTwDDMa.s 			page 4


  86              		.cfi_startproc
  87              		@ args = 0, pretend = 0, frame = 0
  88              		@ frame_needed = 0, uses_anonymous_args = 0
  89              		@ link register save eliminated.
  92:../Drivers/STM32_USB-FS-Device_Driver/src/usb_regs.c ****   _SetISTR(wRegValue);
  90              		.loc 1 92 3 view .LVU8
  91 0000 014B     		ldr	r3, .L8
  92 0002 1860     		str	r0, [r3]
  93:../Drivers/STM32_USB-FS-Device_Driver/src/usb_regs.c **** }
  93              		.loc 1 93 1 is_stmt 0 view .LVU9
  94 0004 7047     		bx	lr
  95              	.L9:
  96 0006 00BF     		.align	2
  97              	.L8:
  98 0008 445C0040 		.word	1073765444
  99              		.cfi_endproc
 100              	.LFE31:
 102              		.section	.text.GetISTR,"ax",%progbits
 103              		.align	1
 104              		.global	GetISTR
 105              		.syntax unified
 106              		.thumb
 107              		.thumb_func
 108              		.fpu softvfp
 110              	GetISTR:
 111              	.LFB32:
  94:../Drivers/STM32_USB-FS-Device_Driver/src/usb_regs.c **** 
  95:../Drivers/STM32_USB-FS-Device_Driver/src/usb_regs.c **** /**
  96:../Drivers/STM32_USB-FS-Device_Driver/src/usb_regs.c ****   * Function Name  : GetISTR
  97:../Drivers/STM32_USB-FS-Device_Driver/src/usb_regs.c ****   * Description    : Returns the ISTR register value.
  98:../Drivers/STM32_USB-FS-Device_Driver/src/usb_regs.c ****   * Input          : None.
  99:../Drivers/STM32_USB-FS-Device_Driver/src/usb_regs.c ****   * Output         : None.
 100:../Drivers/STM32_USB-FS-Device_Driver/src/usb_regs.c ****   * Return         : ISTR register Value
 101:../Drivers/STM32_USB-FS-Device_Driver/src/usb_regs.c ****   **/
 102:../Drivers/STM32_USB-FS-Device_Driver/src/usb_regs.c **** uint16_t GetISTR(void)
 103:../Drivers/STM32_USB-FS-Device_Driver/src/usb_regs.c **** {
 112              		.loc 1 103 1 is_stmt 1 view -0
 113              		.cfi_startproc
 114              		@ args = 0, pretend = 0, frame = 0
 115              		@ frame_needed = 0, uses_anonymous_args = 0
 116              		@ link register save eliminated.
 104:../Drivers/STM32_USB-FS-Device_Driver/src/usb_regs.c ****   return(_GetISTR());
 117              		.loc 1 104 3 view .LVU11
 118              		.loc 1 104 10 is_stmt 0 view .LVU12
 119 0000 014B     		ldr	r3, .L11
 120 0002 1868     		ldr	r0, [r3]
 105:../Drivers/STM32_USB-FS-Device_Driver/src/usb_regs.c **** }
 121              		.loc 1 105 1 view .LVU13
 122 0004 80B2     		uxth	r0, r0
 123 0006 7047     		bx	lr
 124              	.L12:
 125              		.align	2
 126              	.L11:
 127 0008 445C0040 		.word	1073765444
 128              		.cfi_endproc
 129              	.LFE32:
 131              		.section	.text.GetFNR,"ax",%progbits
ARM GAS  /tmp/ccTwDDMa.s 			page 5


 132              		.align	1
 133              		.global	GetFNR
 134              		.syntax unified
 135              		.thumb
 136              		.thumb_func
 137              		.fpu softvfp
 139              	GetFNR:
 140              	.LFB33:
 106:../Drivers/STM32_USB-FS-Device_Driver/src/usb_regs.c **** 
 107:../Drivers/STM32_USB-FS-Device_Driver/src/usb_regs.c **** /**
 108:../Drivers/STM32_USB-FS-Device_Driver/src/usb_regs.c ****   * Function Name  : GetFNR
 109:../Drivers/STM32_USB-FS-Device_Driver/src/usb_regs.c ****   * Description    : Returns the FNR register value.
 110:../Drivers/STM32_USB-FS-Device_Driver/src/usb_regs.c ****   * Input          : None.
 111:../Drivers/STM32_USB-FS-Device_Driver/src/usb_regs.c ****   * Output         : None.
 112:../Drivers/STM32_USB-FS-Device_Driver/src/usb_regs.c ****   * Return         : FNR register Value
 113:../Drivers/STM32_USB-FS-Device_Driver/src/usb_regs.c ****   **/
 114:../Drivers/STM32_USB-FS-Device_Driver/src/usb_regs.c **** uint16_t GetFNR(void)
 115:../Drivers/STM32_USB-FS-Device_Driver/src/usb_regs.c **** {
 141              		.loc 1 115 1 is_stmt 1 view -0
 142              		.cfi_startproc
 143              		@ args = 0, pretend = 0, frame = 0
 144              		@ frame_needed = 0, uses_anonymous_args = 0
 145              		@ link register save eliminated.
 116:../Drivers/STM32_USB-FS-Device_Driver/src/usb_regs.c ****   return(_GetFNR());
 146              		.loc 1 116 3 view .LVU15
 147              		.loc 1 116 10 is_stmt 0 view .LVU16
 148 0000 014B     		ldr	r3, .L14
 149 0002 1868     		ldr	r0, [r3]
 117:../Drivers/STM32_USB-FS-Device_Driver/src/usb_regs.c **** }
 150              		.loc 1 117 1 view .LVU17
 151 0004 80B2     		uxth	r0, r0
 152 0006 7047     		bx	lr
 153              	.L15:
 154              		.align	2
 155              	.L14:
 156 0008 485C0040 		.word	1073765448
 157              		.cfi_endproc
 158              	.LFE33:
 160              		.section	.text.SetDADDR,"ax",%progbits
 161              		.align	1
 162              		.global	SetDADDR
 163              		.syntax unified
 164              		.thumb
 165              		.thumb_func
 166              		.fpu softvfp
 168              	SetDADDR:
 169              	.LVL2:
 170              	.LFB34:
 118:../Drivers/STM32_USB-FS-Device_Driver/src/usb_regs.c **** 
 119:../Drivers/STM32_USB-FS-Device_Driver/src/usb_regs.c **** /**
 120:../Drivers/STM32_USB-FS-Device_Driver/src/usb_regs.c ****   * Function Name  : SetDADDR
 121:../Drivers/STM32_USB-FS-Device_Driver/src/usb_regs.c ****   * Description    : Set the DADDR register value.
 122:../Drivers/STM32_USB-FS-Device_Driver/src/usb_regs.c ****   * Input          : wRegValue: new register value.
 123:../Drivers/STM32_USB-FS-Device_Driver/src/usb_regs.c ****   * Output         : None.
 124:../Drivers/STM32_USB-FS-Device_Driver/src/usb_regs.c ****   * Return         : None.
 125:../Drivers/STM32_USB-FS-Device_Driver/src/usb_regs.c ****   **/
 126:../Drivers/STM32_USB-FS-Device_Driver/src/usb_regs.c **** void SetDADDR(uint16_t wRegValue)
ARM GAS  /tmp/ccTwDDMa.s 			page 6


 127:../Drivers/STM32_USB-FS-Device_Driver/src/usb_regs.c **** {
 171              		.loc 1 127 1 is_stmt 1 view -0
 172              		.cfi_startproc
 173              		@ args = 0, pretend = 0, frame = 0
 174              		@ frame_needed = 0, uses_anonymous_args = 0
 175              		@ link register save eliminated.
 128:../Drivers/STM32_USB-FS-Device_Driver/src/usb_regs.c ****   _SetDADDR(wRegValue);
 176              		.loc 1 128 3 view .LVU19
 177 0000 014B     		ldr	r3, .L17
 178 0002 1860     		str	r0, [r3]
 129:../Drivers/STM32_USB-FS-Device_Driver/src/usb_regs.c **** }
 179              		.loc 1 129 1 is_stmt 0 view .LVU20
 180 0004 7047     		bx	lr
 181              	.L18:
 182 0006 00BF     		.align	2
 183              	.L17:
 184 0008 4C5C0040 		.word	1073765452
 185              		.cfi_endproc
 186              	.LFE34:
 188              		.section	.text.GetDADDR,"ax",%progbits
 189              		.align	1
 190              		.global	GetDADDR
 191              		.syntax unified
 192              		.thumb
 193              		.thumb_func
 194              		.fpu softvfp
 196              	GetDADDR:
 197              	.LFB35:
 130:../Drivers/STM32_USB-FS-Device_Driver/src/usb_regs.c **** 
 131:../Drivers/STM32_USB-FS-Device_Driver/src/usb_regs.c **** #ifdef LPM_ENABLED
 132:../Drivers/STM32_USB-FS-Device_Driver/src/usb_regs.c **** /**
 133:../Drivers/STM32_USB-FS-Device_Driver/src/usb_regs.c ****   * @brief Set the LPMCSR register value
 134:../Drivers/STM32_USB-FS-Device_Driver/src/usb_regs.c ****   * @param   wRegValue: new register value
 135:../Drivers/STM32_USB-FS-Device_Driver/src/usb_regs.c ****   * @retval None
 136:../Drivers/STM32_USB-FS-Device_Driver/src/usb_regs.c ****   */
 137:../Drivers/STM32_USB-FS-Device_Driver/src/usb_regs.c **** void SetLPMCSR(uint16_t wRegValue)
 138:../Drivers/STM32_USB-FS-Device_Driver/src/usb_regs.c **** {
 139:../Drivers/STM32_USB-FS-Device_Driver/src/usb_regs.c ****   _SetLPMCSR(wRegValue);
 140:../Drivers/STM32_USB-FS-Device_Driver/src/usb_regs.c **** }
 141:../Drivers/STM32_USB-FS-Device_Driver/src/usb_regs.c **** 
 142:../Drivers/STM32_USB-FS-Device_Driver/src/usb_regs.c **** 
 143:../Drivers/STM32_USB-FS-Device_Driver/src/usb_regs.c **** /**
 144:../Drivers/STM32_USB-FS-Device_Driver/src/usb_regs.c ****   * @brief Returns the LPMCSR register value
 145:../Drivers/STM32_USB-FS-Device_Driver/src/usb_regs.c ****   * @param   None
 146:../Drivers/STM32_USB-FS-Device_Driver/src/usb_regs.c ****   * @retval LPMCSR register Value
 147:../Drivers/STM32_USB-FS-Device_Driver/src/usb_regs.c ****   */
 148:../Drivers/STM32_USB-FS-Device_Driver/src/usb_regs.c **** uint16_t GetLPMCSR(void)
 149:../Drivers/STM32_USB-FS-Device_Driver/src/usb_regs.c **** {
 150:../Drivers/STM32_USB-FS-Device_Driver/src/usb_regs.c ****   return(_GetLPMCSR());
 151:../Drivers/STM32_USB-FS-Device_Driver/src/usb_regs.c **** }
 152:../Drivers/STM32_USB-FS-Device_Driver/src/usb_regs.c **** 
 153:../Drivers/STM32_USB-FS-Device_Driver/src/usb_regs.c **** #endif /* LPM_ENABLED */
 154:../Drivers/STM32_USB-FS-Device_Driver/src/usb_regs.c **** /**
 155:../Drivers/STM32_USB-FS-Device_Driver/src/usb_regs.c ****   * Function Name  : GetDADDR
 156:../Drivers/STM32_USB-FS-Device_Driver/src/usb_regs.c ****   * Description    : Returns the DADDR register value.
 157:../Drivers/STM32_USB-FS-Device_Driver/src/usb_regs.c ****   * Input          : None.
 158:../Drivers/STM32_USB-FS-Device_Driver/src/usb_regs.c ****   * Output         : None.
ARM GAS  /tmp/ccTwDDMa.s 			page 7


 159:../Drivers/STM32_USB-FS-Device_Driver/src/usb_regs.c ****   * Return         : DADDR register Value
 160:../Drivers/STM32_USB-FS-Device_Driver/src/usb_regs.c ****   **/
 161:../Drivers/STM32_USB-FS-Device_Driver/src/usb_regs.c **** uint16_t GetDADDR(void)
 162:../Drivers/STM32_USB-FS-Device_Driver/src/usb_regs.c **** {
 198              		.loc 1 162 1 is_stmt 1 view -0
 199              		.cfi_startproc
 200              		@ args = 0, pretend = 0, frame = 0
 201              		@ frame_needed = 0, uses_anonymous_args = 0
 202              		@ link register save eliminated.
 163:../Drivers/STM32_USB-FS-Device_Driver/src/usb_regs.c ****   return(_GetDADDR());
 203              		.loc 1 163 3 view .LVU22
 204              		.loc 1 163 10 is_stmt 0 view .LVU23
 205 0000 014B     		ldr	r3, .L20
 206 0002 1868     		ldr	r0, [r3]
 164:../Drivers/STM32_USB-FS-Device_Driver/src/usb_regs.c **** }
 207              		.loc 1 164 1 view .LVU24
 208 0004 80B2     		uxth	r0, r0
 209 0006 7047     		bx	lr
 210              	.L21:
 211              		.align	2
 212              	.L20:
 213 0008 4C5C0040 		.word	1073765452
 214              		.cfi_endproc
 215              	.LFE35:
 217              		.section	.text.SetBTABLE,"ax",%progbits
 218              		.align	1
 219              		.global	SetBTABLE
 220              		.syntax unified
 221              		.thumb
 222              		.thumb_func
 223              		.fpu softvfp
 225              	SetBTABLE:
 226              	.LVL3:
 227              	.LFB36:
 165:../Drivers/STM32_USB-FS-Device_Driver/src/usb_regs.c **** 
 166:../Drivers/STM32_USB-FS-Device_Driver/src/usb_regs.c **** /**
 167:../Drivers/STM32_USB-FS-Device_Driver/src/usb_regs.c ****   * Function Name  : SetBTABLE
 168:../Drivers/STM32_USB-FS-Device_Driver/src/usb_regs.c ****   * Description    : Set the BTABLE.
 169:../Drivers/STM32_USB-FS-Device_Driver/src/usb_regs.c ****   * Input          : wRegValue: New register value.
 170:../Drivers/STM32_USB-FS-Device_Driver/src/usb_regs.c ****   * Output         : None.
 171:../Drivers/STM32_USB-FS-Device_Driver/src/usb_regs.c ****   * Return         : None.
 172:../Drivers/STM32_USB-FS-Device_Driver/src/usb_regs.c ****   **/
 173:../Drivers/STM32_USB-FS-Device_Driver/src/usb_regs.c **** void SetBTABLE(uint16_t wRegValue)
 174:../Drivers/STM32_USB-FS-Device_Driver/src/usb_regs.c **** {
 228              		.loc 1 174 1 is_stmt 1 view -0
 229              		.cfi_startproc
 230              		@ args = 0, pretend = 0, frame = 0
 231              		@ frame_needed = 0, uses_anonymous_args = 0
 232              		@ link register save eliminated.
 175:../Drivers/STM32_USB-FS-Device_Driver/src/usb_regs.c ****   _SetBTABLE(wRegValue);
 233              		.loc 1 175 3 view .LVU26
 234 0000 4FF6F873 		movw	r3, #65528
 235 0004 014A     		ldr	r2, .L23
 236 0006 0340     		ands	r3, r3, r0
 237 0008 1360     		str	r3, [r2]
 176:../Drivers/STM32_USB-FS-Device_Driver/src/usb_regs.c **** }
 238              		.loc 1 176 1 is_stmt 0 view .LVU27
ARM GAS  /tmp/ccTwDDMa.s 			page 8


 239 000a 7047     		bx	lr
 240              	.L24:
 241              		.align	2
 242              	.L23:
 243 000c 505C0040 		.word	1073765456
 244              		.cfi_endproc
 245              	.LFE36:
 247              		.section	.text.GetBTABLE,"ax",%progbits
 248              		.align	1
 249              		.global	GetBTABLE
 250              		.syntax unified
 251              		.thumb
 252              		.thumb_func
 253              		.fpu softvfp
 255              	GetBTABLE:
 256              	.LFB37:
 177:../Drivers/STM32_USB-FS-Device_Driver/src/usb_regs.c **** 
 178:../Drivers/STM32_USB-FS-Device_Driver/src/usb_regs.c **** /**
 179:../Drivers/STM32_USB-FS-Device_Driver/src/usb_regs.c ****   * Function Name  : GetBTABLE.
 180:../Drivers/STM32_USB-FS-Device_Driver/src/usb_regs.c ****   * Description    : Returns the BTABLE register value.
 181:../Drivers/STM32_USB-FS-Device_Driver/src/usb_regs.c ****   * Input          : None. 
 182:../Drivers/STM32_USB-FS-Device_Driver/src/usb_regs.c ****   * Output         : None.
 183:../Drivers/STM32_USB-FS-Device_Driver/src/usb_regs.c ****   * Return         : BTABLE address.
 184:../Drivers/STM32_USB-FS-Device_Driver/src/usb_regs.c ****   **/
 185:../Drivers/STM32_USB-FS-Device_Driver/src/usb_regs.c **** uint16_t GetBTABLE(void)
 186:../Drivers/STM32_USB-FS-Device_Driver/src/usb_regs.c **** {
 257              		.loc 1 186 1 is_stmt 1 view -0
 258              		.cfi_startproc
 259              		@ args = 0, pretend = 0, frame = 0
 260              		@ frame_needed = 0, uses_anonymous_args = 0
 261              		@ link register save eliminated.
 187:../Drivers/STM32_USB-FS-Device_Driver/src/usb_regs.c ****   return(_GetBTABLE());
 262              		.loc 1 187 3 view .LVU29
 263              		.loc 1 187 10 is_stmt 0 view .LVU30
 264 0000 014B     		ldr	r3, .L26
 265 0002 1868     		ldr	r0, [r3]
 188:../Drivers/STM32_USB-FS-Device_Driver/src/usb_regs.c **** }
 266              		.loc 1 188 1 view .LVU31
 267 0004 80B2     		uxth	r0, r0
 268 0006 7047     		bx	lr
 269              	.L27:
 270              		.align	2
 271              	.L26:
 272 0008 505C0040 		.word	1073765456
 273              		.cfi_endproc
 274              	.LFE37:
 276              		.section	.text.SetENDPOINT,"ax",%progbits
 277              		.align	1
 278              		.global	SetENDPOINT
 279              		.syntax unified
 280              		.thumb
 281              		.thumb_func
 282              		.fpu softvfp
 284              	SetENDPOINT:
 285              	.LVL4:
 286              	.LFB38:
 189:../Drivers/STM32_USB-FS-Device_Driver/src/usb_regs.c **** 
ARM GAS  /tmp/ccTwDDMa.s 			page 9


 190:../Drivers/STM32_USB-FS-Device_Driver/src/usb_regs.c **** /**
 191:../Drivers/STM32_USB-FS-Device_Driver/src/usb_regs.c ****   * Function Name  : SetENDPOINT
 192:../Drivers/STM32_USB-FS-Device_Driver/src/usb_regs.c ****   * Description    : Set the Endpoint register value.
 193:../Drivers/STM32_USB-FS-Device_Driver/src/usb_regs.c ****   * Input          : bEpNum: Endpoint Number. 
 194:../Drivers/STM32_USB-FS-Device_Driver/src/usb_regs.c ****   *                  wRegValue.
 195:../Drivers/STM32_USB-FS-Device_Driver/src/usb_regs.c ****   * Output         : None.
 196:../Drivers/STM32_USB-FS-Device_Driver/src/usb_regs.c ****   * Return         : None.
 197:../Drivers/STM32_USB-FS-Device_Driver/src/usb_regs.c ****   **/
 198:../Drivers/STM32_USB-FS-Device_Driver/src/usb_regs.c **** void SetENDPOINT(uint8_t bEpNum, uint16_t wRegValue)
 199:../Drivers/STM32_USB-FS-Device_Driver/src/usb_regs.c **** {
 287              		.loc 1 199 1 is_stmt 1 view -0
 288              		.cfi_startproc
 289              		@ args = 0, pretend = 0, frame = 0
 290              		@ frame_needed = 0, uses_anonymous_args = 0
 291              		@ link register save eliminated.
 200:../Drivers/STM32_USB-FS-Device_Driver/src/usb_regs.c ****   _SetENDPOINT(bEpNum, wRegValue);
 292              		.loc 1 200 3 view .LVU33
 293 0000 8000     		lsls	r0, r0, #2
 294              	.LVL5:
 295              		.loc 1 200 3 is_stmt 0 view .LVU34
 296 0002 00F18040 		add	r0, r0, #1073741824
 297 0006 00F5B840 		add	r0, r0, #23552
 298 000a 0160     		str	r1, [r0]
 201:../Drivers/STM32_USB-FS-Device_Driver/src/usb_regs.c **** }
 299              		.loc 1 201 1 view .LVU35
 300 000c 7047     		bx	lr
 301              		.cfi_endproc
 302              	.LFE38:
 304              		.section	.text.GetENDPOINT,"ax",%progbits
 305              		.align	1
 306              		.global	GetENDPOINT
 307              		.syntax unified
 308              		.thumb
 309              		.thumb_func
 310              		.fpu softvfp
 312              	GetENDPOINT:
 313              	.LVL6:
 314              	.LFB39:
 202:../Drivers/STM32_USB-FS-Device_Driver/src/usb_regs.c **** 
 203:../Drivers/STM32_USB-FS-Device_Driver/src/usb_regs.c **** /**
 204:../Drivers/STM32_USB-FS-Device_Driver/src/usb_regs.c ****   * Function Name  : GetENDPOINT
 205:../Drivers/STM32_USB-FS-Device_Driver/src/usb_regs.c ****   * Description    : Return the Endpoint register value.
 206:../Drivers/STM32_USB-FS-Device_Driver/src/usb_regs.c ****   * Input          : bEpNum: Endpoint Number. 
 207:../Drivers/STM32_USB-FS-Device_Driver/src/usb_regs.c ****   * Output         : None.
 208:../Drivers/STM32_USB-FS-Device_Driver/src/usb_regs.c ****   * Return         : Endpoint register value.
 209:../Drivers/STM32_USB-FS-Device_Driver/src/usb_regs.c ****   **/
 210:../Drivers/STM32_USB-FS-Device_Driver/src/usb_regs.c **** uint16_t GetENDPOINT(uint8_t bEpNum)
 211:../Drivers/STM32_USB-FS-Device_Driver/src/usb_regs.c **** {
 315              		.loc 1 211 1 is_stmt 1 view -0
 316              		.cfi_startproc
 317              		@ args = 0, pretend = 0, frame = 0
 318              		@ frame_needed = 0, uses_anonymous_args = 0
 319              		@ link register save eliminated.
 212:../Drivers/STM32_USB-FS-Device_Driver/src/usb_regs.c ****   return(_GetENDPOINT(bEpNum));
 320              		.loc 1 212 3 view .LVU37
 321              		.loc 1 212 10 is_stmt 0 view .LVU38
 322 0000 8000     		lsls	r0, r0, #2
ARM GAS  /tmp/ccTwDDMa.s 			page 10


 323              	.LVL7:
 324              		.loc 1 212 10 view .LVU39
 325 0002 00F18040 		add	r0, r0, #1073741824
 326 0006 00F5B840 		add	r0, r0, #23552
 327 000a 0068     		ldr	r0, [r0]
 213:../Drivers/STM32_USB-FS-Device_Driver/src/usb_regs.c **** }
 328              		.loc 1 213 1 view .LVU40
 329 000c 80B2     		uxth	r0, r0
 330 000e 7047     		bx	lr
 331              		.cfi_endproc
 332              	.LFE39:
 334              		.section	.text.SetEPType,"ax",%progbits
 335              		.align	1
 336              		.global	SetEPType
 337              		.syntax unified
 338              		.thumb
 339              		.thumb_func
 340              		.fpu softvfp
 342              	SetEPType:
 343              	.LVL8:
 344              	.LFB40:
 214:../Drivers/STM32_USB-FS-Device_Driver/src/usb_regs.c **** 
 215:../Drivers/STM32_USB-FS-Device_Driver/src/usb_regs.c **** /**
 216:../Drivers/STM32_USB-FS-Device_Driver/src/usb_regs.c ****   * Function Name  : SetEPType
 217:../Drivers/STM32_USB-FS-Device_Driver/src/usb_regs.c ****   * Description    : sets the type in the endpoint register.
 218:../Drivers/STM32_USB-FS-Device_Driver/src/usb_regs.c ****   * Input          : bEpNum: Endpoint Number. 
 219:../Drivers/STM32_USB-FS-Device_Driver/src/usb_regs.c ****   *                  wType: type definition.
 220:../Drivers/STM32_USB-FS-Device_Driver/src/usb_regs.c ****   * Output         : None.
 221:../Drivers/STM32_USB-FS-Device_Driver/src/usb_regs.c ****   * Return         : None.
 222:../Drivers/STM32_USB-FS-Device_Driver/src/usb_regs.c ****   **/
 223:../Drivers/STM32_USB-FS-Device_Driver/src/usb_regs.c **** void SetEPType(uint8_t bEpNum, uint16_t wType)
 224:../Drivers/STM32_USB-FS-Device_Driver/src/usb_regs.c **** {
 345              		.loc 1 224 1 is_stmt 1 view -0
 346              		.cfi_startproc
 347              		@ args = 0, pretend = 0, frame = 0
 348              		@ frame_needed = 0, uses_anonymous_args = 0
 349              		@ link register save eliminated.
 225:../Drivers/STM32_USB-FS-Device_Driver/src/usb_regs.c ****   _SetEPType(bEpNum, wType);
 350              		.loc 1 225 3 view .LVU42
 351 0000 8000     		lsls	r0, r0, #2
 352              	.LVL9:
 353              		.loc 1 225 3 is_stmt 0 view .LVU43
 354 0002 00F18040 		add	r0, r0, #1073741824
 355 0006 00F5B840 		add	r0, r0, #23552
 356 000a 0368     		ldr	r3, [r0]
 357 000c 23F4EC43 		bic	r3, r3, #30208
 358 0010 23F07003 		bic	r3, r3, #112
 359 0014 0B43     		orrs	r3, r3, r1
 360 0016 9BB2     		uxth	r3, r3
 361 0018 0360     		str	r3, [r0]
 226:../Drivers/STM32_USB-FS-Device_Driver/src/usb_regs.c **** }
 362              		.loc 1 226 1 view .LVU44
 363 001a 7047     		bx	lr
 364              		.cfi_endproc
 365              	.LFE40:
 367              		.section	.text.GetEPType,"ax",%progbits
 368              		.align	1
ARM GAS  /tmp/ccTwDDMa.s 			page 11


 369              		.global	GetEPType
 370              		.syntax unified
 371              		.thumb
 372              		.thumb_func
 373              		.fpu softvfp
 375              	GetEPType:
 376              	.LVL10:
 377              	.LFB41:
 227:../Drivers/STM32_USB-FS-Device_Driver/src/usb_regs.c **** 
 228:../Drivers/STM32_USB-FS-Device_Driver/src/usb_regs.c **** /**
 229:../Drivers/STM32_USB-FS-Device_Driver/src/usb_regs.c ****   * Function Name  : GetEPType
 230:../Drivers/STM32_USB-FS-Device_Driver/src/usb_regs.c ****   * Description    : Returns the endpoint type.
 231:../Drivers/STM32_USB-FS-Device_Driver/src/usb_regs.c ****   * Input          : bEpNum: Endpoint Number. 
 232:../Drivers/STM32_USB-FS-Device_Driver/src/usb_regs.c ****   * Output         : None.
 233:../Drivers/STM32_USB-FS-Device_Driver/src/usb_regs.c ****   * Return         : Endpoint Type
 234:../Drivers/STM32_USB-FS-Device_Driver/src/usb_regs.c ****   **/
 235:../Drivers/STM32_USB-FS-Device_Driver/src/usb_regs.c **** uint16_t GetEPType(uint8_t bEpNum)
 236:../Drivers/STM32_USB-FS-Device_Driver/src/usb_regs.c **** {
 378              		.loc 1 236 1 is_stmt 1 view -0
 379              		.cfi_startproc
 380              		@ args = 0, pretend = 0, frame = 0
 381              		@ frame_needed = 0, uses_anonymous_args = 0
 382              		@ link register save eliminated.
 237:../Drivers/STM32_USB-FS-Device_Driver/src/usb_regs.c ****   return(_GetEPType(bEpNum));
 383              		.loc 1 237 3 view .LVU46
 384              		.loc 1 237 10 is_stmt 0 view .LVU47
 385 0000 8000     		lsls	r0, r0, #2
 386              	.LVL11:
 387              		.loc 1 237 10 view .LVU48
 388 0002 00F18040 		add	r0, r0, #1073741824
 389 0006 00F5B840 		add	r0, r0, #23552
 390 000a 0068     		ldr	r0, [r0]
 238:../Drivers/STM32_USB-FS-Device_Driver/src/usb_regs.c **** }
 391              		.loc 1 238 1 view .LVU49
 392 000c 00F4C060 		and	r0, r0, #1536
 393 0010 7047     		bx	lr
 394              		.cfi_endproc
 395              	.LFE41:
 397              		.section	.text.SetEPTxStatus,"ax",%progbits
 398              		.align	1
 399              		.global	SetEPTxStatus
 400              		.syntax unified
 401              		.thumb
 402              		.thumb_func
 403              		.fpu softvfp
 405              	SetEPTxStatus:
 406              	.LVL12:
 407              	.LFB42:
 239:../Drivers/STM32_USB-FS-Device_Driver/src/usb_regs.c **** 
 240:../Drivers/STM32_USB-FS-Device_Driver/src/usb_regs.c **** /**
 241:../Drivers/STM32_USB-FS-Device_Driver/src/usb_regs.c ****   * Function Name  : SetEPTxStatus
 242:../Drivers/STM32_USB-FS-Device_Driver/src/usb_regs.c ****   * Description    : Set the status of Tx endpoint.
 243:../Drivers/STM32_USB-FS-Device_Driver/src/usb_regs.c ****   * Input          : bEpNum: Endpoint Number. 
 244:../Drivers/STM32_USB-FS-Device_Driver/src/usb_regs.c ****   *                  wState: new state.
 245:../Drivers/STM32_USB-FS-Device_Driver/src/usb_regs.c ****   * Output         : None.
 246:../Drivers/STM32_USB-FS-Device_Driver/src/usb_regs.c ****   * Return         : None.
 247:../Drivers/STM32_USB-FS-Device_Driver/src/usb_regs.c ****   **/
ARM GAS  /tmp/ccTwDDMa.s 			page 12


 248:../Drivers/STM32_USB-FS-Device_Driver/src/usb_regs.c **** void SetEPTxStatus(uint8_t bEpNum, uint16_t wState)
 249:../Drivers/STM32_USB-FS-Device_Driver/src/usb_regs.c **** {
 408              		.loc 1 249 1 is_stmt 1 view -0
 409              		.cfi_startproc
 410              		@ args = 0, pretend = 0, frame = 0
 411              		@ frame_needed = 0, uses_anonymous_args = 0
 412              		@ link register save eliminated.
 413              	.LBB4:
 250:../Drivers/STM32_USB-FS-Device_Driver/src/usb_regs.c ****   _SetEPTxStatus(bEpNum, wState);
 414              		.loc 1 250 3 view .LVU51
 415              		.loc 1 250 3 view .LVU52
 416 0000 8000     		lsls	r0, r0, #2
 417              	.LVL13:
 418              		.loc 1 250 3 is_stmt 0 view .LVU53
 419 0002 00F18040 		add	r0, r0, #1073741824
 420 0006 00F5B840 		add	r0, r0, #23552
 421 000a 0368     		ldr	r3, [r0]
 422 000c CA06     		lsls	r2, r1, #27
 423 000e 23F4E043 		bic	r3, r3, #28672
 424 0012 23F04003 		bic	r3, r3, #64
 425 0016 9BB2     		uxth	r3, r3
 426              	.LVL14:
 427              		.loc 1 250 3 is_stmt 1 view .LVU54
 428              		.loc 1 250 3 view .LVU55
 429 0018 48BF     		it	mi
 430 001a 83F01003 		eormi	r3, r3, #16
 431              	.LVL15:
 432              		.loc 1 250 3 view .LVU56
 433 001e 8A06     		lsls	r2, r1, #26
 434              		.loc 1 250 3 view .LVU57
 435 0020 48BF     		it	mi
 436 0022 83F02003 		eormi	r3, r3, #32
 437              	.LVL16:
 438              		.loc 1 250 3 view .LVU58
 439 0026 43F40043 		orr	r3, r3, #32768
 440              	.LVL17:
 441              		.loc 1 250 3 is_stmt 0 view .LVU59
 442 002a 43F08003 		orr	r3, r3, #128
 443 002e 0360     		str	r3, [r0]
 444              	.LBE4:
 445              		.loc 1 250 33 is_stmt 1 view .LVU60
 251:../Drivers/STM32_USB-FS-Device_Driver/src/usb_regs.c **** }
 446              		.loc 1 251 1 is_stmt 0 view .LVU61
 447 0030 7047     		bx	lr
 448              		.cfi_endproc
 449              	.LFE42:
 451              		.section	.text.SetEPRxStatus,"ax",%progbits
 452              		.align	1
 453              		.global	SetEPRxStatus
 454              		.syntax unified
 455              		.thumb
 456              		.thumb_func
 457              		.fpu softvfp
 459              	SetEPRxStatus:
 460              	.LVL18:
 461              	.LFB43:
 252:../Drivers/STM32_USB-FS-Device_Driver/src/usb_regs.c **** 
ARM GAS  /tmp/ccTwDDMa.s 			page 13


 253:../Drivers/STM32_USB-FS-Device_Driver/src/usb_regs.c **** /**
 254:../Drivers/STM32_USB-FS-Device_Driver/src/usb_regs.c ****   * Function Name  : SetEPRxStatus
 255:../Drivers/STM32_USB-FS-Device_Driver/src/usb_regs.c ****   * Description    : Set the status of Rx endpoint.
 256:../Drivers/STM32_USB-FS-Device_Driver/src/usb_regs.c ****   * Input          : bEpNum: Endpoint Number. 
 257:../Drivers/STM32_USB-FS-Device_Driver/src/usb_regs.c ****   *                  wState: new state.
 258:../Drivers/STM32_USB-FS-Device_Driver/src/usb_regs.c ****   * Output         : None.
 259:../Drivers/STM32_USB-FS-Device_Driver/src/usb_regs.c ****   * Return         : None.
 260:../Drivers/STM32_USB-FS-Device_Driver/src/usb_regs.c ****   **/
 261:../Drivers/STM32_USB-FS-Device_Driver/src/usb_regs.c **** void SetEPRxStatus(uint8_t bEpNum, uint16_t wState)
 262:../Drivers/STM32_USB-FS-Device_Driver/src/usb_regs.c **** {
 462              		.loc 1 262 1 is_stmt 1 view -0
 463              		.cfi_startproc
 464              		@ args = 0, pretend = 0, frame = 0
 465              		@ frame_needed = 0, uses_anonymous_args = 0
 466              		@ link register save eliminated.
 467              	.LBB5:
 263:../Drivers/STM32_USB-FS-Device_Driver/src/usb_regs.c ****   _SetEPRxStatus(bEpNum, wState);
 468              		.loc 1 263 3 view .LVU63
 469              		.loc 1 263 3 view .LVU64
 470 0000 8000     		lsls	r0, r0, #2
 471              	.LVL19:
 472              		.loc 1 263 3 is_stmt 0 view .LVU65
 473 0002 00F18040 		add	r0, r0, #1073741824
 474 0006 00F5B840 		add	r0, r0, #23552
 475 000a 0368     		ldr	r3, [r0]
 476 000c CA04     		lsls	r2, r1, #19
 477 000e 23F48043 		bic	r3, r3, #16384
 478 0012 23F07003 		bic	r3, r3, #112
 479 0016 9BB2     		uxth	r3, r3
 480              	.LVL20:
 481              		.loc 1 263 3 is_stmt 1 view .LVU66
 482              		.loc 1 263 3 view .LVU67
 483 0018 48BF     		it	mi
 484 001a 83F48053 		eormi	r3, r3, #4096
 485              	.LVL21:
 486              		.loc 1 263 3 view .LVU68
 487 001e 8A04     		lsls	r2, r1, #18
 488              		.loc 1 263 3 view .LVU69
 489 0020 48BF     		it	mi
 490 0022 83F40053 		eormi	r3, r3, #8192
 491              	.LVL22:
 492              		.loc 1 263 3 view .LVU70
 493 0026 43F40043 		orr	r3, r3, #32768
 494              	.LVL23:
 495              		.loc 1 263 3 is_stmt 0 view .LVU71
 496 002a 43F08003 		orr	r3, r3, #128
 497 002e 0360     		str	r3, [r0]
 498              	.LBE5:
 499              		.loc 1 263 33 is_stmt 1 view .LVU72
 264:../Drivers/STM32_USB-FS-Device_Driver/src/usb_regs.c **** }
 500              		.loc 1 264 1 is_stmt 0 view .LVU73
 501 0030 7047     		bx	lr
 502              		.cfi_endproc
 503              	.LFE43:
 505              		.section	.text.SetDouBleBuffEPStall,"ax",%progbits
 506              		.align	1
 507              		.global	SetDouBleBuffEPStall
ARM GAS  /tmp/ccTwDDMa.s 			page 14


 508              		.syntax unified
 509              		.thumb
 510              		.thumb_func
 511              		.fpu softvfp
 513              	SetDouBleBuffEPStall:
 514              	.LVL24:
 515              	.LFB44:
 265:../Drivers/STM32_USB-FS-Device_Driver/src/usb_regs.c **** 
 266:../Drivers/STM32_USB-FS-Device_Driver/src/usb_regs.c **** /**
 267:../Drivers/STM32_USB-FS-Device_Driver/src/usb_regs.c ****   * Function Name  : SetDouBleBuffEPStall
 268:../Drivers/STM32_USB-FS-Device_Driver/src/usb_regs.c ****   * Description    : sets the status for Double Buffer Endpoint to STALL
 269:../Drivers/STM32_USB-FS-Device_Driver/src/usb_regs.c ****   * Input          : bEpNum: Endpoint Number. 
 270:../Drivers/STM32_USB-FS-Device_Driver/src/usb_regs.c ****   *                  bDir: Endpoint direction.
 271:../Drivers/STM32_USB-FS-Device_Driver/src/usb_regs.c ****   * Output         : None.
 272:../Drivers/STM32_USB-FS-Device_Driver/src/usb_regs.c ****   * Return         : None.
 273:../Drivers/STM32_USB-FS-Device_Driver/src/usb_regs.c ****   **/
 274:../Drivers/STM32_USB-FS-Device_Driver/src/usb_regs.c **** void SetDouBleBuffEPStall(uint8_t bEpNum, uint8_t bDir)
 275:../Drivers/STM32_USB-FS-Device_Driver/src/usb_regs.c **** {
 516              		.loc 1 275 1 is_stmt 1 view -0
 517              		.cfi_startproc
 518              		@ args = 0, pretend = 0, frame = 0
 519              		@ frame_needed = 0, uses_anonymous_args = 0
 520              		@ link register save eliminated.
 276:../Drivers/STM32_USB-FS-Device_Driver/src/usb_regs.c ****   uint16_t Endpoint_DTOG_Status;
 521              		.loc 1 276 3 view .LVU75
 277:../Drivers/STM32_USB-FS-Device_Driver/src/usb_regs.c ****   Endpoint_DTOG_Status = GetENDPOINT(bEpNum);
 522              		.loc 1 277 3 view .LVU76
 523              	.LBB6:
 524              	.LBI6:
 210:../Drivers/STM32_USB-FS-Device_Driver/src/usb_regs.c **** {
 525              		.loc 1 210 10 view .LVU77
 526              	.LBB7:
 212:../Drivers/STM32_USB-FS-Device_Driver/src/usb_regs.c **** }
 527              		.loc 1 212 3 view .LVU78
 212:../Drivers/STM32_USB-FS-Device_Driver/src/usb_regs.c **** }
 528              		.loc 1 212 10 is_stmt 0 view .LVU79
 529 0000 8000     		lsls	r0, r0, #2
 530              	.LVL25:
 212:../Drivers/STM32_USB-FS-Device_Driver/src/usb_regs.c **** }
 531              		.loc 1 212 10 view .LVU80
 532 0002 00F18040 		add	r0, r0, #1073741824
 533 0006 00F5B840 		add	r0, r0, #23552
 534              	.LBE7:
 535              	.LBE6:
 278:../Drivers/STM32_USB-FS-Device_Driver/src/usb_regs.c ****   if (bDir == EP_DBUF_OUT)
 536              		.loc 1 278 6 view .LVU81
 537 000a 0129     		cmp	r1, #1
 538              	.LBB9:
 539              	.LBB8:
 212:../Drivers/STM32_USB-FS-Device_Driver/src/usb_regs.c **** }
 540              		.loc 1 212 10 view .LVU82
 541 000c 0368     		ldr	r3, [r0]
 542              	.LVL26:
 212:../Drivers/STM32_USB-FS-Device_Driver/src/usb_regs.c **** }
 543              		.loc 1 212 10 view .LVU83
 544              	.LBE8:
 545              	.LBE9:
ARM GAS  /tmp/ccTwDDMa.s 			page 15


 546              		.loc 1 278 3 is_stmt 1 view .LVU84
 547              		.loc 1 278 6 is_stmt 0 view .LVU85
 548 000e 05D1     		bne	.L51
 279:../Drivers/STM32_USB-FS-Device_Driver/src/usb_regs.c ****   { /* OUT double buffered endpoint */
 280:../Drivers/STM32_USB-FS-Device_Driver/src/usb_regs.c ****     _SetENDPOINT(bEpNum, Endpoint_DTOG_Status & ~EPRX_DTOG1);
 549              		.loc 1 280 5 is_stmt 1 view .LVU86
 550 0010 23F48053 		bic	r3, r3, #4096
 551              	.LVL27:
 552              	.L53:
 281:../Drivers/STM32_USB-FS-Device_Driver/src/usb_regs.c ****   }
 282:../Drivers/STM32_USB-FS-Device_Driver/src/usb_regs.c ****   else if (bDir == EP_DBUF_IN)
 283:../Drivers/STM32_USB-FS-Device_Driver/src/usb_regs.c ****   { /* IN double buffered endpoint */
 284:../Drivers/STM32_USB-FS-Device_Driver/src/usb_regs.c ****     _SetENDPOINT(bEpNum, Endpoint_DTOG_Status & ~EPTX_DTOG1);
 553              		.loc 1 284 5 is_stmt 0 view .LVU87
 554 0014 1B04     		lsls	r3, r3, #16
 555 0016 1B0C     		lsrs	r3, r3, #16
 556 0018 0360     		str	r3, [r0]
 557              	.L50:
 285:../Drivers/STM32_USB-FS-Device_Driver/src/usb_regs.c ****   }
 286:../Drivers/STM32_USB-FS-Device_Driver/src/usb_regs.c **** }
 558              		.loc 1 286 1 view .LVU88
 559 001a 7047     		bx	lr
 560              	.LVL28:
 561              	.L51:
 282:../Drivers/STM32_USB-FS-Device_Driver/src/usb_regs.c ****   { /* IN double buffered endpoint */
 562              		.loc 1 282 8 is_stmt 1 view .LVU89
 282:../Drivers/STM32_USB-FS-Device_Driver/src/usb_regs.c ****   { /* IN double buffered endpoint */
 563              		.loc 1 282 11 is_stmt 0 view .LVU90
 564 001c 0229     		cmp	r1, #2
 565 001e FCD1     		bne	.L50
 284:../Drivers/STM32_USB-FS-Device_Driver/src/usb_regs.c ****   }
 566              		.loc 1 284 5 is_stmt 1 view .LVU91
 567 0020 23F01003 		bic	r3, r3, #16
 568              	.LVL29:
 284:../Drivers/STM32_USB-FS-Device_Driver/src/usb_regs.c ****   }
 569              		.loc 1 284 5 is_stmt 0 view .LVU92
 570 0024 F6E7     		b	.L53
 571              		.cfi_endproc
 572              	.LFE44:
 574              		.section	.text.GetEPTxStatus,"ax",%progbits
 575              		.align	1
 576              		.global	GetEPTxStatus
 577              		.syntax unified
 578              		.thumb
 579              		.thumb_func
 580              		.fpu softvfp
 582              	GetEPTxStatus:
 583              	.LVL30:
 584              	.LFB45:
 287:../Drivers/STM32_USB-FS-Device_Driver/src/usb_regs.c **** 
 288:../Drivers/STM32_USB-FS-Device_Driver/src/usb_regs.c **** /**
 289:../Drivers/STM32_USB-FS-Device_Driver/src/usb_regs.c ****   * Function Name  : GetEPTxStatus
 290:../Drivers/STM32_USB-FS-Device_Driver/src/usb_regs.c ****   * Description    : Returns the endpoint Tx status.
 291:../Drivers/STM32_USB-FS-Device_Driver/src/usb_regs.c ****   * Input          : bEpNum: Endpoint Number. 
 292:../Drivers/STM32_USB-FS-Device_Driver/src/usb_regs.c ****   * Output         : None.
 293:../Drivers/STM32_USB-FS-Device_Driver/src/usb_regs.c ****   * Return         : Endpoint TX Status
 294:../Drivers/STM32_USB-FS-Device_Driver/src/usb_regs.c ****   **/
ARM GAS  /tmp/ccTwDDMa.s 			page 16


 295:../Drivers/STM32_USB-FS-Device_Driver/src/usb_regs.c **** uint16_t GetEPTxStatus(uint8_t bEpNum)
 296:../Drivers/STM32_USB-FS-Device_Driver/src/usb_regs.c **** {
 585              		.loc 1 296 1 is_stmt 1 view -0
 586              		.cfi_startproc
 587              		@ args = 0, pretend = 0, frame = 0
 588              		@ frame_needed = 0, uses_anonymous_args = 0
 589              		@ link register save eliminated.
 297:../Drivers/STM32_USB-FS-Device_Driver/src/usb_regs.c ****   return(_GetEPTxStatus(bEpNum));
 590              		.loc 1 297 3 view .LVU94
 591              		.loc 1 297 10 is_stmt 0 view .LVU95
 592 0000 8000     		lsls	r0, r0, #2
 593              	.LVL31:
 594              		.loc 1 297 10 view .LVU96
 595 0002 00F18040 		add	r0, r0, #1073741824
 596 0006 00F5B840 		add	r0, r0, #23552
 597 000a 0068     		ldr	r0, [r0]
 298:../Drivers/STM32_USB-FS-Device_Driver/src/usb_regs.c **** }
 598              		.loc 1 298 1 view .LVU97
 599 000c 00F03000 		and	r0, r0, #48
 600 0010 7047     		bx	lr
 601              		.cfi_endproc
 602              	.LFE45:
 604              		.section	.text.GetEPRxStatus,"ax",%progbits
 605              		.align	1
 606              		.global	GetEPRxStatus
 607              		.syntax unified
 608              		.thumb
 609              		.thumb_func
 610              		.fpu softvfp
 612              	GetEPRxStatus:
 613              	.LVL32:
 614              	.LFB46:
 299:../Drivers/STM32_USB-FS-Device_Driver/src/usb_regs.c **** 
 300:../Drivers/STM32_USB-FS-Device_Driver/src/usb_regs.c **** /**
 301:../Drivers/STM32_USB-FS-Device_Driver/src/usb_regs.c ****   * Function Name  : GetEPRxStatus
 302:../Drivers/STM32_USB-FS-Device_Driver/src/usb_regs.c ****   * Description    : Returns the endpoint Rx status.
 303:../Drivers/STM32_USB-FS-Device_Driver/src/usb_regs.c ****   * Input          : bEpNum: Endpoint Number. 
 304:../Drivers/STM32_USB-FS-Device_Driver/src/usb_regs.c ****   * Output         : None.
 305:../Drivers/STM32_USB-FS-Device_Driver/src/usb_regs.c ****   * Return         : Endpoint RX Status
 306:../Drivers/STM32_USB-FS-Device_Driver/src/usb_regs.c ****   **/
 307:../Drivers/STM32_USB-FS-Device_Driver/src/usb_regs.c **** uint16_t GetEPRxStatus(uint8_t bEpNum)
 308:../Drivers/STM32_USB-FS-Device_Driver/src/usb_regs.c **** {
 615              		.loc 1 308 1 is_stmt 1 view -0
 616              		.cfi_startproc
 617              		@ args = 0, pretend = 0, frame = 0
 618              		@ frame_needed = 0, uses_anonymous_args = 0
 619              		@ link register save eliminated.
 309:../Drivers/STM32_USB-FS-Device_Driver/src/usb_regs.c ****   return(_GetEPRxStatus(bEpNum));
 620              		.loc 1 309 3 view .LVU99
 621              		.loc 1 309 10 is_stmt 0 view .LVU100
 622 0000 8000     		lsls	r0, r0, #2
 623              	.LVL33:
 624              		.loc 1 309 10 view .LVU101
 625 0002 00F18040 		add	r0, r0, #1073741824
 626 0006 00F5B840 		add	r0, r0, #23552
 627 000a 0068     		ldr	r0, [r0]
 310:../Drivers/STM32_USB-FS-Device_Driver/src/usb_regs.c **** }
ARM GAS  /tmp/ccTwDDMa.s 			page 17


 628              		.loc 1 310 1 view .LVU102
 629 000c 00F44050 		and	r0, r0, #12288
 630 0010 7047     		bx	lr
 631              		.cfi_endproc
 632              	.LFE46:
 634              		.section	.text.SetEPTxValid,"ax",%progbits
 635              		.align	1
 636              		.global	SetEPTxValid
 637              		.syntax unified
 638              		.thumb
 639              		.thumb_func
 640              		.fpu softvfp
 642              	SetEPTxValid:
 643              	.LVL34:
 644              	.LFB47:
 311:../Drivers/STM32_USB-FS-Device_Driver/src/usb_regs.c **** 
 312:../Drivers/STM32_USB-FS-Device_Driver/src/usb_regs.c **** /**
 313:../Drivers/STM32_USB-FS-Device_Driver/src/usb_regs.c ****   * Function Name  : SetEPTxValid
 314:../Drivers/STM32_USB-FS-Device_Driver/src/usb_regs.c ****   * Description    : Valid the endpoint Tx Status.
 315:../Drivers/STM32_USB-FS-Device_Driver/src/usb_regs.c ****   * Input          : bEpNum: Endpoint Number.  
 316:../Drivers/STM32_USB-FS-Device_Driver/src/usb_regs.c ****   * Output         : None.
 317:../Drivers/STM32_USB-FS-Device_Driver/src/usb_regs.c ****   * Return         : None.
 318:../Drivers/STM32_USB-FS-Device_Driver/src/usb_regs.c ****   **/
 319:../Drivers/STM32_USB-FS-Device_Driver/src/usb_regs.c **** void SetEPTxValid(uint8_t bEpNum)
 320:../Drivers/STM32_USB-FS-Device_Driver/src/usb_regs.c **** {
 645              		.loc 1 320 1 is_stmt 1 view -0
 646              		.cfi_startproc
 647              		@ args = 0, pretend = 0, frame = 0
 648              		@ frame_needed = 0, uses_anonymous_args = 0
 649              		@ link register save eliminated.
 650              	.LBB10:
 321:../Drivers/STM32_USB-FS-Device_Driver/src/usb_regs.c ****   _SetEPTxStatus(bEpNum, EP_TX_VALID);
 651              		.loc 1 321 3 view .LVU104
 652              		.loc 1 321 3 view .LVU105
 653 0000 8000     		lsls	r0, r0, #2
 654              	.LVL35:
 655              		.loc 1 321 3 is_stmt 0 view .LVU106
 656 0002 00F18040 		add	r0, r0, #1073741824
 657 0006 00F5B840 		add	r0, r0, #23552
 658 000a 0368     		ldr	r3, [r0]
 659 000c 23F4E043 		bic	r3, r3, #28672
 660 0010 23F04003 		bic	r3, r3, #64
 661 0014 9BB2     		uxth	r3, r3
 662              	.LVL36:
 663              		.loc 1 321 3 is_stmt 1 view .LVU107
 664              		.loc 1 321 3 view .LVU108
 665              		.loc 1 321 3 view .LVU109
 666              		.loc 1 321 3 view .LVU110
 667              		.loc 1 321 3 view .LVU111
 668 0016 83F03003 		eor	r3, r3, #48
 669              	.LVL37:
 670              		.loc 1 321 3 is_stmt 0 view .LVU112
 671 001a 43F40043 		orr	r3, r3, #32768
 672              	.LVL38:
 673              		.loc 1 321 3 view .LVU113
 674 001e 43F08003 		orr	r3, r3, #128
 675 0022 0360     		str	r3, [r0]
ARM GAS  /tmp/ccTwDDMa.s 			page 18


 676              	.LBE10:
 677              		.loc 1 321 38 is_stmt 1 view .LVU114
 322:../Drivers/STM32_USB-FS-Device_Driver/src/usb_regs.c **** }
 678              		.loc 1 322 1 is_stmt 0 view .LVU115
 679 0024 7047     		bx	lr
 680              		.cfi_endproc
 681              	.LFE47:
 683              		.section	.text.SetEPRxValid,"ax",%progbits
 684              		.align	1
 685              		.global	SetEPRxValid
 686              		.syntax unified
 687              		.thumb
 688              		.thumb_func
 689              		.fpu softvfp
 691              	SetEPRxValid:
 692              	.LVL39:
 693              	.LFB48:
 323:../Drivers/STM32_USB-FS-Device_Driver/src/usb_regs.c **** 
 324:../Drivers/STM32_USB-FS-Device_Driver/src/usb_regs.c **** /**
 325:../Drivers/STM32_USB-FS-Device_Driver/src/usb_regs.c ****   * Function Name  : SetEPRxValid
 326:../Drivers/STM32_USB-FS-Device_Driver/src/usb_regs.c ****   * Description    : Valid the endpoint Rx Status.
 327:../Drivers/STM32_USB-FS-Device_Driver/src/usb_regs.c ****   * Input          : bEpNum: Endpoint Number. 
 328:../Drivers/STM32_USB-FS-Device_Driver/src/usb_regs.c ****   * Output         : None.
 329:../Drivers/STM32_USB-FS-Device_Driver/src/usb_regs.c ****   * Return         : None.
 330:../Drivers/STM32_USB-FS-Device_Driver/src/usb_regs.c ****   **/
 331:../Drivers/STM32_USB-FS-Device_Driver/src/usb_regs.c **** void SetEPRxValid(uint8_t bEpNum)
 332:../Drivers/STM32_USB-FS-Device_Driver/src/usb_regs.c **** {
 694              		.loc 1 332 1 is_stmt 1 view -0
 695              		.cfi_startproc
 696              		@ args = 0, pretend = 0, frame = 0
 697              		@ frame_needed = 0, uses_anonymous_args = 0
 698              		@ link register save eliminated.
 699              	.LBB11:
 333:../Drivers/STM32_USB-FS-Device_Driver/src/usb_regs.c ****   _SetEPRxStatus(bEpNum, EP_RX_VALID);
 700              		.loc 1 333 3 view .LVU117
 701              		.loc 1 333 3 view .LVU118
 702 0000 8000     		lsls	r0, r0, #2
 703              	.LVL40:
 704              		.loc 1 333 3 is_stmt 0 view .LVU119
 705 0002 00F18040 		add	r0, r0, #1073741824
 706 0006 00F5B840 		add	r0, r0, #23552
 707 000a 0368     		ldr	r3, [r0]
 708 000c 23F48043 		bic	r3, r3, #16384
 709 0010 23F07003 		bic	r3, r3, #112
 710 0014 9BB2     		uxth	r3, r3
 711              	.LVL41:
 712              		.loc 1 333 3 is_stmt 1 view .LVU120
 713              		.loc 1 333 3 view .LVU121
 714              		.loc 1 333 3 view .LVU122
 715              		.loc 1 333 3 view .LVU123
 716              		.loc 1 333 3 view .LVU124
 717 0016 83F44053 		eor	r3, r3, #12288
 718              	.LVL42:
 719              		.loc 1 333 3 is_stmt 0 view .LVU125
 720 001a 43F40043 		orr	r3, r3, #32768
 721              	.LVL43:
 722              		.loc 1 333 3 view .LVU126
ARM GAS  /tmp/ccTwDDMa.s 			page 19


 723 001e 43F08003 		orr	r3, r3, #128
 724 0022 0360     		str	r3, [r0]
 725              	.LBE11:
 726              		.loc 1 333 38 is_stmt 1 view .LVU127
 334:../Drivers/STM32_USB-FS-Device_Driver/src/usb_regs.c **** }
 727              		.loc 1 334 1 is_stmt 0 view .LVU128
 728 0024 7047     		bx	lr
 729              		.cfi_endproc
 730              	.LFE48:
 732              		.section	.text.SetEP_KIND,"ax",%progbits
 733              		.align	1
 734              		.global	SetEP_KIND
 735              		.syntax unified
 736              		.thumb
 737              		.thumb_func
 738              		.fpu softvfp
 740              	SetEP_KIND:
 741              	.LVL44:
 742              	.LFB49:
 335:../Drivers/STM32_USB-FS-Device_Driver/src/usb_regs.c **** 
 336:../Drivers/STM32_USB-FS-Device_Driver/src/usb_regs.c **** /**
 337:../Drivers/STM32_USB-FS-Device_Driver/src/usb_regs.c ****   * Function Name  : SetEP_KIND
 338:../Drivers/STM32_USB-FS-Device_Driver/src/usb_regs.c ****   * Description    : Clear the EP_KIND bit.
 339:../Drivers/STM32_USB-FS-Device_Driver/src/usb_regs.c ****   * Input          : bEpNum: Endpoint Number. 
 340:../Drivers/STM32_USB-FS-Device_Driver/src/usb_regs.c ****   * Output         : None.
 341:../Drivers/STM32_USB-FS-Device_Driver/src/usb_regs.c ****   * Return         : None.
 342:../Drivers/STM32_USB-FS-Device_Driver/src/usb_regs.c ****   **/
 343:../Drivers/STM32_USB-FS-Device_Driver/src/usb_regs.c **** void SetEP_KIND(uint8_t bEpNum)
 344:../Drivers/STM32_USB-FS-Device_Driver/src/usb_regs.c **** {
 743              		.loc 1 344 1 is_stmt 1 view -0
 744              		.cfi_startproc
 745              		@ args = 0, pretend = 0, frame = 0
 746              		@ frame_needed = 0, uses_anonymous_args = 0
 747              		@ link register save eliminated.
 345:../Drivers/STM32_USB-FS-Device_Driver/src/usb_regs.c ****   _SetEP_KIND(bEpNum);
 748              		.loc 1 345 3 view .LVU130
 749 0000 40F60F73 		movw	r3, #3855
 750 0004 8000     		lsls	r0, r0, #2
 751              	.LVL45:
 752              		.loc 1 345 3 is_stmt 0 view .LVU131
 753 0006 00F18040 		add	r0, r0, #1073741824
 754 000a 00F5B840 		add	r0, r0, #23552
 755 000e 0268     		ldr	r2, [r0]
 756 0010 1340     		ands	r3, r3, r2
 757 0012 43F40143 		orr	r3, r3, #33024
 758 0016 43F08003 		orr	r3, r3, #128
 759 001a 0360     		str	r3, [r0]
 346:../Drivers/STM32_USB-FS-Device_Driver/src/usb_regs.c **** }
 760              		.loc 1 346 1 view .LVU132
 761 001c 7047     		bx	lr
 762              		.cfi_endproc
 763              	.LFE49:
 765              		.section	.text.ClearEP_KIND,"ax",%progbits
 766              		.align	1
 767              		.global	ClearEP_KIND
 768              		.syntax unified
 769              		.thumb
ARM GAS  /tmp/ccTwDDMa.s 			page 20


 770              		.thumb_func
 771              		.fpu softvfp
 773              	ClearEP_KIND:
 774              	.LVL46:
 775              	.LFB50:
 347:../Drivers/STM32_USB-FS-Device_Driver/src/usb_regs.c **** 
 348:../Drivers/STM32_USB-FS-Device_Driver/src/usb_regs.c **** /**
 349:../Drivers/STM32_USB-FS-Device_Driver/src/usb_regs.c ****   * Function Name  : ClearEP_KIND
 350:../Drivers/STM32_USB-FS-Device_Driver/src/usb_regs.c ****   * Description    : set the  EP_KIND bit.
 351:../Drivers/STM32_USB-FS-Device_Driver/src/usb_regs.c ****   * Input          : bEpNum: Endpoint Number. 
 352:../Drivers/STM32_USB-FS-Device_Driver/src/usb_regs.c ****   * Output         : None.
 353:../Drivers/STM32_USB-FS-Device_Driver/src/usb_regs.c ****   * Return         : None.
 354:../Drivers/STM32_USB-FS-Device_Driver/src/usb_regs.c ****   **/
 355:../Drivers/STM32_USB-FS-Device_Driver/src/usb_regs.c **** void ClearEP_KIND(uint8_t bEpNum)
 356:../Drivers/STM32_USB-FS-Device_Driver/src/usb_regs.c **** {
 776              		.loc 1 356 1 is_stmt 1 view -0
 777              		.cfi_startproc
 778              		@ args = 0, pretend = 0, frame = 0
 779              		@ frame_needed = 0, uses_anonymous_args = 0
 780              		@ link register save eliminated.
 357:../Drivers/STM32_USB-FS-Device_Driver/src/usb_regs.c ****   _ClearEP_KIND(bEpNum);
 781              		.loc 1 357 3 view .LVU134
 782 0000 8000     		lsls	r0, r0, #2
 783              	.LVL47:
 784              		.loc 1 357 3 is_stmt 0 view .LVU135
 785 0002 00F18040 		add	r0, r0, #1073741824
 786 0006 00F5B840 		add	r0, r0, #23552
 787 000a 0368     		ldr	r3, [r0]
 788 000c 23F4F873 		bic	r3, r3, #496
 789 0010 1B05     		lsls	r3, r3, #20
 790 0012 1B0D     		lsrs	r3, r3, #20
 791 0014 43F40043 		orr	r3, r3, #32768
 792 0018 43F08003 		orr	r3, r3, #128
 793 001c 0360     		str	r3, [r0]
 358:../Drivers/STM32_USB-FS-Device_Driver/src/usb_regs.c **** }
 794              		.loc 1 358 1 view .LVU136
 795 001e 7047     		bx	lr
 796              		.cfi_endproc
 797              	.LFE50:
 799              		.section	.text.Clear_Status_Out,"ax",%progbits
 800              		.align	1
 801              		.global	Clear_Status_Out
 802              		.syntax unified
 803              		.thumb
 804              		.thumb_func
 805              		.fpu softvfp
 807              	Clear_Status_Out:
 808              	.LFB93:
 809              		.cfi_startproc
 810              		@ args = 0, pretend = 0, frame = 0
 811              		@ frame_needed = 0, uses_anonymous_args = 0
 812              		@ link register save eliminated.
 813 0000 FFF7FEBF 		b	ClearEP_KIND
 814              		.cfi_endproc
 815              	.LFE93:
 817              		.section	.text.Set_Status_Out,"ax",%progbits
 818              		.align	1
ARM GAS  /tmp/ccTwDDMa.s 			page 21


 819              		.global	Set_Status_Out
 820              		.syntax unified
 821              		.thumb
 822              		.thumb_func
 823              		.fpu softvfp
 825              	Set_Status_Out:
 826              	.LFB89:
 827              		.cfi_startproc
 828              		@ args = 0, pretend = 0, frame = 0
 829              		@ frame_needed = 0, uses_anonymous_args = 0
 830              		@ link register save eliminated.
 831 0000 FFF7FEBF 		b	SetEP_KIND
 832              		.cfi_endproc
 833              	.LFE89:
 835              		.section	.text.SetEPDoubleBuff,"ax",%progbits
 836              		.align	1
 837              		.global	SetEPDoubleBuff
 838              		.syntax unified
 839              		.thumb
 840              		.thumb_func
 841              		.fpu softvfp
 843              	SetEPDoubleBuff:
 844              	.LFB91:
 845              		.cfi_startproc
 846              		@ args = 0, pretend = 0, frame = 0
 847              		@ frame_needed = 0, uses_anonymous_args = 0
 848              		@ link register save eliminated.
 849 0000 FFF7FEBF 		b	SetEP_KIND
 850              		.cfi_endproc
 851              	.LFE91:
 853              		.section	.text.ClearEPDoubleBuff,"ax",%progbits
 854              		.align	1
 855              		.global	ClearEPDoubleBuff
 856              		.syntax unified
 857              		.thumb
 858              		.thumb_func
 859              		.fpu softvfp
 861              	ClearEPDoubleBuff:
 862              	.LFB95:
 863              		.cfi_startproc
 864              		@ args = 0, pretend = 0, frame = 0
 865              		@ frame_needed = 0, uses_anonymous_args = 0
 866              		@ link register save eliminated.
 867 0000 FFF7FEBF 		b	ClearEP_KIND
 868              		.cfi_endproc
 869              	.LFE95:
 871              		.section	.text.GetTxStallStatus,"ax",%progbits
 872              		.align	1
 873              		.global	GetTxStallStatus
 874              		.syntax unified
 875              		.thumb
 876              		.thumb_func
 877              		.fpu softvfp
 879              	GetTxStallStatus:
 880              	.LVL48:
 881              	.LFB55:
 359:../Drivers/STM32_USB-FS-Device_Driver/src/usb_regs.c **** 
ARM GAS  /tmp/ccTwDDMa.s 			page 22


 360:../Drivers/STM32_USB-FS-Device_Driver/src/usb_regs.c **** /**
 361:../Drivers/STM32_USB-FS-Device_Driver/src/usb_regs.c ****   * Function Name  : Clear_Status_Out
 362:../Drivers/STM32_USB-FS-Device_Driver/src/usb_regs.c ****   * Description    : Clear the Status Out of the related Endpoint
 363:../Drivers/STM32_USB-FS-Device_Driver/src/usb_regs.c ****   * Input          : bEpNum: Endpoint Number. 
 364:../Drivers/STM32_USB-FS-Device_Driver/src/usb_regs.c ****   * Output         : None.
 365:../Drivers/STM32_USB-FS-Device_Driver/src/usb_regs.c ****   * Return         : None.
 366:../Drivers/STM32_USB-FS-Device_Driver/src/usb_regs.c ****   **/
 367:../Drivers/STM32_USB-FS-Device_Driver/src/usb_regs.c **** void Clear_Status_Out(uint8_t bEpNum)
 368:../Drivers/STM32_USB-FS-Device_Driver/src/usb_regs.c **** {
 369:../Drivers/STM32_USB-FS-Device_Driver/src/usb_regs.c ****   _ClearEP_KIND(bEpNum);
 370:../Drivers/STM32_USB-FS-Device_Driver/src/usb_regs.c **** }
 371:../Drivers/STM32_USB-FS-Device_Driver/src/usb_regs.c **** 
 372:../Drivers/STM32_USB-FS-Device_Driver/src/usb_regs.c **** /**
 373:../Drivers/STM32_USB-FS-Device_Driver/src/usb_regs.c ****   * Function Name  : Set_Status_Out
 374:../Drivers/STM32_USB-FS-Device_Driver/src/usb_regs.c ****   * Description    : Set the Status Out of the related Endpoint
 375:../Drivers/STM32_USB-FS-Device_Driver/src/usb_regs.c ****   * Input          : bEpNum: Endpoint Number. 
 376:../Drivers/STM32_USB-FS-Device_Driver/src/usb_regs.c ****   * Output         : None.
 377:../Drivers/STM32_USB-FS-Device_Driver/src/usb_regs.c ****   * Return         : None.
 378:../Drivers/STM32_USB-FS-Device_Driver/src/usb_regs.c ****   **/
 379:../Drivers/STM32_USB-FS-Device_Driver/src/usb_regs.c **** void Set_Status_Out(uint8_t bEpNum)
 380:../Drivers/STM32_USB-FS-Device_Driver/src/usb_regs.c **** {
 381:../Drivers/STM32_USB-FS-Device_Driver/src/usb_regs.c ****   _SetEP_KIND(bEpNum);
 382:../Drivers/STM32_USB-FS-Device_Driver/src/usb_regs.c **** }
 383:../Drivers/STM32_USB-FS-Device_Driver/src/usb_regs.c **** 
 384:../Drivers/STM32_USB-FS-Device_Driver/src/usb_regs.c **** /**
 385:../Drivers/STM32_USB-FS-Device_Driver/src/usb_regs.c ****   * Function Name  : SetEPDoubleBuff
 386:../Drivers/STM32_USB-FS-Device_Driver/src/usb_regs.c ****   * Description    : Enable the double buffer feature for the endpoint. 
 387:../Drivers/STM32_USB-FS-Device_Driver/src/usb_regs.c ****   * Input          : bEpNum: Endpoint Number. 
 388:../Drivers/STM32_USB-FS-Device_Driver/src/usb_regs.c ****   * Output         : None.
 389:../Drivers/STM32_USB-FS-Device_Driver/src/usb_regs.c ****   * Return         : None.
 390:../Drivers/STM32_USB-FS-Device_Driver/src/usb_regs.c ****   **/
 391:../Drivers/STM32_USB-FS-Device_Driver/src/usb_regs.c **** void SetEPDoubleBuff(uint8_t bEpNum)
 392:../Drivers/STM32_USB-FS-Device_Driver/src/usb_regs.c **** {
 393:../Drivers/STM32_USB-FS-Device_Driver/src/usb_regs.c ****   _SetEP_KIND(bEpNum);
 394:../Drivers/STM32_USB-FS-Device_Driver/src/usb_regs.c **** }
 395:../Drivers/STM32_USB-FS-Device_Driver/src/usb_regs.c **** 
 396:../Drivers/STM32_USB-FS-Device_Driver/src/usb_regs.c **** /**
 397:../Drivers/STM32_USB-FS-Device_Driver/src/usb_regs.c ****   * Function Name  : ClearEPDoubleBuff
 398:../Drivers/STM32_USB-FS-Device_Driver/src/usb_regs.c ****   * Description    : Disable the double buffer feature for the endpoint. 
 399:../Drivers/STM32_USB-FS-Device_Driver/src/usb_regs.c ****   * Input          : bEpNum: Endpoint Number. 
 400:../Drivers/STM32_USB-FS-Device_Driver/src/usb_regs.c ****   * Output         : None.
 401:../Drivers/STM32_USB-FS-Device_Driver/src/usb_regs.c ****   * Return         : None.
 402:../Drivers/STM32_USB-FS-Device_Driver/src/usb_regs.c ****   **/
 403:../Drivers/STM32_USB-FS-Device_Driver/src/usb_regs.c **** void ClearEPDoubleBuff(uint8_t bEpNum)
 404:../Drivers/STM32_USB-FS-Device_Driver/src/usb_regs.c **** {
 405:../Drivers/STM32_USB-FS-Device_Driver/src/usb_regs.c ****   _ClearEP_KIND(bEpNum);
 406:../Drivers/STM32_USB-FS-Device_Driver/src/usb_regs.c **** }
 407:../Drivers/STM32_USB-FS-Device_Driver/src/usb_regs.c **** 
 408:../Drivers/STM32_USB-FS-Device_Driver/src/usb_regs.c **** /**
 409:../Drivers/STM32_USB-FS-Device_Driver/src/usb_regs.c ****   * Function Name  : GetTxStallStatus
 410:../Drivers/STM32_USB-FS-Device_Driver/src/usb_regs.c ****   * Description    : Returns the Stall status of the Tx endpoint.
 411:../Drivers/STM32_USB-FS-Device_Driver/src/usb_regs.c ****   * Input          : bEpNum: Endpoint Number. 
 412:../Drivers/STM32_USB-FS-Device_Driver/src/usb_regs.c ****   * Output         : None.
 413:../Drivers/STM32_USB-FS-Device_Driver/src/usb_regs.c ****   * Return         : Tx Stall status.
 414:../Drivers/STM32_USB-FS-Device_Driver/src/usb_regs.c ****   **/
 415:../Drivers/STM32_USB-FS-Device_Driver/src/usb_regs.c **** uint16_t GetTxStallStatus(uint8_t bEpNum)
 416:../Drivers/STM32_USB-FS-Device_Driver/src/usb_regs.c **** {
ARM GAS  /tmp/ccTwDDMa.s 			page 23


 882              		.loc 1 416 1 is_stmt 1 view -0
 883              		.cfi_startproc
 884              		@ args = 0, pretend = 0, frame = 0
 885              		@ frame_needed = 0, uses_anonymous_args = 0
 886              		@ link register save eliminated.
 417:../Drivers/STM32_USB-FS-Device_Driver/src/usb_regs.c ****   return(_GetTxStallStatus(bEpNum));
 887              		.loc 1 417 3 view .LVU138
 888              		.loc 1 417 10 is_stmt 0 view .LVU139
 889 0000 8000     		lsls	r0, r0, #2
 890              	.LVL49:
 891              		.loc 1 417 10 view .LVU140
 892 0002 00F18040 		add	r0, r0, #1073741824
 893 0006 00F5B840 		add	r0, r0, #23552
 894 000a 0068     		ldr	r0, [r0]
 895 000c 00F03000 		and	r0, r0, #48
 418:../Drivers/STM32_USB-FS-Device_Driver/src/usb_regs.c **** }
 896              		.loc 1 418 1 view .LVU141
 897 0010 A0F11003 		sub	r3, r0, #16
 898 0014 5842     		rsbs	r0, r3, #0
 899 0016 5841     		adcs	r0, r0, r3
 900 0018 7047     		bx	lr
 901              		.cfi_endproc
 902              	.LFE55:
 904              		.section	.text.GetRxStallStatus,"ax",%progbits
 905              		.align	1
 906              		.global	GetRxStallStatus
 907              		.syntax unified
 908              		.thumb
 909              		.thumb_func
 910              		.fpu softvfp
 912              	GetRxStallStatus:
 913              	.LVL50:
 914              	.LFB56:
 419:../Drivers/STM32_USB-FS-Device_Driver/src/usb_regs.c **** 
 420:../Drivers/STM32_USB-FS-Device_Driver/src/usb_regs.c **** /**
 421:../Drivers/STM32_USB-FS-Device_Driver/src/usb_regs.c ****   * Function Name  : GetRxStallStatus
 422:../Drivers/STM32_USB-FS-Device_Driver/src/usb_regs.c ****   * Description    : Returns the Stall status of the Rx endpoint. 
 423:../Drivers/STM32_USB-FS-Device_Driver/src/usb_regs.c ****   * Input          : bEpNum: Endpoint Number. 
 424:../Drivers/STM32_USB-FS-Device_Driver/src/usb_regs.c ****   * Output         : None.
 425:../Drivers/STM32_USB-FS-Device_Driver/src/usb_regs.c ****   * Return         : Rx Stall status.
 426:../Drivers/STM32_USB-FS-Device_Driver/src/usb_regs.c ****   **/
 427:../Drivers/STM32_USB-FS-Device_Driver/src/usb_regs.c **** uint16_t GetRxStallStatus(uint8_t bEpNum)
 428:../Drivers/STM32_USB-FS-Device_Driver/src/usb_regs.c **** {
 915              		.loc 1 428 1 is_stmt 1 view -0
 916              		.cfi_startproc
 917              		@ args = 0, pretend = 0, frame = 0
 918              		@ frame_needed = 0, uses_anonymous_args = 0
 919              		@ link register save eliminated.
 429:../Drivers/STM32_USB-FS-Device_Driver/src/usb_regs.c ****   return(_GetRxStallStatus(bEpNum));
 920              		.loc 1 429 3 view .LVU143
 921              		.loc 1 429 10 is_stmt 0 view .LVU144
 922 0000 8000     		lsls	r0, r0, #2
 923              	.LVL51:
 924              		.loc 1 429 10 view .LVU145
 925 0002 00F18040 		add	r0, r0, #1073741824
 926 0006 00F5B840 		add	r0, r0, #23552
 927 000a 0068     		ldr	r0, [r0]
ARM GAS  /tmp/ccTwDDMa.s 			page 24


 928 000c 00F44050 		and	r0, r0, #12288
 430:../Drivers/STM32_USB-FS-Device_Driver/src/usb_regs.c **** }
 929              		.loc 1 430 1 view .LVU146
 930 0010 A0F58053 		sub	r3, r0, #4096
 931 0014 5842     		rsbs	r0, r3, #0
 932 0016 5841     		adcs	r0, r0, r3
 933 0018 7047     		bx	lr
 934              		.cfi_endproc
 935              	.LFE56:
 937              		.section	.text.ClearEP_CTR_RX,"ax",%progbits
 938              		.align	1
 939              		.global	ClearEP_CTR_RX
 940              		.syntax unified
 941              		.thumb
 942              		.thumb_func
 943              		.fpu softvfp
 945              	ClearEP_CTR_RX:
 946              	.LVL52:
 947              	.LFB57:
 431:../Drivers/STM32_USB-FS-Device_Driver/src/usb_regs.c **** 
 432:../Drivers/STM32_USB-FS-Device_Driver/src/usb_regs.c **** /**
 433:../Drivers/STM32_USB-FS-Device_Driver/src/usb_regs.c ****   * Function Name  : ClearEP_CTR_RX
 434:../Drivers/STM32_USB-FS-Device_Driver/src/usb_regs.c ****   * Description    : Clear the CTR_RX bit.
 435:../Drivers/STM32_USB-FS-Device_Driver/src/usb_regs.c ****   * Input          : bEpNum: Endpoint Number. 
 436:../Drivers/STM32_USB-FS-Device_Driver/src/usb_regs.c ****   * Output         : None.
 437:../Drivers/STM32_USB-FS-Device_Driver/src/usb_regs.c ****   * Return         : None.
 438:../Drivers/STM32_USB-FS-Device_Driver/src/usb_regs.c ****   **/
 439:../Drivers/STM32_USB-FS-Device_Driver/src/usb_regs.c **** void ClearEP_CTR_RX(uint8_t bEpNum)
 440:../Drivers/STM32_USB-FS-Device_Driver/src/usb_regs.c **** {
 948              		.loc 1 440 1 is_stmt 1 view -0
 949              		.cfi_startproc
 950              		@ args = 0, pretend = 0, frame = 0
 951              		@ frame_needed = 0, uses_anonymous_args = 0
 952              		@ link register save eliminated.
 441:../Drivers/STM32_USB-FS-Device_Driver/src/usb_regs.c ****   _ClearEP_CTR_RX(bEpNum);
 953              		.loc 1 441 3 view .LVU148
 954 0000 8000     		lsls	r0, r0, #2
 955              	.LVL53:
 956              		.loc 1 441 3 is_stmt 0 view .LVU149
 957 0002 00F18040 		add	r0, r0, #1073741824
 958 0006 00F5B840 		add	r0, r0, #23552
 959 000a 0368     		ldr	r3, [r0]
 960 000c 23F07003 		bic	r3, r3, #112
 961 0010 1B05     		lsls	r3, r3, #20
 962 0012 1B0D     		lsrs	r3, r3, #20
 963 0014 0360     		str	r3, [r0]
 442:../Drivers/STM32_USB-FS-Device_Driver/src/usb_regs.c **** }
 964              		.loc 1 442 1 view .LVU150
 965 0016 7047     		bx	lr
 966              		.cfi_endproc
 967              	.LFE57:
 969              		.section	.text.ClearEP_CTR_TX,"ax",%progbits
 970              		.align	1
 971              		.global	ClearEP_CTR_TX
 972              		.syntax unified
 973              		.thumb
 974              		.thumb_func
ARM GAS  /tmp/ccTwDDMa.s 			page 25


 975              		.fpu softvfp
 977              	ClearEP_CTR_TX:
 978              	.LVL54:
 979              	.LFB58:
 443:../Drivers/STM32_USB-FS-Device_Driver/src/usb_regs.c **** 
 444:../Drivers/STM32_USB-FS-Device_Driver/src/usb_regs.c **** /**
 445:../Drivers/STM32_USB-FS-Device_Driver/src/usb_regs.c ****   * Function Name  : ClearEP_CTR_TX
 446:../Drivers/STM32_USB-FS-Device_Driver/src/usb_regs.c ****   * Description    : Clear the CTR_TX bit.
 447:../Drivers/STM32_USB-FS-Device_Driver/src/usb_regs.c ****   * Input          : bEpNum: Endpoint Number. 
 448:../Drivers/STM32_USB-FS-Device_Driver/src/usb_regs.c ****   * Output         : None.
 449:../Drivers/STM32_USB-FS-Device_Driver/src/usb_regs.c ****   * Return         : None.
 450:../Drivers/STM32_USB-FS-Device_Driver/src/usb_regs.c ****   **/
 451:../Drivers/STM32_USB-FS-Device_Driver/src/usb_regs.c **** void ClearEP_CTR_TX(uint8_t bEpNum)
 452:../Drivers/STM32_USB-FS-Device_Driver/src/usb_regs.c **** {
 980              		.loc 1 452 1 is_stmt 1 view -0
 981              		.cfi_startproc
 982              		@ args = 0, pretend = 0, frame = 0
 983              		@ frame_needed = 0, uses_anonymous_args = 0
 984              		@ link register save eliminated.
 453:../Drivers/STM32_USB-FS-Device_Driver/src/usb_regs.c ****   _ClearEP_CTR_TX(bEpNum);
 985              		.loc 1 453 3 view .LVU152
 986 0000 8000     		lsls	r0, r0, #2
 987              	.LVL55:
 988              		.loc 1 453 3 is_stmt 0 view .LVU153
 989 0002 00F18040 		add	r0, r0, #1073741824
 990 0006 00F5B840 		add	r0, r0, #23552
 991 000a 0368     		ldr	r3, [r0]
 992 000c 23F4E143 		bic	r3, r3, #28800
 993 0010 23F07003 		bic	r3, r3, #112
 994 0014 1B04     		lsls	r3, r3, #16
 995 0016 1B0C     		lsrs	r3, r3, #16
 996 0018 0360     		str	r3, [r0]
 454:../Drivers/STM32_USB-FS-Device_Driver/src/usb_regs.c **** }
 997              		.loc 1 454 1 view .LVU154
 998 001a 7047     		bx	lr
 999              		.cfi_endproc
 1000              	.LFE58:
 1002              		.section	.text.ToggleDTOG_RX,"ax",%progbits
 1003              		.align	1
 1004              		.global	ToggleDTOG_RX
 1005              		.syntax unified
 1006              		.thumb
 1007              		.thumb_func
 1008              		.fpu softvfp
 1010              	ToggleDTOG_RX:
 1011              	.LVL56:
 1012              	.LFB59:
 455:../Drivers/STM32_USB-FS-Device_Driver/src/usb_regs.c **** 
 456:../Drivers/STM32_USB-FS-Device_Driver/src/usb_regs.c **** /**
 457:../Drivers/STM32_USB-FS-Device_Driver/src/usb_regs.c ****   * Function Name  : ToggleDTOG_RX
 458:../Drivers/STM32_USB-FS-Device_Driver/src/usb_regs.c ****   * Description    : Toggle the DTOG_RX bit.
 459:../Drivers/STM32_USB-FS-Device_Driver/src/usb_regs.c ****   * Input          : bEpNum: Endpoint Number. 
 460:../Drivers/STM32_USB-FS-Device_Driver/src/usb_regs.c ****   * Output         : None.
 461:../Drivers/STM32_USB-FS-Device_Driver/src/usb_regs.c ****   * Return         : None.
 462:../Drivers/STM32_USB-FS-Device_Driver/src/usb_regs.c ****   **/
 463:../Drivers/STM32_USB-FS-Device_Driver/src/usb_regs.c **** void ToggleDTOG_RX(uint8_t bEpNum)
 464:../Drivers/STM32_USB-FS-Device_Driver/src/usb_regs.c **** {
ARM GAS  /tmp/ccTwDDMa.s 			page 26


 1013              		.loc 1 464 1 is_stmt 1 view -0
 1014              		.cfi_startproc
 1015              		@ args = 0, pretend = 0, frame = 0
 1016              		@ frame_needed = 0, uses_anonymous_args = 0
 1017              		@ link register save eliminated.
 465:../Drivers/STM32_USB-FS-Device_Driver/src/usb_regs.c ****   _ToggleDTOG_RX(bEpNum);
 1018              		.loc 1 465 3 view .LVU156
 1019 0000 8000     		lsls	r0, r0, #2
 1020              	.LVL57:
 1021              		.loc 1 465 3 is_stmt 0 view .LVU157
 1022 0002 00F18040 		add	r0, r0, #1073741824
 1023 0006 00F5B840 		add	r0, r0, #23552
 1024 000a 0368     		ldr	r3, [r0]
 1025 000c 23F0F003 		bic	r3, r3, #240
 1026 0010 1B05     		lsls	r3, r3, #20
 1027 0012 1B0D     		lsrs	r3, r3, #20
 1028 0014 43F44043 		orr	r3, r3, #49152
 1029 0018 43F08003 		orr	r3, r3, #128
 1030 001c 0360     		str	r3, [r0]
 466:../Drivers/STM32_USB-FS-Device_Driver/src/usb_regs.c **** }
 1031              		.loc 1 466 1 view .LVU158
 1032 001e 7047     		bx	lr
 1033              		.cfi_endproc
 1034              	.LFE59:
 1036              		.section	.text.ToggleDTOG_TX,"ax",%progbits
 1037              		.align	1
 1038              		.global	ToggleDTOG_TX
 1039              		.syntax unified
 1040              		.thumb
 1041              		.thumb_func
 1042              		.fpu softvfp
 1044              	ToggleDTOG_TX:
 1045              	.LVL58:
 1046              	.LFB60:
 467:../Drivers/STM32_USB-FS-Device_Driver/src/usb_regs.c **** 
 468:../Drivers/STM32_USB-FS-Device_Driver/src/usb_regs.c **** /**
 469:../Drivers/STM32_USB-FS-Device_Driver/src/usb_regs.c ****   * Function Name  : ToggleDTOG_TX
 470:../Drivers/STM32_USB-FS-Device_Driver/src/usb_regs.c ****   * Description    : Toggle the DTOG_TX bit.
 471:../Drivers/STM32_USB-FS-Device_Driver/src/usb_regs.c ****   * Input          : bEpNum: Endpoint Number. 
 472:../Drivers/STM32_USB-FS-Device_Driver/src/usb_regs.c ****   * Output         : None.
 473:../Drivers/STM32_USB-FS-Device_Driver/src/usb_regs.c ****   * Return         : None.
 474:../Drivers/STM32_USB-FS-Device_Driver/src/usb_regs.c ****   **/
 475:../Drivers/STM32_USB-FS-Device_Driver/src/usb_regs.c **** void ToggleDTOG_TX(uint8_t bEpNum)
 476:../Drivers/STM32_USB-FS-Device_Driver/src/usb_regs.c **** {
 1047              		.loc 1 476 1 is_stmt 1 view -0
 1048              		.cfi_startproc
 1049              		@ args = 0, pretend = 0, frame = 0
 1050              		@ frame_needed = 0, uses_anonymous_args = 0
 1051              		@ link register save eliminated.
 477:../Drivers/STM32_USB-FS-Device_Driver/src/usb_regs.c ****   _ToggleDTOG_TX(bEpNum);
 1052              		.loc 1 477 3 view .LVU160
 1053 0000 8000     		lsls	r0, r0, #2
 1054              	.LVL59:
 1055              		.loc 1 477 3 is_stmt 0 view .LVU161
 1056 0002 00F18040 		add	r0, r0, #1073741824
 1057 0006 00F5B840 		add	r0, r0, #23552
 1058 000a 0368     		ldr	r3, [r0]
ARM GAS  /tmp/ccTwDDMa.s 			page 27


 1059 000c 23F0F003 		bic	r3, r3, #240
 1060 0010 1B05     		lsls	r3, r3, #20
 1061 0012 1B0D     		lsrs	r3, r3, #20
 1062 0014 43F40043 		orr	r3, r3, #32768
 1063 0018 43F0C003 		orr	r3, r3, #192
 1064 001c 0360     		str	r3, [r0]
 478:../Drivers/STM32_USB-FS-Device_Driver/src/usb_regs.c **** }
 1065              		.loc 1 478 1 view .LVU162
 1066 001e 7047     		bx	lr
 1067              		.cfi_endproc
 1068              	.LFE60:
 1070              		.section	.text.ClearDTOG_RX,"ax",%progbits
 1071              		.align	1
 1072              		.global	ClearDTOG_RX
 1073              		.syntax unified
 1074              		.thumb
 1075              		.thumb_func
 1076              		.fpu softvfp
 1078              	ClearDTOG_RX:
 1079              	.LVL60:
 1080              	.LFB61:
 479:../Drivers/STM32_USB-FS-Device_Driver/src/usb_regs.c **** 
 480:../Drivers/STM32_USB-FS-Device_Driver/src/usb_regs.c **** /**
 481:../Drivers/STM32_USB-FS-Device_Driver/src/usb_regs.c ****   * Function Name  : ClearDTOG_RX.
 482:../Drivers/STM32_USB-FS-Device_Driver/src/usb_regs.c ****   * Description    : Clear the DTOG_RX bit.
 483:../Drivers/STM32_USB-FS-Device_Driver/src/usb_regs.c ****   * Input          : bEpNum: Endpoint Number. 
 484:../Drivers/STM32_USB-FS-Device_Driver/src/usb_regs.c ****   * Output         : None.
 485:../Drivers/STM32_USB-FS-Device_Driver/src/usb_regs.c ****   * Return         : None.
 486:../Drivers/STM32_USB-FS-Device_Driver/src/usb_regs.c ****   **/
 487:../Drivers/STM32_USB-FS-Device_Driver/src/usb_regs.c **** void ClearDTOG_RX(uint8_t bEpNum)
 488:../Drivers/STM32_USB-FS-Device_Driver/src/usb_regs.c **** {
 1081              		.loc 1 488 1 is_stmt 1 view -0
 1082              		.cfi_startproc
 1083              		@ args = 0, pretend = 0, frame = 0
 1084              		@ frame_needed = 0, uses_anonymous_args = 0
 1085              		@ link register save eliminated.
 489:../Drivers/STM32_USB-FS-Device_Driver/src/usb_regs.c ****   _ClearDTOG_RX(bEpNum);
 1086              		.loc 1 489 3 view .LVU164
 1087 0000 8000     		lsls	r0, r0, #2
 1088              	.LVL61:
 1089              		.loc 1 489 3 is_stmt 0 view .LVU165
 1090 0002 00F18040 		add	r0, r0, #1073741824
 1091 0006 00F5B840 		add	r0, r0, #23552
 1092 000a 0368     		ldr	r3, [r0]
 1093 000c 5B04     		lsls	r3, r3, #17
 1094 000e 09D5     		bpl	.L70
 1095              		.loc 1 489 3 is_stmt 1 discriminator 1 view .LVU166
 1096 0010 0368     		ldr	r3, [r0]
 1097 0012 23F0F003 		bic	r3, r3, #240
 1098 0016 1B05     		lsls	r3, r3, #20
 1099 0018 1B0D     		lsrs	r3, r3, #20
 1100 001a 43F44043 		orr	r3, r3, #49152
 1101 001e 43F08003 		orr	r3, r3, #128
 1102 0022 0360     		str	r3, [r0]
 1103              	.L70:
 490:../Drivers/STM32_USB-FS-Device_Driver/src/usb_regs.c **** }
 1104              		.loc 1 490 1 is_stmt 0 view .LVU167
ARM GAS  /tmp/ccTwDDMa.s 			page 28


 1105 0024 7047     		bx	lr
 1106              		.cfi_endproc
 1107              	.LFE61:
 1109              		.section	.text.ClearDTOG_TX,"ax",%progbits
 1110              		.align	1
 1111              		.global	ClearDTOG_TX
 1112              		.syntax unified
 1113              		.thumb
 1114              		.thumb_func
 1115              		.fpu softvfp
 1117              	ClearDTOG_TX:
 1118              	.LVL62:
 1119              	.LFB62:
 491:../Drivers/STM32_USB-FS-Device_Driver/src/usb_regs.c **** 
 492:../Drivers/STM32_USB-FS-Device_Driver/src/usb_regs.c **** /**
 493:../Drivers/STM32_USB-FS-Device_Driver/src/usb_regs.c ****   * Function Name  : ClearDTOG_TX.
 494:../Drivers/STM32_USB-FS-Device_Driver/src/usb_regs.c ****   * Description    : Clear the DTOG_TX bit.
 495:../Drivers/STM32_USB-FS-Device_Driver/src/usb_regs.c ****   * Input          : bEpNum: Endpoint Number. 
 496:../Drivers/STM32_USB-FS-Device_Driver/src/usb_regs.c ****   * Output         : None.
 497:../Drivers/STM32_USB-FS-Device_Driver/src/usb_regs.c ****   * Return         : None.
 498:../Drivers/STM32_USB-FS-Device_Driver/src/usb_regs.c ****   **/
 499:../Drivers/STM32_USB-FS-Device_Driver/src/usb_regs.c **** void ClearDTOG_TX(uint8_t bEpNum)
 500:../Drivers/STM32_USB-FS-Device_Driver/src/usb_regs.c **** {
 1120              		.loc 1 500 1 is_stmt 1 view -0
 1121              		.cfi_startproc
 1122              		@ args = 0, pretend = 0, frame = 0
 1123              		@ frame_needed = 0, uses_anonymous_args = 0
 1124              		@ link register save eliminated.
 501:../Drivers/STM32_USB-FS-Device_Driver/src/usb_regs.c ****   _ClearDTOG_TX(bEpNum);
 1125              		.loc 1 501 3 view .LVU169
 1126 0000 8000     		lsls	r0, r0, #2
 1127              	.LVL63:
 1128              		.loc 1 501 3 is_stmt 0 view .LVU170
 1129 0002 00F18040 		add	r0, r0, #1073741824
 1130 0006 00F5B840 		add	r0, r0, #23552
 1131 000a 0368     		ldr	r3, [r0]
 1132 000c 5B06     		lsls	r3, r3, #25
 1133 000e 09D5     		bpl	.L75
 1134              		.loc 1 501 3 is_stmt 1 discriminator 1 view .LVU171
 1135 0010 0368     		ldr	r3, [r0]
 1136 0012 23F0F003 		bic	r3, r3, #240
 1137 0016 1B05     		lsls	r3, r3, #20
 1138 0018 1B0D     		lsrs	r3, r3, #20
 1139 001a 43F40043 		orr	r3, r3, #32768
 1140 001e 43F0C003 		orr	r3, r3, #192
 1141 0022 0360     		str	r3, [r0]
 1142              	.L75:
 502:../Drivers/STM32_USB-FS-Device_Driver/src/usb_regs.c **** }
 1143              		.loc 1 502 1 is_stmt 0 view .LVU172
 1144 0024 7047     		bx	lr
 1145              		.cfi_endproc
 1146              	.LFE62:
 1148              		.section	.text.SetEPAddress,"ax",%progbits
 1149              		.align	1
 1150              		.global	SetEPAddress
 1151              		.syntax unified
 1152              		.thumb
ARM GAS  /tmp/ccTwDDMa.s 			page 29


 1153              		.thumb_func
 1154              		.fpu softvfp
 1156              	SetEPAddress:
 1157              	.LVL64:
 1158              	.LFB63:
 503:../Drivers/STM32_USB-FS-Device_Driver/src/usb_regs.c **** 
 504:../Drivers/STM32_USB-FS-Device_Driver/src/usb_regs.c **** /**
 505:../Drivers/STM32_USB-FS-Device_Driver/src/usb_regs.c ****   * Function Name  : SetEPAddress
 506:../Drivers/STM32_USB-FS-Device_Driver/src/usb_regs.c ****   * Description    : Set the endpoint address.
 507:../Drivers/STM32_USB-FS-Device_Driver/src/usb_regs.c ****   * Input          : bEpNum: Endpoint Number.
 508:../Drivers/STM32_USB-FS-Device_Driver/src/usb_regs.c ****   *                  bAddr: New endpoint address.
 509:../Drivers/STM32_USB-FS-Device_Driver/src/usb_regs.c ****   * Output         : None.
 510:../Drivers/STM32_USB-FS-Device_Driver/src/usb_regs.c ****   * Return         : None.
 511:../Drivers/STM32_USB-FS-Device_Driver/src/usb_regs.c ****   **/
 512:../Drivers/STM32_USB-FS-Device_Driver/src/usb_regs.c **** void SetEPAddress(uint8_t bEpNum, uint8_t bAddr)
 513:../Drivers/STM32_USB-FS-Device_Driver/src/usb_regs.c **** {
 1159              		.loc 1 513 1 is_stmt 1 view -0
 1160              		.cfi_startproc
 1161              		@ args = 0, pretend = 0, frame = 0
 1162              		@ frame_needed = 0, uses_anonymous_args = 0
 1163              		@ link register save eliminated.
 514:../Drivers/STM32_USB-FS-Device_Driver/src/usb_regs.c ****   _SetEPAddress(bEpNum, bAddr);
 1164              		.loc 1 514 3 view .LVU174
 1165 0000 8000     		lsls	r0, r0, #2
 1166              	.LVL65:
 1167              		.loc 1 514 3 is_stmt 0 view .LVU175
 1168 0002 00F18040 		add	r0, r0, #1073741824
 1169 0006 00F5B840 		add	r0, r0, #23552
 1170 000a 0368     		ldr	r3, [r0]
 1171 000c 23F0F003 		bic	r3, r3, #240
 1172 0010 1B05     		lsls	r3, r3, #20
 1173 0012 1B0D     		lsrs	r3, r3, #20
 1174 0014 1943     		orrs	r1, r1, r3
 1175              	.LVL66:
 1176              		.loc 1 514 3 view .LVU176
 1177 0016 41F40041 		orr	r1, r1, #32768
 1178 001a 41F08001 		orr	r1, r1, #128
 1179 001e 0160     		str	r1, [r0]
 515:../Drivers/STM32_USB-FS-Device_Driver/src/usb_regs.c **** }
 1180              		.loc 1 515 1 view .LVU177
 1181 0020 7047     		bx	lr
 1182              		.cfi_endproc
 1183              	.LFE63:
 1185              		.section	.text.GetEPAddress,"ax",%progbits
 1186              		.align	1
 1187              		.global	GetEPAddress
 1188              		.syntax unified
 1189              		.thumb
 1190              		.thumb_func
 1191              		.fpu softvfp
 1193              	GetEPAddress:
 1194              	.LVL67:
 1195              	.LFB64:
 516:../Drivers/STM32_USB-FS-Device_Driver/src/usb_regs.c **** 
 517:../Drivers/STM32_USB-FS-Device_Driver/src/usb_regs.c **** /**
 518:../Drivers/STM32_USB-FS-Device_Driver/src/usb_regs.c ****   * Function Name  : GetEPAddress
 519:../Drivers/STM32_USB-FS-Device_Driver/src/usb_regs.c ****   * Description    : Get the endpoint address.
ARM GAS  /tmp/ccTwDDMa.s 			page 30


 520:../Drivers/STM32_USB-FS-Device_Driver/src/usb_regs.c ****   * Input          : bEpNum: Endpoint Number. 
 521:../Drivers/STM32_USB-FS-Device_Driver/src/usb_regs.c ****   * Output         : None.
 522:../Drivers/STM32_USB-FS-Device_Driver/src/usb_regs.c ****   * Return         : Endpoint address.
 523:../Drivers/STM32_USB-FS-Device_Driver/src/usb_regs.c ****   **/
 524:../Drivers/STM32_USB-FS-Device_Driver/src/usb_regs.c **** uint8_t GetEPAddress(uint8_t bEpNum)
 525:../Drivers/STM32_USB-FS-Device_Driver/src/usb_regs.c **** {
 1196              		.loc 1 525 1 is_stmt 1 view -0
 1197              		.cfi_startproc
 1198              		@ args = 0, pretend = 0, frame = 0
 1199              		@ frame_needed = 0, uses_anonymous_args = 0
 1200              		@ link register save eliminated.
 526:../Drivers/STM32_USB-FS-Device_Driver/src/usb_regs.c ****   return(_GetEPAddress(bEpNum));
 1201              		.loc 1 526 3 view .LVU179
 1202              		.loc 1 526 10 is_stmt 0 view .LVU180
 1203 0000 8000     		lsls	r0, r0, #2
 1204              	.LVL68:
 1205              		.loc 1 526 10 view .LVU181
 1206 0002 00F18040 		add	r0, r0, #1073741824
 1207 0006 00F5B840 		add	r0, r0, #23552
 1208 000a 0068     		ldr	r0, [r0]
 527:../Drivers/STM32_USB-FS-Device_Driver/src/usb_regs.c **** }
 1209              		.loc 1 527 1 view .LVU182
 1210 000c 00F00F00 		and	r0, r0, #15
 1211 0010 7047     		bx	lr
 1212              		.cfi_endproc
 1213              	.LFE64:
 1215              		.section	.text.SetEPTxAddr,"ax",%progbits
 1216              		.align	1
 1217              		.global	SetEPTxAddr
 1218              		.syntax unified
 1219              		.thumb
 1220              		.thumb_func
 1221              		.fpu softvfp
 1223              	SetEPTxAddr:
 1224              	.LVL69:
 1225              	.LFB65:
 528:../Drivers/STM32_USB-FS-Device_Driver/src/usb_regs.c **** 
 529:../Drivers/STM32_USB-FS-Device_Driver/src/usb_regs.c **** /**
 530:../Drivers/STM32_USB-FS-Device_Driver/src/usb_regs.c ****   * Function Name  : SetEPTxAddr
 531:../Drivers/STM32_USB-FS-Device_Driver/src/usb_regs.c ****   * Description    : Set the endpoint Tx buffer address.
 532:../Drivers/STM32_USB-FS-Device_Driver/src/usb_regs.c ****   * Input          : bEpNum: Endpoint Number.
 533:../Drivers/STM32_USB-FS-Device_Driver/src/usb_regs.c ****   *                  wAddr: new address. 
 534:../Drivers/STM32_USB-FS-Device_Driver/src/usb_regs.c ****   * Output         : None.
 535:../Drivers/STM32_USB-FS-Device_Driver/src/usb_regs.c ****   * Return         : None.
 536:../Drivers/STM32_USB-FS-Device_Driver/src/usb_regs.c ****   **/
 537:../Drivers/STM32_USB-FS-Device_Driver/src/usb_regs.c **** void SetEPTxAddr(uint8_t bEpNum, uint16_t wAddr)
 538:../Drivers/STM32_USB-FS-Device_Driver/src/usb_regs.c **** {
 1226              		.loc 1 538 1 is_stmt 1 view -0
 1227              		.cfi_startproc
 1228              		@ args = 0, pretend = 0, frame = 0
 1229              		@ frame_needed = 0, uses_anonymous_args = 0
 1230              		@ link register save eliminated.
 539:../Drivers/STM32_USB-FS-Device_Driver/src/usb_regs.c ****   _SetEPTxAddr(bEpNum, wAddr);
 1231              		.loc 1 539 3 view .LVU184
 1232 0000 064B     		ldr	r3, .L83
 1233 0002 4908     		lsrs	r1, r1, #1
 1234              	.LVL70:
ARM GAS  /tmp/ccTwDDMa.s 			page 31


 1235              		.loc 1 539 3 is_stmt 0 view .LVU185
 1236 0004 1B68     		ldr	r3, [r3]
 1237 0006 4900     		lsls	r1, r1, #1
 1238 0008 9BB2     		uxth	r3, r3
 1239 000a 03EBC000 		add	r0, r3, r0, lsl #3
 1240              	.LVL71:
 1241              		.loc 1 539 3 view .LVU186
 1242 000e 00F10050 		add	r0, r0, #536870912
 1243 0012 00F54050 		add	r0, r0, #12288
 1244 0016 4000     		lsls	r0, r0, #1
 1245 0018 0160     		str	r1, [r0]
 540:../Drivers/STM32_USB-FS-Device_Driver/src/usb_regs.c **** }
 1246              		.loc 1 540 1 view .LVU187
 1247 001a 7047     		bx	lr
 1248              	.L84:
 1249              		.align	2
 1250              	.L83:
 1251 001c 505C0040 		.word	1073765456
 1252              		.cfi_endproc
 1253              	.LFE65:
 1255              		.section	.text.SetEPRxAddr,"ax",%progbits
 1256              		.align	1
 1257              		.global	SetEPRxAddr
 1258              		.syntax unified
 1259              		.thumb
 1260              		.thumb_func
 1261              		.fpu softvfp
 1263              	SetEPRxAddr:
 1264              	.LVL72:
 1265              	.LFB66:
 541:../Drivers/STM32_USB-FS-Device_Driver/src/usb_regs.c **** 
 542:../Drivers/STM32_USB-FS-Device_Driver/src/usb_regs.c **** /**
 543:../Drivers/STM32_USB-FS-Device_Driver/src/usb_regs.c ****   * Function Name  : SetEPRxAddr
 544:../Drivers/STM32_USB-FS-Device_Driver/src/usb_regs.c ****   * Description    : Set the endpoint Rx buffer address.
 545:../Drivers/STM32_USB-FS-Device_Driver/src/usb_regs.c ****   * Input          : bEpNum: Endpoint Number.
 546:../Drivers/STM32_USB-FS-Device_Driver/src/usb_regs.c ****   *                  wAddr: new address.
 547:../Drivers/STM32_USB-FS-Device_Driver/src/usb_regs.c ****   * Output         : None.
 548:../Drivers/STM32_USB-FS-Device_Driver/src/usb_regs.c ****   * Return         : None.
 549:../Drivers/STM32_USB-FS-Device_Driver/src/usb_regs.c **** **/
 550:../Drivers/STM32_USB-FS-Device_Driver/src/usb_regs.c **** void SetEPRxAddr(uint8_t bEpNum, uint16_t wAddr)
 551:../Drivers/STM32_USB-FS-Device_Driver/src/usb_regs.c **** {
 1266              		.loc 1 551 1 is_stmt 1 view -0
 1267              		.cfi_startproc
 1268              		@ args = 0, pretend = 0, frame = 0
 1269              		@ frame_needed = 0, uses_anonymous_args = 0
 1270              		@ link register save eliminated.
 552:../Drivers/STM32_USB-FS-Device_Driver/src/usb_regs.c ****   _SetEPRxAddr(bEpNum, wAddr);
 1271              		.loc 1 552 3 view .LVU189
 1272 0000 054B     		ldr	r3, .L86
 1273 0002 4908     		lsrs	r1, r1, #1
 1274              	.LVL73:
 1275              		.loc 1 552 3 is_stmt 0 view .LVU190
 1276 0004 1B68     		ldr	r3, [r3]
 1277 0006 4900     		lsls	r1, r1, #1
 1278 0008 9BB2     		uxth	r3, r3
 1279 000a 03EBC000 		add	r0, r3, r0, lsl #3
 1280              	.LVL74:
ARM GAS  /tmp/ccTwDDMa.s 			page 32


 1281              		.loc 1 552 3 view .LVU191
 1282 000e 034B     		ldr	r3, .L86+4
 1283 0010 0344     		add	r3, r3, r0
 1284 0012 5B00     		lsls	r3, r3, #1
 1285 0014 1960     		str	r1, [r3]
 553:../Drivers/STM32_USB-FS-Device_Driver/src/usb_regs.c **** }
 1286              		.loc 1 553 1 view .LVU192
 1287 0016 7047     		bx	lr
 1288              	.L87:
 1289              		.align	2
 1290              	.L86:
 1291 0018 505C0040 		.word	1073765456
 1292 001c 04300020 		.word	536883204
 1293              		.cfi_endproc
 1294              	.LFE66:
 1296              		.section	.text.GetEPTxAddr,"ax",%progbits
 1297              		.align	1
 1298              		.global	GetEPTxAddr
 1299              		.syntax unified
 1300              		.thumb
 1301              		.thumb_func
 1302              		.fpu softvfp
 1304              	GetEPTxAddr:
 1305              	.LVL75:
 1306              	.LFB67:
 554:../Drivers/STM32_USB-FS-Device_Driver/src/usb_regs.c **** 
 555:../Drivers/STM32_USB-FS-Device_Driver/src/usb_regs.c **** /**
 556:../Drivers/STM32_USB-FS-Device_Driver/src/usb_regs.c ****   * Function Name  : GetEPTxAddr
 557:../Drivers/STM32_USB-FS-Device_Driver/src/usb_regs.c ****   * Description    : Returns the endpoint Tx buffer address.
 558:../Drivers/STM32_USB-FS-Device_Driver/src/usb_regs.c ****   * Input          : bEpNum: Endpoint Number. 
 559:../Drivers/STM32_USB-FS-Device_Driver/src/usb_regs.c ****   * Output         : None.
 560:../Drivers/STM32_USB-FS-Device_Driver/src/usb_regs.c ****   * Return         : Rx buffer address. 
 561:../Drivers/STM32_USB-FS-Device_Driver/src/usb_regs.c ****   **/
 562:../Drivers/STM32_USB-FS-Device_Driver/src/usb_regs.c **** uint16_t GetEPTxAddr(uint8_t bEpNum)
 563:../Drivers/STM32_USB-FS-Device_Driver/src/usb_regs.c **** {
 1307              		.loc 1 563 1 is_stmt 1 view -0
 1308              		.cfi_startproc
 1309              		@ args = 0, pretend = 0, frame = 0
 1310              		@ frame_needed = 0, uses_anonymous_args = 0
 1311              		@ link register save eliminated.
 564:../Drivers/STM32_USB-FS-Device_Driver/src/usb_regs.c ****   return(_GetEPTxAddr(bEpNum));
 1312              		.loc 1 564 3 view .LVU194
 1313              		.loc 1 564 10 is_stmt 0 view .LVU195
 1314 0000 054B     		ldr	r3, .L89
 1315 0002 1B68     		ldr	r3, [r3]
 1316 0004 9BB2     		uxth	r3, r3
 1317 0006 03EBC000 		add	r0, r3, r0, lsl #3
 1318              	.LVL76:
 1319              		.loc 1 564 10 view .LVU196
 1320 000a 00F10050 		add	r0, r0, #536870912
 1321 000e 00F54050 		add	r0, r0, #12288
 1322 0012 4000     		lsls	r0, r0, #1
 565:../Drivers/STM32_USB-FS-Device_Driver/src/usb_regs.c **** }
 1323              		.loc 1 565 1 view .LVU197
 1324 0014 0088     		ldrh	r0, [r0]
 1325 0016 7047     		bx	lr
 1326              	.L90:
ARM GAS  /tmp/ccTwDDMa.s 			page 33


 1327              		.align	2
 1328              	.L89:
 1329 0018 505C0040 		.word	1073765456
 1330              		.cfi_endproc
 1331              	.LFE67:
 1333              		.section	.text.GetEPRxAddr,"ax",%progbits
 1334              		.align	1
 1335              		.global	GetEPRxAddr
 1336              		.syntax unified
 1337              		.thumb
 1338              		.thumb_func
 1339              		.fpu softvfp
 1341              	GetEPRxAddr:
 1342              	.LVL77:
 1343              	.LFB68:
 566:../Drivers/STM32_USB-FS-Device_Driver/src/usb_regs.c **** 
 567:../Drivers/STM32_USB-FS-Device_Driver/src/usb_regs.c **** /**
 568:../Drivers/STM32_USB-FS-Device_Driver/src/usb_regs.c ****     * Function Name  : GetEPRxAddr.
 569:../Drivers/STM32_USB-FS-Device_Driver/src/usb_regs.c ****     * Description    : Returns the endpoint Rx buffer address.
 570:../Drivers/STM32_USB-FS-Device_Driver/src/usb_regs.c ****     * Input          : bEpNum: Endpoint Number. 
 571:../Drivers/STM32_USB-FS-Device_Driver/src/usb_regs.c ****     * Output         : None.
 572:../Drivers/STM32_USB-FS-Device_Driver/src/usb_regs.c ****     * Return         : Rx buffer address.
 573:../Drivers/STM32_USB-FS-Device_Driver/src/usb_regs.c ****     **/
 574:../Drivers/STM32_USB-FS-Device_Driver/src/usb_regs.c **** uint16_t GetEPRxAddr(uint8_t bEpNum)
 575:../Drivers/STM32_USB-FS-Device_Driver/src/usb_regs.c **** {
 1344              		.loc 1 575 1 is_stmt 1 view -0
 1345              		.cfi_startproc
 1346              		@ args = 0, pretend = 0, frame = 0
 1347              		@ frame_needed = 0, uses_anonymous_args = 0
 1348              		@ link register save eliminated.
 576:../Drivers/STM32_USB-FS-Device_Driver/src/usb_regs.c ****   return(_GetEPRxAddr(bEpNum));
 1349              		.loc 1 576 3 view .LVU199
 1350              		.loc 1 576 10 is_stmt 0 view .LVU200
 1351 0000 044B     		ldr	r3, .L92
 1352 0002 1B68     		ldr	r3, [r3]
 1353 0004 9BB2     		uxth	r3, r3
 1354 0006 03EBC000 		add	r0, r3, r0, lsl #3
 1355              	.LVL78:
 1356              		.loc 1 576 10 view .LVU201
 1357 000a 034B     		ldr	r3, .L92+4
 1358 000c 0344     		add	r3, r3, r0
 1359 000e 5B00     		lsls	r3, r3, #1
 577:../Drivers/STM32_USB-FS-Device_Driver/src/usb_regs.c **** }
 1360              		.loc 1 577 1 view .LVU202
 1361 0010 1888     		ldrh	r0, [r3]
 1362 0012 7047     		bx	lr
 1363              	.L93:
 1364              		.align	2
 1365              	.L92:
 1366 0014 505C0040 		.word	1073765456
 1367 0018 04300020 		.word	536883204
 1368              		.cfi_endproc
 1369              	.LFE68:
 1371              		.section	.text.SetEPTxCount,"ax",%progbits
 1372              		.align	1
 1373              		.global	SetEPTxCount
 1374              		.syntax unified
ARM GAS  /tmp/ccTwDDMa.s 			page 34


 1375              		.thumb
 1376              		.thumb_func
 1377              		.fpu softvfp
 1379              	SetEPTxCount:
 1380              	.LVL79:
 1381              	.LFB69:
 578:../Drivers/STM32_USB-FS-Device_Driver/src/usb_regs.c **** 
 579:../Drivers/STM32_USB-FS-Device_Driver/src/usb_regs.c **** /**
 580:../Drivers/STM32_USB-FS-Device_Driver/src/usb_regs.c ****   * Function Name  : SetEPTxCount.
 581:../Drivers/STM32_USB-FS-Device_Driver/src/usb_regs.c ****   * Description    : Set the Tx count.
 582:../Drivers/STM32_USB-FS-Device_Driver/src/usb_regs.c ****   * Input          : bEpNum: Endpoint Number.
 583:../Drivers/STM32_USB-FS-Device_Driver/src/usb_regs.c ****   *                  wCount: new count value.
 584:../Drivers/STM32_USB-FS-Device_Driver/src/usb_regs.c ****   * Output         : None.
 585:../Drivers/STM32_USB-FS-Device_Driver/src/usb_regs.c ****   * Return         : None.
 586:../Drivers/STM32_USB-FS-Device_Driver/src/usb_regs.c ****   **/
 587:../Drivers/STM32_USB-FS-Device_Driver/src/usb_regs.c **** void SetEPTxCount(uint8_t bEpNum, uint16_t wCount)
 588:../Drivers/STM32_USB-FS-Device_Driver/src/usb_regs.c **** {
 1382              		.loc 1 588 1 is_stmt 1 view -0
 1383              		.cfi_startproc
 1384              		@ args = 0, pretend = 0, frame = 0
 1385              		@ frame_needed = 0, uses_anonymous_args = 0
 1386              		@ link register save eliminated.
 589:../Drivers/STM32_USB-FS-Device_Driver/src/usb_regs.c ****   _SetEPTxCount(bEpNum, wCount);
 1387              		.loc 1 589 3 view .LVU204
 1388 0000 044B     		ldr	r3, .L95
 1389 0002 1B68     		ldr	r3, [r3]
 1390 0004 9BB2     		uxth	r3, r3
 1391 0006 03EBC000 		add	r0, r3, r0, lsl #3
 1392              	.LVL80:
 1393              		.loc 1 589 3 is_stmt 0 view .LVU205
 1394 000a 034B     		ldr	r3, .L95+4
 1395 000c 0344     		add	r3, r3, r0
 1396 000e 5B00     		lsls	r3, r3, #1
 1397 0010 1960     		str	r1, [r3]
 590:../Drivers/STM32_USB-FS-Device_Driver/src/usb_regs.c **** }
 1398              		.loc 1 590 1 view .LVU206
 1399 0012 7047     		bx	lr
 1400              	.L96:
 1401              		.align	2
 1402              	.L95:
 1403 0014 505C0040 		.word	1073765456
 1404 0018 02300020 		.word	536883202
 1405              		.cfi_endproc
 1406              	.LFE69:
 1408              		.section	.text.SetEPCountRxReg,"ax",%progbits
 1409              		.align	1
 1410              		.global	SetEPCountRxReg
 1411              		.syntax unified
 1412              		.thumb
 1413              		.thumb_func
 1414              		.fpu softvfp
 1416              	SetEPCountRxReg:
 1417              	.LVL81:
 1418              	.LFB70:
 591:../Drivers/STM32_USB-FS-Device_Driver/src/usb_regs.c **** 
 592:../Drivers/STM32_USB-FS-Device_Driver/src/usb_regs.c **** /**
 593:../Drivers/STM32_USB-FS-Device_Driver/src/usb_regs.c ****   * Function Name  : SetEPCountRxReg.
ARM GAS  /tmp/ccTwDDMa.s 			page 35


 594:../Drivers/STM32_USB-FS-Device_Driver/src/usb_regs.c ****   * Description    : Set the Count Rx Register value.
 595:../Drivers/STM32_USB-FS-Device_Driver/src/usb_regs.c ****   * Input          : *pdwReg: point to the register.
 596:../Drivers/STM32_USB-FS-Device_Driver/src/usb_regs.c ****   *                  wCount: the new register value.
 597:../Drivers/STM32_USB-FS-Device_Driver/src/usb_regs.c ****   * Output         : None.
 598:../Drivers/STM32_USB-FS-Device_Driver/src/usb_regs.c ****   * Return         : None.
 599:../Drivers/STM32_USB-FS-Device_Driver/src/usb_regs.c ****   **/
 600:../Drivers/STM32_USB-FS-Device_Driver/src/usb_regs.c **** #if defined STM32F303xE || defined STM32F302x8 
 601:../Drivers/STM32_USB-FS-Device_Driver/src/usb_regs.c **** void SetEPCountRxReg(uint16_t *pdwReg, uint16_t wCount)
 602:../Drivers/STM32_USB-FS-Device_Driver/src/usb_regs.c **** {
 603:../Drivers/STM32_USB-FS-Device_Driver/src/usb_regs.c ****   _SetEPCountRxReg(pdwReg, wCount);
 604:../Drivers/STM32_USB-FS-Device_Driver/src/usb_regs.c **** }
 605:../Drivers/STM32_USB-FS-Device_Driver/src/usb_regs.c **** #else
 606:../Drivers/STM32_USB-FS-Device_Driver/src/usb_regs.c **** void SetEPCountRxReg(uint32_t *pdwReg, uint16_t wCount)
 607:../Drivers/STM32_USB-FS-Device_Driver/src/usb_regs.c **** {
 1419              		.loc 1 607 1 is_stmt 1 view -0
 1420              		.cfi_startproc
 1421              		@ args = 0, pretend = 0, frame = 0
 1422              		@ frame_needed = 0, uses_anonymous_args = 0
 1423              		@ link register save eliminated.
 1424              	.LBB12:
 608:../Drivers/STM32_USB-FS-Device_Driver/src/usb_regs.c ****   _SetEPCountRxReg(dwReg, wCount);
 1425              		.loc 1 608 3 view .LVU208
 1426              		.loc 1 608 3 view .LVU209
 1427 0000 3E29     		cmp	r1, #62
 1428 0002 0AD9     		bls	.L98
 1429              		.loc 1 608 3 discriminator 1 view .LVU210
 1430 0004 4B09     		lsrs	r3, r1, #5
 1431              	.LVL82:
 1432              		.loc 1 608 3 discriminator 1 view .LVU211
 1433 0006 C906     		lsls	r1, r1, #27
 1434              	.LVL83:
 1435              		.loc 1 608 3 discriminator 1 view .LVU212
 1436 0008 04BF     		itt	eq
 1437 000a 03F1FF33 		addeq	r3, r3, #-1
 1438              	.LVL84:
 1439              		.loc 1 608 3 is_stmt 0 discriminator 1 view .LVU213
 1440 000e 9BB2     		uxtheq	r3, r3
 1441              	.LVL85:
 1442              		.loc 1 608 3 is_stmt 1 discriminator 1 view .LVU214
 1443 0010 9B02     		lsls	r3, r3, #10
 1444              	.LVL86:
 1445              		.loc 1 608 3 is_stmt 0 discriminator 1 view .LVU215
 1446 0012 43F40043 		orr	r3, r3, #32768
 1447              	.L105:
 1448              		.loc 1 608 3 discriminator 9 view .LVU216
 1449 0016 0360     		str	r3, [r0]
 1450              		.loc 1 608 3 is_stmt 1 discriminator 9 view .LVU217
 1451              	.LBE12:
 1452              		.loc 1 608 34 discriminator 9 view .LVU218
 609:../Drivers/STM32_USB-FS-Device_Driver/src/usb_regs.c **** }
 1453              		.loc 1 609 1 is_stmt 0 discriminator 9 view .LVU219
 1454 0018 7047     		bx	lr
 1455              	.LVL87:
 1456              	.L98:
 1457              	.LBB13:
 608:../Drivers/STM32_USB-FS-Device_Driver/src/usb_regs.c ****   _SetEPCountRxReg(dwReg, wCount);
 1458              		.loc 1 608 3 is_stmt 1 discriminator 2 view .LVU220
ARM GAS  /tmp/ccTwDDMa.s 			page 36


 1459 001a 4B08     		lsrs	r3, r1, #1
 1460              	.LVL88:
 608:../Drivers/STM32_USB-FS-Device_Driver/src/usb_regs.c ****   _SetEPCountRxReg(dwReg, wCount);
 1461              		.loc 1 608 3 discriminator 2 view .LVU221
 1462 001c CA07     		lsls	r2, r1, #31
 608:../Drivers/STM32_USB-FS-Device_Driver/src/usb_regs.c ****   _SetEPCountRxReg(dwReg, wCount);
 1463              		.loc 1 608 3 discriminator 2 view .LVU222
 1464 001e 48BF     		it	mi
 1465 0020 0133     		addmi	r3, r3, #1
 1466              	.LVL89:
 608:../Drivers/STM32_USB-FS-Device_Driver/src/usb_regs.c ****   _SetEPCountRxReg(dwReg, wCount);
 1467              		.loc 1 608 3 discriminator 2 view .LVU223
 1468 0022 9B02     		lsls	r3, r3, #10
 1469              	.LVL90:
 608:../Drivers/STM32_USB-FS-Device_Driver/src/usb_regs.c ****   _SetEPCountRxReg(dwReg, wCount);
 1470              		.loc 1 608 3 is_stmt 0 discriminator 2 view .LVU224
 1471 0024 F7E7     		b	.L105
 1472              	.LBE13:
 1473              		.cfi_endproc
 1474              	.LFE70:
 1476              		.section	.text.SetEPRxCount,"ax",%progbits
 1477              		.align	1
 1478              		.global	SetEPRxCount
 1479              		.syntax unified
 1480              		.thumb
 1481              		.thumb_func
 1482              		.fpu softvfp
 1484              	SetEPRxCount:
 1485              	.LVL91:
 1486              	.LFB71:
 610:../Drivers/STM32_USB-FS-Device_Driver/src/usb_regs.c **** #endif
 611:../Drivers/STM32_USB-FS-Device_Driver/src/usb_regs.c **** 
 612:../Drivers/STM32_USB-FS-Device_Driver/src/usb_regs.c **** /**
 613:../Drivers/STM32_USB-FS-Device_Driver/src/usb_regs.c ****   * Function Name  : SetEPRxCount
 614:../Drivers/STM32_USB-FS-Device_Driver/src/usb_regs.c ****   * Description    : Set the Rx count.
 615:../Drivers/STM32_USB-FS-Device_Driver/src/usb_regs.c ****   * Input          : bEpNum: Endpoint Number. 
 616:../Drivers/STM32_USB-FS-Device_Driver/src/usb_regs.c ****   *                  wCount: the new count value.
 617:../Drivers/STM32_USB-FS-Device_Driver/src/usb_regs.c ****   * Output         : None.
 618:../Drivers/STM32_USB-FS-Device_Driver/src/usb_regs.c ****   * Return         : None.
 619:../Drivers/STM32_USB-FS-Device_Driver/src/usb_regs.c ****   **/
 620:../Drivers/STM32_USB-FS-Device_Driver/src/usb_regs.c **** void SetEPRxCount(uint8_t bEpNum, uint16_t wCount)
 621:../Drivers/STM32_USB-FS-Device_Driver/src/usb_regs.c **** {
 1487              		.loc 1 621 1 is_stmt 1 view -0
 1488              		.cfi_startproc
 1489              		@ args = 0, pretend = 0, frame = 0
 1490              		@ frame_needed = 0, uses_anonymous_args = 0
 1491              		@ link register save eliminated.
 1492              	.LBB14:
 622:../Drivers/STM32_USB-FS-Device_Driver/src/usb_regs.c ****   _SetEPRxCount(bEpNum, wCount);
 1493              		.loc 1 622 3 view .LVU226
 1494 0000 0D4B     		ldr	r3, .L115
 1495 0002 0E4A     		ldr	r2, .L115+4
 1496 0004 1B68     		ldr	r3, [r3]
 1497              	.LBB15:
 1498 0006 3E29     		cmp	r1, #62
 1499              	.LBE15:
 1500 0008 9BB2     		uxth	r3, r3
ARM GAS  /tmp/ccTwDDMa.s 			page 37


 1501 000a 03EBC000 		add	r0, r3, r0, lsl #3
 1502              	.LVL92:
 1503              		.loc 1 622 3 is_stmt 0 view .LVU227
 1504 000e 0244     		add	r2, r2, r0
 1505 0010 4FEA4202 		lsl	r2, r2, #1
 1506              	.LVL93:
 1507              	.LBB16:
 1508              		.loc 1 622 3 is_stmt 1 view .LVU228
 1509              		.loc 1 622 3 view .LVU229
 1510 0014 0AD9     		bls	.L107
 1511              		.loc 1 622 3 discriminator 1 view .LVU230
 1512 0016 4B09     		lsrs	r3, r1, #5
 1513              	.LVL94:
 1514              		.loc 1 622 3 discriminator 1 view .LVU231
 1515 0018 C806     		lsls	r0, r1, #27
 1516              		.loc 1 622 3 discriminator 1 view .LVU232
 1517 001a 04BF     		itt	eq
 1518 001c 03F1FF33 		addeq	r3, r3, #-1
 1519              	.LVL95:
 1520              		.loc 1 622 3 is_stmt 0 discriminator 1 view .LVU233
 1521 0020 9BB2     		uxtheq	r3, r3
 1522              	.LVL96:
 1523              		.loc 1 622 3 is_stmt 1 discriminator 1 view .LVU234
 1524 0022 9B02     		lsls	r3, r3, #10
 1525              	.LVL97:
 1526              		.loc 1 622 3 is_stmt 0 discriminator 1 view .LVU235
 1527 0024 43F40043 		orr	r3, r3, #32768
 1528              	.LVL98:
 1529              	.L114:
 1530              		.loc 1 622 3 discriminator 9 view .LVU236
 1531 0028 1360     		str	r3, [r2]
 1532              		.loc 1 622 3 is_stmt 1 discriminator 9 view .LVU237
 1533              	.LBE16:
 1534              		.loc 1 622 3 discriminator 9 view .LVU238
 1535              	.LBE14:
 1536              		.loc 1 622 32 discriminator 9 view .LVU239
 623:../Drivers/STM32_USB-FS-Device_Driver/src/usb_regs.c **** }
 1537              		.loc 1 623 1 is_stmt 0 discriminator 9 view .LVU240
 1538 002a 7047     		bx	lr
 1539              	.LVL99:
 1540              	.L107:
 1541              	.LBB18:
 1542              	.LBB17:
 622:../Drivers/STM32_USB-FS-Device_Driver/src/usb_regs.c ****   _SetEPRxCount(bEpNum, wCount);
 1543              		.loc 1 622 3 is_stmt 1 discriminator 2 view .LVU241
 1544 002c 4B08     		lsrs	r3, r1, #1
 1545              	.LVL100:
 622:../Drivers/STM32_USB-FS-Device_Driver/src/usb_regs.c ****   _SetEPRxCount(bEpNum, wCount);
 1546              		.loc 1 622 3 discriminator 2 view .LVU242
 1547 002e C907     		lsls	r1, r1, #31
 1548              	.LVL101:
 622:../Drivers/STM32_USB-FS-Device_Driver/src/usb_regs.c ****   _SetEPRxCount(bEpNum, wCount);
 1549              		.loc 1 622 3 discriminator 2 view .LVU243
 1550 0030 48BF     		it	mi
 1551 0032 0133     		addmi	r3, r3, #1
 1552              	.LVL102:
 622:../Drivers/STM32_USB-FS-Device_Driver/src/usb_regs.c ****   _SetEPRxCount(bEpNum, wCount);
ARM GAS  /tmp/ccTwDDMa.s 			page 38


 1553              		.loc 1 622 3 discriminator 2 view .LVU244
 1554 0034 9B02     		lsls	r3, r3, #10
 1555              	.LVL103:
 622:../Drivers/STM32_USB-FS-Device_Driver/src/usb_regs.c ****   _SetEPRxCount(bEpNum, wCount);
 1556              		.loc 1 622 3 is_stmt 0 discriminator 2 view .LVU245
 1557 0036 F7E7     		b	.L114
 1558              	.L116:
 1559              		.align	2
 1560              	.L115:
 1561 0038 505C0040 		.word	1073765456
 1562 003c 06300020 		.word	536883206
 1563              	.LBE17:
 1564              	.LBE18:
 1565              		.cfi_endproc
 1566              	.LFE71:
 1568              		.section	.text.GetEPTxCount,"ax",%progbits
 1569              		.align	1
 1570              		.global	GetEPTxCount
 1571              		.syntax unified
 1572              		.thumb
 1573              		.thumb_func
 1574              		.fpu softvfp
 1576              	GetEPTxCount:
 1577              	.LVL104:
 1578              	.LFB72:
 624:../Drivers/STM32_USB-FS-Device_Driver/src/usb_regs.c **** 
 625:../Drivers/STM32_USB-FS-Device_Driver/src/usb_regs.c **** /**
 626:../Drivers/STM32_USB-FS-Device_Driver/src/usb_regs.c ****   * Function Name  : GetEPTxCount
 627:../Drivers/STM32_USB-FS-Device_Driver/src/usb_regs.c ****   * Description    : Get the Tx count.
 628:../Drivers/STM32_USB-FS-Device_Driver/src/usb_regs.c ****   * Input          : bEpNum: Endpoint Number. 
 629:../Drivers/STM32_USB-FS-Device_Driver/src/usb_regs.c ****   * Output         : None
 630:../Drivers/STM32_USB-FS-Device_Driver/src/usb_regs.c ****   * Return         : Tx count value.
 631:../Drivers/STM32_USB-FS-Device_Driver/src/usb_regs.c ****   **/
 632:../Drivers/STM32_USB-FS-Device_Driver/src/usb_regs.c **** uint16_t GetEPTxCount(uint8_t bEpNum)
 633:../Drivers/STM32_USB-FS-Device_Driver/src/usb_regs.c **** {
 1579              		.loc 1 633 1 is_stmt 1 view -0
 1580              		.cfi_startproc
 1581              		@ args = 0, pretend = 0, frame = 0
 1582              		@ frame_needed = 0, uses_anonymous_args = 0
 1583              		@ link register save eliminated.
 634:../Drivers/STM32_USB-FS-Device_Driver/src/usb_regs.c ****   return(_GetEPTxCount(bEpNum));
 1584              		.loc 1 634 3 view .LVU247
 1585              		.loc 1 634 10 is_stmt 0 view .LVU248
 1586 0000 054B     		ldr	r3, .L118
 1587 0002 1B68     		ldr	r3, [r3]
 1588 0004 9BB2     		uxth	r3, r3
 1589 0006 03EBC000 		add	r0, r3, r0, lsl #3
 1590              	.LVL105:
 1591              		.loc 1 634 10 view .LVU249
 1592 000a 044B     		ldr	r3, .L118+4
 1593 000c 0344     		add	r3, r3, r0
 1594 000e 5B00     		lsls	r3, r3, #1
 1595 0010 1868     		ldr	r0, [r3]
 635:../Drivers/STM32_USB-FS-Device_Driver/src/usb_regs.c **** }
 1596              		.loc 1 635 1 view .LVU250
 1597 0012 C0F30900 		ubfx	r0, r0, #0, #10
 1598 0016 7047     		bx	lr
ARM GAS  /tmp/ccTwDDMa.s 			page 39


 1599              	.L119:
 1600              		.align	2
 1601              	.L118:
 1602 0018 505C0040 		.word	1073765456
 1603 001c 02300020 		.word	536883202
 1604              		.cfi_endproc
 1605              	.LFE72:
 1607              		.section	.text.GetEPRxCount,"ax",%progbits
 1608              		.align	1
 1609              		.global	GetEPRxCount
 1610              		.syntax unified
 1611              		.thumb
 1612              		.thumb_func
 1613              		.fpu softvfp
 1615              	GetEPRxCount:
 1616              	.LVL106:
 1617              	.LFB73:
 636:../Drivers/STM32_USB-FS-Device_Driver/src/usb_regs.c **** 
 637:../Drivers/STM32_USB-FS-Device_Driver/src/usb_regs.c **** /**
 638:../Drivers/STM32_USB-FS-Device_Driver/src/usb_regs.c ****   * Function Name  : GetEPRxCount
 639:../Drivers/STM32_USB-FS-Device_Driver/src/usb_regs.c ****   * Description    : Get the Rx count.
 640:../Drivers/STM32_USB-FS-Device_Driver/src/usb_regs.c ****   * Input          : bEpNum: Endpoint Number. 
 641:../Drivers/STM32_USB-FS-Device_Driver/src/usb_regs.c ****   * Output         : None.
 642:../Drivers/STM32_USB-FS-Device_Driver/src/usb_regs.c ****   * Return         : Rx count value.
 643:../Drivers/STM32_USB-FS-Device_Driver/src/usb_regs.c ****   **/
 644:../Drivers/STM32_USB-FS-Device_Driver/src/usb_regs.c **** uint16_t GetEPRxCount(uint8_t bEpNum)
 645:../Drivers/STM32_USB-FS-Device_Driver/src/usb_regs.c **** {
 1618              		.loc 1 645 1 is_stmt 1 view -0
 1619              		.cfi_startproc
 1620              		@ args = 0, pretend = 0, frame = 0
 1621              		@ frame_needed = 0, uses_anonymous_args = 0
 1622              		@ link register save eliminated.
 646:../Drivers/STM32_USB-FS-Device_Driver/src/usb_regs.c ****   return(_GetEPRxCount(bEpNum));
 1623              		.loc 1 646 3 view .LVU252
 1624              		.loc 1 646 10 is_stmt 0 view .LVU253
 1625 0000 054B     		ldr	r3, .L121
 1626 0002 1B68     		ldr	r3, [r3]
 1627 0004 9BB2     		uxth	r3, r3
 1628 0006 03EBC000 		add	r0, r3, r0, lsl #3
 1629              	.LVL107:
 1630              		.loc 1 646 10 view .LVU254
 1631 000a 044B     		ldr	r3, .L121+4
 1632 000c 0344     		add	r3, r3, r0
 1633 000e 5B00     		lsls	r3, r3, #1
 1634 0010 1868     		ldr	r0, [r3]
 647:../Drivers/STM32_USB-FS-Device_Driver/src/usb_regs.c **** }
 1635              		.loc 1 647 1 view .LVU255
 1636 0012 C0F30900 		ubfx	r0, r0, #0, #10
 1637 0016 7047     		bx	lr
 1638              	.L122:
 1639              		.align	2
 1640              	.L121:
 1641 0018 505C0040 		.word	1073765456
 1642 001c 06300020 		.word	536883206
 1643              		.cfi_endproc
 1644              	.LFE73:
 1646              		.section	.text.SetEPDblBuffAddr,"ax",%progbits
ARM GAS  /tmp/ccTwDDMa.s 			page 40


 1647              		.align	1
 1648              		.global	SetEPDblBuffAddr
 1649              		.syntax unified
 1650              		.thumb
 1651              		.thumb_func
 1652              		.fpu softvfp
 1654              	SetEPDblBuffAddr:
 1655              	.LVL108:
 1656              	.LFB74:
 648:../Drivers/STM32_USB-FS-Device_Driver/src/usb_regs.c **** 
 649:../Drivers/STM32_USB-FS-Device_Driver/src/usb_regs.c **** /**
 650:../Drivers/STM32_USB-FS-Device_Driver/src/usb_regs.c ****   * Function Name  : SetEPDblBuffAddr
 651:../Drivers/STM32_USB-FS-Device_Driver/src/usb_regs.c ****   * Description    : Set the addresses of the buffer 0 and 1.
 652:../Drivers/STM32_USB-FS-Device_Driver/src/usb_regs.c ****   * Input          : bEpNum: Endpoint Number.  
 653:../Drivers/STM32_USB-FS-Device_Driver/src/usb_regs.c ****   *                  wBuf0Addr: new address of buffer 0. 
 654:../Drivers/STM32_USB-FS-Device_Driver/src/usb_regs.c ****   *                  wBuf1Addr: new address of buffer 1.
 655:../Drivers/STM32_USB-FS-Device_Driver/src/usb_regs.c ****   * Output         : None.
 656:../Drivers/STM32_USB-FS-Device_Driver/src/usb_regs.c ****   * Return         : None.
 657:../Drivers/STM32_USB-FS-Device_Driver/src/usb_regs.c ****   **/
 658:../Drivers/STM32_USB-FS-Device_Driver/src/usb_regs.c **** void SetEPDblBuffAddr(uint8_t bEpNum, uint16_t wBuf0Addr, uint16_t wBuf1Addr)
 659:../Drivers/STM32_USB-FS-Device_Driver/src/usb_regs.c **** {
 1657              		.loc 1 659 1 is_stmt 1 view -0
 1658              		.cfi_startproc
 1659              		@ args = 0, pretend = 0, frame = 0
 1660              		@ frame_needed = 0, uses_anonymous_args = 0
 660:../Drivers/STM32_USB-FS-Device_Driver/src/usb_regs.c ****   _SetEPDblBuffAddr(bEpNum, wBuf0Addr, wBuf1Addr);
 1661              		.loc 1 660 3 view .LVU257
 659:../Drivers/STM32_USB-FS-Device_Driver/src/usb_regs.c ****   _SetEPDblBuffAddr(bEpNum, wBuf0Addr, wBuf1Addr);
 1662              		.loc 1 659 1 is_stmt 0 view .LVU258
 1663 0000 10B5     		push	{r4, lr}
 1664              	.LCFI0:
 1665              		.cfi_def_cfa_offset 8
 1666              		.cfi_offset 4, -8
 1667              		.cfi_offset 14, -4
 1668              		.loc 1 660 3 view .LVU259
 1669 0002 0C4C     		ldr	r4, .L124
 1670 0004 4908     		lsrs	r1, r1, #1
 1671              	.LVL109:
 1672              		.loc 1 660 3 view .LVU260
 1673 0006 2368     		ldr	r3, [r4]
 1674 0008 4900     		lsls	r1, r1, #1
 1675 000a 9BB2     		uxth	r3, r3
 1676 000c 03EBC003 		add	r3, r3, r0, lsl #3
 1677 0010 03F10053 		add	r3, r3, #536870912
 1678 0014 03F54053 		add	r3, r3, #12288
 1679 0018 5B00     		lsls	r3, r3, #1
 1680 001a 1960     		str	r1, [r3]
 1681              		.loc 1 660 3 is_stmt 1 view .LVU261
 1682              		.loc 1 660 3 view .LVU262
 1683 001c 2368     		ldr	r3, [r4]
 1684 001e 5208     		lsrs	r2, r2, #1
 1685              	.LVL110:
 1686              		.loc 1 660 3 is_stmt 0 view .LVU263
 1687 0020 9BB2     		uxth	r3, r3
 1688 0022 03EBC000 		add	r0, r3, r0, lsl #3
 1689              	.LVL111:
 1690              		.loc 1 660 3 view .LVU264
ARM GAS  /tmp/ccTwDDMa.s 			page 41


 1691 0026 044B     		ldr	r3, .L124+4
 1692 0028 5200     		lsls	r2, r2, #1
 1693 002a 0344     		add	r3, r3, r0
 1694 002c 5B00     		lsls	r3, r3, #1
 1695 002e 1A60     		str	r2, [r3]
 1696              		.loc 1 660 3 is_stmt 1 view .LVU265
 1697              		.loc 1 660 50 view .LVU266
 661:../Drivers/STM32_USB-FS-Device_Driver/src/usb_regs.c **** }
 1698              		.loc 1 661 1 is_stmt 0 view .LVU267
 1699 0030 10BD     		pop	{r4, pc}
 1700              	.L125:
 1701 0032 00BF     		.align	2
 1702              	.L124:
 1703 0034 505C0040 		.word	1073765456
 1704 0038 04300020 		.word	536883204
 1705              		.cfi_endproc
 1706              	.LFE74:
 1708              		.section	.text.SetEPDblBuf0Addr,"ax",%progbits
 1709              		.align	1
 1710              		.global	SetEPDblBuf0Addr
 1711              		.syntax unified
 1712              		.thumb
 1713              		.thumb_func
 1714              		.fpu softvfp
 1716              	SetEPDblBuf0Addr:
 1717              	.LFB97:
 1718              		.cfi_startproc
 1719              		@ args = 0, pretend = 0, frame = 0
 1720              		@ frame_needed = 0, uses_anonymous_args = 0
 1721              		@ link register save eliminated.
 1722 0000 FFF7FEBF 		b	SetEPTxAddr
 1723              		.cfi_endproc
 1724              	.LFE97:
 1726              		.section	.text.SetEPDblBuf1Addr,"ax",%progbits
 1727              		.align	1
 1728              		.global	SetEPDblBuf1Addr
 1729              		.syntax unified
 1730              		.thumb
 1731              		.thumb_func
 1732              		.fpu softvfp
 1734              	SetEPDblBuf1Addr:
 1735              	.LFB99:
 1736              		.cfi_startproc
 1737              		@ args = 0, pretend = 0, frame = 0
 1738              		@ frame_needed = 0, uses_anonymous_args = 0
 1739              		@ link register save eliminated.
 1740 0000 FFF7FEBF 		b	SetEPRxAddr
 1741              		.cfi_endproc
 1742              	.LFE99:
 1744              		.section	.text.GetEPDblBuf0Addr,"ax",%progbits
 1745              		.align	1
 1746              		.global	GetEPDblBuf0Addr
 1747              		.syntax unified
 1748              		.thumb
 1749              		.thumb_func
 1750              		.fpu softvfp
 1752              	GetEPDblBuf0Addr:
ARM GAS  /tmp/ccTwDDMa.s 			page 42


 1753              	.LFB101:
 1754              		.cfi_startproc
 1755              		@ args = 0, pretend = 0, frame = 0
 1756              		@ frame_needed = 0, uses_anonymous_args = 0
 1757              		@ link register save eliminated.
 1758 0000 FFF7FEBF 		b	GetEPTxAddr
 1759              		.cfi_endproc
 1760              	.LFE101:
 1762              		.section	.text.GetEPDblBuf1Addr,"ax",%progbits
 1763              		.align	1
 1764              		.global	GetEPDblBuf1Addr
 1765              		.syntax unified
 1766              		.thumb
 1767              		.thumb_func
 1768              		.fpu softvfp
 1770              	GetEPDblBuf1Addr:
 1771              	.LFB103:
 1772              		.cfi_startproc
 1773              		@ args = 0, pretend = 0, frame = 0
 1774              		@ frame_needed = 0, uses_anonymous_args = 0
 1775              		@ link register save eliminated.
 1776 0000 FFF7FEBF 		b	GetEPRxAddr
 1777              		.cfi_endproc
 1778              	.LFE103:
 1780              		.section	.text.SetEPDblBuffCount,"ax",%progbits
 1781              		.align	1
 1782              		.global	SetEPDblBuffCount
 1783              		.syntax unified
 1784              		.thumb
 1785              		.thumb_func
 1786              		.fpu softvfp
 1788              	SetEPDblBuffCount:
 1789              	.LVL112:
 1790              	.LFB79:
 662:../Drivers/STM32_USB-FS-Device_Driver/src/usb_regs.c **** 
 663:../Drivers/STM32_USB-FS-Device_Driver/src/usb_regs.c **** /**
 664:../Drivers/STM32_USB-FS-Device_Driver/src/usb_regs.c ****   * Function Name  : SetEPDblBuf0Addr
 665:../Drivers/STM32_USB-FS-Device_Driver/src/usb_regs.c ****   * Description    : Set the Buffer 1 address.
 666:../Drivers/STM32_USB-FS-Device_Driver/src/usb_regs.c ****   * Input          : bEpNum: Endpoint Number
 667:../Drivers/STM32_USB-FS-Device_Driver/src/usb_regs.c ****   *                  wBuf0Addr: new address.
 668:../Drivers/STM32_USB-FS-Device_Driver/src/usb_regs.c ****   * Output         : None.
 669:../Drivers/STM32_USB-FS-Device_Driver/src/usb_regs.c ****   * Return         : None.
 670:../Drivers/STM32_USB-FS-Device_Driver/src/usb_regs.c ****   **/
 671:../Drivers/STM32_USB-FS-Device_Driver/src/usb_regs.c **** void SetEPDblBuf0Addr(uint8_t bEpNum, uint16_t wBuf0Addr)
 672:../Drivers/STM32_USB-FS-Device_Driver/src/usb_regs.c **** {
 673:../Drivers/STM32_USB-FS-Device_Driver/src/usb_regs.c ****   _SetEPDblBuf0Addr(bEpNum, wBuf0Addr);
 674:../Drivers/STM32_USB-FS-Device_Driver/src/usb_regs.c **** }
 675:../Drivers/STM32_USB-FS-Device_Driver/src/usb_regs.c **** 
 676:../Drivers/STM32_USB-FS-Device_Driver/src/usb_regs.c **** /**
 677:../Drivers/STM32_USB-FS-Device_Driver/src/usb_regs.c ****   * Function Name  : SetEPDblBuf1Addr
 678:../Drivers/STM32_USB-FS-Device_Driver/src/usb_regs.c ****   * Description    : Set the Buffer 1 address.
 679:../Drivers/STM32_USB-FS-Device_Driver/src/usb_regs.c ****   * Input          : bEpNum: Endpoint Number
 680:../Drivers/STM32_USB-FS-Device_Driver/src/usb_regs.c ****   *                  wBuf1Addr: new address.
 681:../Drivers/STM32_USB-FS-Device_Driver/src/usb_regs.c ****   * Output         : None.
 682:../Drivers/STM32_USB-FS-Device_Driver/src/usb_regs.c ****   * Return         : None.
 683:../Drivers/STM32_USB-FS-Device_Driver/src/usb_regs.c ****   **/
 684:../Drivers/STM32_USB-FS-Device_Driver/src/usb_regs.c **** void SetEPDblBuf1Addr(uint8_t bEpNum, uint16_t wBuf1Addr)
ARM GAS  /tmp/ccTwDDMa.s 			page 43


 685:../Drivers/STM32_USB-FS-Device_Driver/src/usb_regs.c **** {
 686:../Drivers/STM32_USB-FS-Device_Driver/src/usb_regs.c ****   _SetEPDblBuf1Addr(bEpNum, wBuf1Addr);
 687:../Drivers/STM32_USB-FS-Device_Driver/src/usb_regs.c **** }
 688:../Drivers/STM32_USB-FS-Device_Driver/src/usb_regs.c **** /**
 689:../Drivers/STM32_USB-FS-Device_Driver/src/usb_regs.c ****   * Function Name  : GetEPDblBuf0Addr
 690:../Drivers/STM32_USB-FS-Device_Driver/src/usb_regs.c ****   * Description    : Returns the address of the Buffer 0.
 691:../Drivers/STM32_USB-FS-Device_Driver/src/usb_regs.c ****   * Input          : bEpNum: Endpoint Number.
 692:../Drivers/STM32_USB-FS-Device_Driver/src/usb_regs.c ****   * Output         : None.
 693:../Drivers/STM32_USB-FS-Device_Driver/src/usb_regs.c ****   * Return         : None.
 694:../Drivers/STM32_USB-FS-Device_Driver/src/usb_regs.c ****   **/
 695:../Drivers/STM32_USB-FS-Device_Driver/src/usb_regs.c **** uint16_t GetEPDblBuf0Addr(uint8_t bEpNum)
 696:../Drivers/STM32_USB-FS-Device_Driver/src/usb_regs.c **** {
 697:../Drivers/STM32_USB-FS-Device_Driver/src/usb_regs.c ****   return(_GetEPDblBuf0Addr(bEpNum));
 698:../Drivers/STM32_USB-FS-Device_Driver/src/usb_regs.c **** }
 699:../Drivers/STM32_USB-FS-Device_Driver/src/usb_regs.c **** 
 700:../Drivers/STM32_USB-FS-Device_Driver/src/usb_regs.c **** /**
 701:../Drivers/STM32_USB-FS-Device_Driver/src/usb_regs.c ****   * Function Name  : GetEPDblBuf1Addr
 702:../Drivers/STM32_USB-FS-Device_Driver/src/usb_regs.c ****   * Description    : Returns the address of the Buffer 1.
 703:../Drivers/STM32_USB-FS-Device_Driver/src/usb_regs.c ****   * Input          : bEpNum: Endpoint Number.
 704:../Drivers/STM32_USB-FS-Device_Driver/src/usb_regs.c ****   * Output         : None.
 705:../Drivers/STM32_USB-FS-Device_Driver/src/usb_regs.c ****   * Return         : Address of the Buffer 1.
 706:../Drivers/STM32_USB-FS-Device_Driver/src/usb_regs.c ****   **/
 707:../Drivers/STM32_USB-FS-Device_Driver/src/usb_regs.c **** uint16_t GetEPDblBuf1Addr(uint8_t bEpNum)
 708:../Drivers/STM32_USB-FS-Device_Driver/src/usb_regs.c **** {
 709:../Drivers/STM32_USB-FS-Device_Driver/src/usb_regs.c ****   return(_GetEPDblBuf1Addr(bEpNum));
 710:../Drivers/STM32_USB-FS-Device_Driver/src/usb_regs.c **** }
 711:../Drivers/STM32_USB-FS-Device_Driver/src/usb_regs.c **** 
 712:../Drivers/STM32_USB-FS-Device_Driver/src/usb_regs.c **** /**
 713:../Drivers/STM32_USB-FS-Device_Driver/src/usb_regs.c ****   * Function Name  : SetEPDblBuffCount
 714:../Drivers/STM32_USB-FS-Device_Driver/src/usb_regs.c ****   * Description    : Set the number of bytes for a double Buffer 
 715:../Drivers/STM32_USB-FS-Device_Driver/src/usb_regs.c ****   *                  endpoint.
 716:../Drivers/STM32_USB-FS-Device_Driver/src/usb_regs.c ****   * Input          : bEpNum,bDir, wCount
 717:../Drivers/STM32_USB-FS-Device_Driver/src/usb_regs.c ****   * Output         : None.
 718:../Drivers/STM32_USB-FS-Device_Driver/src/usb_regs.c ****   * Return         : None.
 719:../Drivers/STM32_USB-FS-Device_Driver/src/usb_regs.c ****   **/
 720:../Drivers/STM32_USB-FS-Device_Driver/src/usb_regs.c **** void SetEPDblBuffCount(uint8_t bEpNum, uint8_t bDir, uint16_t wCount)
 721:../Drivers/STM32_USB-FS-Device_Driver/src/usb_regs.c **** {
 1791              		.loc 1 721 1 is_stmt 1 view -0
 1792              		.cfi_startproc
 1793              		@ args = 0, pretend = 0, frame = 0
 1794              		@ frame_needed = 0, uses_anonymous_args = 0
 722:../Drivers/STM32_USB-FS-Device_Driver/src/usb_regs.c ****   _SetEPDblBuffCount(bEpNum, bDir, wCount);
 1795              		.loc 1 722 3 view .LVU269
 1796 0000 0129     		cmp	r1, #1
 721:../Drivers/STM32_USB-FS-Device_Driver/src/usb_regs.c ****   _SetEPDblBuffCount(bEpNum, bDir, wCount);
 1797              		.loc 1 721 1 is_stmt 0 view .LVU270
 1798 0002 30B5     		push	{r4, r5, lr}
 1799              	.LCFI1:
 1800              		.cfi_def_cfa_offset 12
 1801              		.cfi_offset 4, -12
 1802              		.cfi_offset 5, -8
 1803              		.cfi_offset 14, -4
 1804              		.loc 1 722 3 view .LVU271
 1805 0004 2AD1     		bne	.L131
 1806              	.LBB19:
 1807              		.loc 1 722 3 is_stmt 1 discriminator 1 view .LVU272
 1808 0006 254D     		ldr	r5, .L150
ARM GAS  /tmp/ccTwDDMa.s 			page 44


 1809 0008 2549     		ldr	r1, .L150+4
 1810              	.LVL113:
 1811              		.loc 1 722 3 is_stmt 0 discriminator 1 view .LVU273
 1812 000a 2B68     		ldr	r3, [r5]
 1813 000c C400     		lsls	r4, r0, #3
 1814 000e 9BB2     		uxth	r3, r3
 1815 0010 03EBC000 		add	r0, r3, r0, lsl #3
 1816              	.LVL114:
 1817              		.loc 1 722 3 discriminator 1 view .LVU274
 1818 0014 0144     		add	r1, r1, r0
 1819              	.LBB20:
 1820 0016 3E2A     		cmp	r2, #62
 1821              	.LBE20:
 1822 0018 4FEA4101 		lsl	r1, r1, #1
 1823              	.LVL115:
 1824              	.LBB21:
 1825              		.loc 1 722 3 is_stmt 1 discriminator 1 view .LVU275
 1826              		.loc 1 722 3 discriminator 1 view .LVU276
 1827 001c 18D9     		bls	.L132
 1828              		.loc 1 722 3 discriminator 3 view .LVU277
 1829 001e 5309     		lsrs	r3, r2, #5
 1830              	.LVL116:
 1831              		.loc 1 722 3 discriminator 3 view .LVU278
 1832 0020 D006     		lsls	r0, r2, #27
 1833              		.loc 1 722 3 discriminator 3 view .LVU279
 1834 0022 04BF     		itt	eq
 1835 0024 03F1FF33 		addeq	r3, r3, #-1
 1836              	.LVL117:
 1837              		.loc 1 722 3 is_stmt 0 discriminator 3 view .LVU280
 1838 0028 9BB2     		uxtheq	r3, r3
 1839              	.LVL118:
 1840              		.loc 1 722 3 is_stmt 1 discriminator 3 view .LVU281
 1841 002a 9B02     		lsls	r3, r3, #10
 1842              	.LVL119:
 1843              		.loc 1 722 3 is_stmt 0 discriminator 3 view .LVU282
 1844 002c 43F40043 		orr	r3, r3, #32768
 1845              	.LVL120:
 1846              	.L148:
 1847              		.loc 1 722 3 discriminator 11 view .LVU283
 1848 0030 0B60     		str	r3, [r1]
 1849              	.LBE21:
 1850              	.LBE19:
 1851              		.loc 1 722 3 is_stmt 1 discriminator 11 view .LVU284
 1852              		.loc 1 722 3 discriminator 11 view .LVU285
 1853              	.LBB23:
 1854              		.loc 1 722 3 discriminator 11 view .LVU286
 1855 0032 2968     		ldr	r1, [r5]
 1856              	.LVL121:
 1857              		.loc 1 722 3 is_stmt 0 discriminator 11 view .LVU287
 1858 0034 1B4B     		ldr	r3, .L150+8
 1859 0036 89B2     		uxth	r1, r1
 1860 0038 2144     		add	r1, r1, r4
 1861 003a 0B44     		add	r3, r3, r1
 1862              	.LBB24:
 1863 003c 3E2A     		cmp	r2, #62
 1864              	.LBE24:
 1865 003e 4FEA4301 		lsl	r1, r3, #1
ARM GAS  /tmp/ccTwDDMa.s 			page 45


 1866              	.LVL122:
 1867              	.LBB25:
 1868              		.loc 1 722 3 is_stmt 1 discriminator 11 view .LVU288
 1869              		.loc 1 722 3 discriminator 11 view .LVU289
 1870 0042 1FD8     		bhi	.L139
 1871              		.loc 1 722 3 discriminator 19 view .LVU290
 1872 0044 5308     		lsrs	r3, r2, #1
 1873              	.LVL123:
 1874              		.loc 1 722 3 discriminator 19 view .LVU291
 1875 0046 D207     		lsls	r2, r2, #31
 1876              	.LVL124:
 1877              		.loc 1 722 3 discriminator 19 view .LVU292
 1878 0048 48BF     		it	mi
 1879 004a 0133     		addmi	r3, r3, #1
 1880              	.LVL125:
 1881              		.loc 1 722 3 discriminator 19 view .LVU293
 1882 004c 9B02     		lsls	r3, r3, #10
 1883              	.LVL126:
 1884              		.loc 1 722 3 is_stmt 0 discriminator 19 view .LVU294
 1885 004e 22E0     		b	.L149
 1886              	.LVL127:
 1887              	.L132:
 1888              		.loc 1 722 3 discriminator 19 view .LVU295
 1889              	.LBE25:
 1890              	.LBE23:
 1891              	.LBB27:
 1892              	.LBB22:
 1893              		.loc 1 722 3 is_stmt 1 discriminator 4 view .LVU296
 1894 0050 5308     		lsrs	r3, r2, #1
 1895              	.LVL128:
 1896              		.loc 1 722 3 discriminator 4 view .LVU297
 1897 0052 D007     		lsls	r0, r2, #31
 1898              		.loc 1 722 3 discriminator 4 view .LVU298
 1899 0054 48BF     		it	mi
 1900 0056 0133     		addmi	r3, r3, #1
 1901              	.LVL129:
 1902              		.loc 1 722 3 discriminator 4 view .LVU299
 1903 0058 9B02     		lsls	r3, r3, #10
 1904              	.LVL130:
 1905              		.loc 1 722 3 is_stmt 0 discriminator 4 view .LVU300
 1906 005a E9E7     		b	.L148
 1907              	.LVL131:
 1908              	.L131:
 1909              		.loc 1 722 3 discriminator 4 view .LVU301
 1910              	.LBE22:
 1911              	.LBE27:
 1912              		.loc 1 722 3 is_stmt 1 discriminator 2 view .LVU302
 1913 005c 0229     		cmp	r1, #2
 1914 005e 10D1     		bne	.L130
 1915              		.loc 1 722 3 discriminator 13 view .LVU303
 1916 0060 0E4C     		ldr	r4, .L150
 1917 0062 0F4B     		ldr	r3, .L150+4
 1918 0064 2168     		ldr	r1, [r4]
 1919              	.LVL132:
 1920              		.loc 1 722 3 is_stmt 0 discriminator 13 view .LVU304
 1921 0066 89B2     		uxth	r1, r1
 1922 0068 01EBC001 		add	r1, r1, r0, lsl #3
ARM GAS  /tmp/ccTwDDMa.s 			page 46


 1923 006c 0B44     		add	r3, r3, r1
 1924 006e 5B00     		lsls	r3, r3, #1
 1925 0070 1A60     		str	r2, [r3]
 1926              		.loc 1 722 3 is_stmt 1 discriminator 13 view .LVU305
 1927              		.loc 1 722 3 discriminator 13 view .LVU306
 1928              		.loc 1 722 3 discriminator 13 view .LVU307
 1929              		.loc 1 722 3 discriminator 13 view .LVU308
 1930 0072 2368     		ldr	r3, [r4]
 1931 0074 9BB2     		uxth	r3, r3
 1932 0076 03EBC000 		add	r0, r3, r0, lsl #3
 1933              	.LVL133:
 1934              		.loc 1 722 3 is_stmt 0 discriminator 13 view .LVU309
 1935 007a 0A4B     		ldr	r3, .L150+8
 1936 007c 0344     		add	r3, r3, r0
 1937 007e 5B00     		lsls	r3, r3, #1
 1938 0080 1A60     		str	r2, [r3]
 1939              	.LVL134:
 1940              	.L130:
 723:../Drivers/STM32_USB-FS-Device_Driver/src/usb_regs.c **** }
 1941              		.loc 1 723 1 view .LVU310
 1942 0082 30BD     		pop	{r4, r5, pc}
 1943              	.LVL135:
 1944              	.L139:
 1945              	.LBB28:
 1946              	.LBB26:
 722:../Drivers/STM32_USB-FS-Device_Driver/src/usb_regs.c ****   _SetEPDblBuffCount(bEpNum, bDir, wCount);
 1947              		.loc 1 722 3 is_stmt 1 discriminator 18 view .LVU311
 1948 0084 5309     		lsrs	r3, r2, #5
 1949              	.LVL136:
 722:../Drivers/STM32_USB-FS-Device_Driver/src/usb_regs.c ****   _SetEPDblBuffCount(bEpNum, bDir, wCount);
 1950              		.loc 1 722 3 discriminator 18 view .LVU312
 1951 0086 D006     		lsls	r0, r2, #27
 722:../Drivers/STM32_USB-FS-Device_Driver/src/usb_regs.c ****   _SetEPDblBuffCount(bEpNum, bDir, wCount);
 1952              		.loc 1 722 3 discriminator 18 view .LVU313
 1953 0088 04BF     		itt	eq
 1954 008a 03F1FF33 		addeq	r3, r3, #-1
 1955              	.LVL137:
 722:../Drivers/STM32_USB-FS-Device_Driver/src/usb_regs.c ****   _SetEPDblBuffCount(bEpNum, bDir, wCount);
 1956              		.loc 1 722 3 is_stmt 0 discriminator 18 view .LVU314
 1957 008e 9BB2     		uxtheq	r3, r3
 1958              	.LVL138:
 722:../Drivers/STM32_USB-FS-Device_Driver/src/usb_regs.c ****   _SetEPDblBuffCount(bEpNum, bDir, wCount);
 1959              		.loc 1 722 3 is_stmt 1 discriminator 18 view .LVU315
 1960 0090 9B02     		lsls	r3, r3, #10
 1961              	.LVL139:
 722:../Drivers/STM32_USB-FS-Device_Driver/src/usb_regs.c ****   _SetEPDblBuffCount(bEpNum, bDir, wCount);
 1962              		.loc 1 722 3 is_stmt 0 discriminator 18 view .LVU316
 1963 0092 43F40043 		orr	r3, r3, #32768
 1964              	.LVL140:
 1965              	.L149:
 722:../Drivers/STM32_USB-FS-Device_Driver/src/usb_regs.c ****   _SetEPDblBuffCount(bEpNum, bDir, wCount);
 1966              		.loc 1 722 3 discriminator 26 view .LVU317
 1967 0096 0B60     		str	r3, [r1]
 1968              	.LBE26:
 1969              	.LBE28:
 722:../Drivers/STM32_USB-FS-Device_Driver/src/usb_regs.c ****   _SetEPDblBuffCount(bEpNum, bDir, wCount);
 1970              		.loc 1 722 3 is_stmt 1 discriminator 26 view .LVU318
ARM GAS  /tmp/ccTwDDMa.s 			page 47


 722:../Drivers/STM32_USB-FS-Device_Driver/src/usb_regs.c ****   _SetEPDblBuffCount(bEpNum, bDir, wCount);
 1971              		.loc 1 722 43 discriminator 26 view .LVU319
 1972              		.loc 1 723 1 is_stmt 0 discriminator 26 view .LVU320
 1973 0098 F3E7     		b	.L130
 1974              	.L151:
 1975 009a 00BF     		.align	2
 1976              	.L150:
 1977 009c 505C0040 		.word	1073765456
 1978 00a0 02300020 		.word	536883202
 1979 00a4 06300020 		.word	536883206
 1980              		.cfi_endproc
 1981              	.LFE79:
 1983              		.section	.text.SetEPDblBuf0Count,"ax",%progbits
 1984              		.align	1
 1985              		.global	SetEPDblBuf0Count
 1986              		.syntax unified
 1987              		.thumb
 1988              		.thumb_func
 1989              		.fpu softvfp
 1991              	SetEPDblBuf0Count:
 1992              	.LVL141:
 1993              	.LFB80:
 724:../Drivers/STM32_USB-FS-Device_Driver/src/usb_regs.c **** 
 725:../Drivers/STM32_USB-FS-Device_Driver/src/usb_regs.c **** /**
 726:../Drivers/STM32_USB-FS-Device_Driver/src/usb_regs.c ****   * Function Name  : SetEPDblBuf0Count
 727:../Drivers/STM32_USB-FS-Device_Driver/src/usb_regs.c ****   * Description    : Set the number of bytes in the buffer 0 of a double Buffer 
 728:../Drivers/STM32_USB-FS-Device_Driver/src/usb_regs.c ****   *                  endpoint.
 729:../Drivers/STM32_USB-FS-Device_Driver/src/usb_regs.c ****   * Input          : bEpNum, bDir,  wCount
 730:../Drivers/STM32_USB-FS-Device_Driver/src/usb_regs.c ****   * Output         : None.
 731:../Drivers/STM32_USB-FS-Device_Driver/src/usb_regs.c ****   * Return         : None.
 732:../Drivers/STM32_USB-FS-Device_Driver/src/usb_regs.c ****   **/
 733:../Drivers/STM32_USB-FS-Device_Driver/src/usb_regs.c **** void SetEPDblBuf0Count(uint8_t bEpNum, uint8_t bDir, uint16_t wCount)
 734:../Drivers/STM32_USB-FS-Device_Driver/src/usb_regs.c **** {
 1994              		.loc 1 734 1 is_stmt 1 view -0
 1995              		.cfi_startproc
 1996              		@ args = 0, pretend = 0, frame = 0
 1997              		@ frame_needed = 0, uses_anonymous_args = 0
 1998              		@ link register save eliminated.
 735:../Drivers/STM32_USB-FS-Device_Driver/src/usb_regs.c ****   _SetEPDblBuf0Count(bEpNum, bDir, wCount);
 1999              		.loc 1 735 3 view .LVU322
 2000 0000 0129     		cmp	r1, #1
 2001 0002 1BD1     		bne	.L153
 2002              	.LBB29:
 2003              		.loc 1 735 3 discriminator 1 view .LVU323
 2004 0004 134B     		ldr	r3, .L162
 2005 0006 1449     		ldr	r1, .L162+4
 2006              	.LVL142:
 2007              		.loc 1 735 3 is_stmt 0 discriminator 1 view .LVU324
 2008 0008 1B68     		ldr	r3, [r3]
 2009              	.LBB30:
 2010 000a 3E2A     		cmp	r2, #62
 2011              	.LBE30:
 2012 000c 9BB2     		uxth	r3, r3
 2013 000e 03EBC000 		add	r0, r3, r0, lsl #3
 2014              	.LVL143:
 2015              		.loc 1 735 3 discriminator 1 view .LVU325
 2016 0012 0144     		add	r1, r1, r0
ARM GAS  /tmp/ccTwDDMa.s 			page 48


 2017 0014 4FEA4101 		lsl	r1, r1, #1
 2018              	.LVL144:
 2019              	.LBB31:
 2020              		.loc 1 735 3 is_stmt 1 discriminator 1 view .LVU326
 2021              		.loc 1 735 3 discriminator 1 view .LVU327
 2022 0018 0AD9     		bls	.L154
 2023              		.loc 1 735 3 discriminator 3 view .LVU328
 2024 001a 5309     		lsrs	r3, r2, #5
 2025              	.LVL145:
 2026              		.loc 1 735 3 discriminator 3 view .LVU329
 2027 001c D006     		lsls	r0, r2, #27
 2028              		.loc 1 735 3 discriminator 3 view .LVU330
 2029 001e 04BF     		itt	eq
 2030 0020 03F1FF33 		addeq	r3, r3, #-1
 2031              	.LVL146:
 2032              		.loc 1 735 3 is_stmt 0 discriminator 3 view .LVU331
 2033 0024 9BB2     		uxtheq	r3, r3
 2034              	.LVL147:
 2035              		.loc 1 735 3 is_stmt 1 discriminator 3 view .LVU332
 2036 0026 9B02     		lsls	r3, r3, #10
 2037              	.LVL148:
 2038              		.loc 1 735 3 is_stmt 0 discriminator 3 view .LVU333
 2039 0028 43F40043 		orr	r3, r3, #32768
 2040              	.LVL149:
 2041              	.L161:
 2042              		.loc 1 735 3 discriminator 11 view .LVU334
 2043 002c 0B60     		str	r3, [r1]
 2044 002e 7047     		bx	lr
 2045              	.LVL150:
 2046              	.L154:
 2047              		.loc 1 735 3 is_stmt 1 discriminator 4 view .LVU335
 2048 0030 5308     		lsrs	r3, r2, #1
 2049              	.LVL151:
 2050              		.loc 1 735 3 discriminator 4 view .LVU336
 2051 0032 D207     		lsls	r2, r2, #31
 2052              	.LVL152:
 2053              		.loc 1 735 3 discriminator 4 view .LVU337
 2054 0034 48BF     		it	mi
 2055 0036 0133     		addmi	r3, r3, #1
 2056              	.LVL153:
 2057              		.loc 1 735 3 discriminator 4 view .LVU338
 2058 0038 9B02     		lsls	r3, r3, #10
 2059              	.LVL154:
 2060              		.loc 1 735 3 is_stmt 0 discriminator 4 view .LVU339
 2061 003a F7E7     		b	.L161
 2062              	.LVL155:
 2063              	.L153:
 2064              		.loc 1 735 3 discriminator 4 view .LVU340
 2065              	.LBE31:
 2066              	.LBE29:
 2067              		.loc 1 735 3 is_stmt 1 discriminator 2 view .LVU341
 2068 003c 0229     		cmp	r1, #2
 2069 003e 08D1     		bne	.L152
 2070              		.loc 1 735 3 discriminator 13 view .LVU342
 2071 0040 044B     		ldr	r3, .L162
 2072 0042 1B68     		ldr	r3, [r3]
 2073 0044 9BB2     		uxth	r3, r3
ARM GAS  /tmp/ccTwDDMa.s 			page 49


 2074 0046 03EBC000 		add	r0, r3, r0, lsl #3
 2075              	.LVL156:
 2076              		.loc 1 735 3 is_stmt 0 discriminator 13 view .LVU343
 2077 004a 034B     		ldr	r3, .L162+4
 2078 004c 0344     		add	r3, r3, r0
 2079 004e 5B00     		lsls	r3, r3, #1
 2080 0050 1A60     		str	r2, [r3]
 2081              		.loc 1 735 43 is_stmt 1 discriminator 13 view .LVU344
 2082              	.L152:
 736:../Drivers/STM32_USB-FS-Device_Driver/src/usb_regs.c **** }
 2083              		.loc 1 736 1 is_stmt 0 view .LVU345
 2084 0052 7047     		bx	lr
 2085              	.L163:
 2086              		.align	2
 2087              	.L162:
 2088 0054 505C0040 		.word	1073765456
 2089 0058 02300020 		.word	536883202
 2090              		.cfi_endproc
 2091              	.LFE80:
 2093              		.section	.text.SetEPDblBuf1Count,"ax",%progbits
 2094              		.align	1
 2095              		.global	SetEPDblBuf1Count
 2096              		.syntax unified
 2097              		.thumb
 2098              		.thumb_func
 2099              		.fpu softvfp
 2101              	SetEPDblBuf1Count:
 2102              	.LVL157:
 2103              	.LFB81:
 737:../Drivers/STM32_USB-FS-Device_Driver/src/usb_regs.c **** 
 738:../Drivers/STM32_USB-FS-Device_Driver/src/usb_regs.c **** /**
 739:../Drivers/STM32_USB-FS-Device_Driver/src/usb_regs.c ****   * Function Name  : SetEPDblBuf1Count
 740:../Drivers/STM32_USB-FS-Device_Driver/src/usb_regs.c ****   * Description    : Set the number of bytes in the buffer 0 of a double Buffer 
 741:../Drivers/STM32_USB-FS-Device_Driver/src/usb_regs.c ****   *                  endpoint.
 742:../Drivers/STM32_USB-FS-Device_Driver/src/usb_regs.c ****   * Input          : bEpNum,  bDir,  wCount
 743:../Drivers/STM32_USB-FS-Device_Driver/src/usb_regs.c ****   * Output         : None.
 744:../Drivers/STM32_USB-FS-Device_Driver/src/usb_regs.c ****   * Return         : None.
 745:../Drivers/STM32_USB-FS-Device_Driver/src/usb_regs.c ****   **/
 746:../Drivers/STM32_USB-FS-Device_Driver/src/usb_regs.c **** void SetEPDblBuf1Count(uint8_t bEpNum, uint8_t bDir, uint16_t wCount)
 747:../Drivers/STM32_USB-FS-Device_Driver/src/usb_regs.c **** {
 2104              		.loc 1 747 1 is_stmt 1 view -0
 2105              		.cfi_startproc
 2106              		@ args = 0, pretend = 0, frame = 0
 2107              		@ frame_needed = 0, uses_anonymous_args = 0
 2108              		@ link register save eliminated.
 748:../Drivers/STM32_USB-FS-Device_Driver/src/usb_regs.c ****   _SetEPDblBuf1Count(bEpNum, bDir, wCount);
 2109              		.loc 1 748 3 view .LVU347
 2110 0000 0129     		cmp	r1, #1
 2111 0002 1BD1     		bne	.L165
 2112              	.LBB32:
 2113              		.loc 1 748 3 discriminator 1 view .LVU348
 2114 0004 134B     		ldr	r3, .L174
 2115 0006 1449     		ldr	r1, .L174+4
 2116              	.LVL158:
 2117              		.loc 1 748 3 is_stmt 0 discriminator 1 view .LVU349
 2118 0008 1B68     		ldr	r3, [r3]
 2119              	.LBB33:
ARM GAS  /tmp/ccTwDDMa.s 			page 50


 2120 000a 3E2A     		cmp	r2, #62
 2121              	.LBE33:
 2122 000c 9BB2     		uxth	r3, r3
 2123 000e 03EBC000 		add	r0, r3, r0, lsl #3
 2124              	.LVL159:
 2125              		.loc 1 748 3 discriminator 1 view .LVU350
 2126 0012 0144     		add	r1, r1, r0
 2127 0014 4FEA4101 		lsl	r1, r1, #1
 2128              	.LVL160:
 2129              	.LBB34:
 2130              		.loc 1 748 3 is_stmt 1 discriminator 1 view .LVU351
 2131              		.loc 1 748 3 discriminator 1 view .LVU352
 2132 0018 0AD9     		bls	.L166
 2133              		.loc 1 748 3 discriminator 3 view .LVU353
 2134 001a 5309     		lsrs	r3, r2, #5
 2135              	.LVL161:
 2136              		.loc 1 748 3 discriminator 3 view .LVU354
 2137 001c D006     		lsls	r0, r2, #27
 2138              		.loc 1 748 3 discriminator 3 view .LVU355
 2139 001e 04BF     		itt	eq
 2140 0020 03F1FF33 		addeq	r3, r3, #-1
 2141              	.LVL162:
 2142              		.loc 1 748 3 is_stmt 0 discriminator 3 view .LVU356
 2143 0024 9BB2     		uxtheq	r3, r3
 2144              	.LVL163:
 2145              		.loc 1 748 3 is_stmt 1 discriminator 3 view .LVU357
 2146 0026 9B02     		lsls	r3, r3, #10
 2147              	.LVL164:
 2148              		.loc 1 748 3 is_stmt 0 discriminator 3 view .LVU358
 2149 0028 43F40043 		orr	r3, r3, #32768
 2150              	.LVL165:
 2151              	.L173:
 2152              		.loc 1 748 3 discriminator 11 view .LVU359
 2153 002c 0B60     		str	r3, [r1]
 2154 002e 7047     		bx	lr
 2155              	.LVL166:
 2156              	.L166:
 2157              		.loc 1 748 3 is_stmt 1 discriminator 4 view .LVU360
 2158 0030 5308     		lsrs	r3, r2, #1
 2159              	.LVL167:
 2160              		.loc 1 748 3 discriminator 4 view .LVU361
 2161 0032 D207     		lsls	r2, r2, #31
 2162              	.LVL168:
 2163              		.loc 1 748 3 discriminator 4 view .LVU362
 2164 0034 48BF     		it	mi
 2165 0036 0133     		addmi	r3, r3, #1
 2166              	.LVL169:
 2167              		.loc 1 748 3 discriminator 4 view .LVU363
 2168 0038 9B02     		lsls	r3, r3, #10
 2169              	.LVL170:
 2170              		.loc 1 748 3 is_stmt 0 discriminator 4 view .LVU364
 2171 003a F7E7     		b	.L173
 2172              	.LVL171:
 2173              	.L165:
 2174              		.loc 1 748 3 discriminator 4 view .LVU365
 2175              	.LBE34:
 2176              	.LBE32:
ARM GAS  /tmp/ccTwDDMa.s 			page 51


 2177              		.loc 1 748 3 is_stmt 1 discriminator 2 view .LVU366
 2178 003c 0229     		cmp	r1, #2
 2179 003e 08D1     		bne	.L164
 2180              		.loc 1 748 3 discriminator 13 view .LVU367
 2181 0040 044B     		ldr	r3, .L174
 2182 0042 1B68     		ldr	r3, [r3]
 2183 0044 9BB2     		uxth	r3, r3
 2184 0046 03EBC000 		add	r0, r3, r0, lsl #3
 2185              	.LVL172:
 2186              		.loc 1 748 3 is_stmt 0 discriminator 13 view .LVU368
 2187 004a 034B     		ldr	r3, .L174+4
 2188 004c 0344     		add	r3, r3, r0
 2189 004e 5B00     		lsls	r3, r3, #1
 2190 0050 1A60     		str	r2, [r3]
 2191              		.loc 1 748 43 is_stmt 1 discriminator 13 view .LVU369
 2192              	.L164:
 749:../Drivers/STM32_USB-FS-Device_Driver/src/usb_regs.c **** }
 2193              		.loc 1 749 1 is_stmt 0 view .LVU370
 2194 0052 7047     		bx	lr
 2195              	.L175:
 2196              		.align	2
 2197              	.L174:
 2198 0054 505C0040 		.word	1073765456
 2199 0058 06300020 		.word	536883206
 2200              		.cfi_endproc
 2201              	.LFE81:
 2203              		.section	.text.GetEPDblBuf0Count,"ax",%progbits
 2204              		.align	1
 2205              		.global	GetEPDblBuf0Count
 2206              		.syntax unified
 2207              		.thumb
 2208              		.thumb_func
 2209              		.fpu softvfp
 2211              	GetEPDblBuf0Count:
 2212              	.LFB105:
 2213              		.cfi_startproc
 2214              		@ args = 0, pretend = 0, frame = 0
 2215              		@ frame_needed = 0, uses_anonymous_args = 0
 2216              		@ link register save eliminated.
 2217 0000 FFF7FEBF 		b	GetEPTxCount
 2218              		.cfi_endproc
 2219              	.LFE105:
 2221              		.section	.text.GetEPDblBuf1Count,"ax",%progbits
 2222              		.align	1
 2223              		.global	GetEPDblBuf1Count
 2224              		.syntax unified
 2225              		.thumb
 2226              		.thumb_func
 2227              		.fpu softvfp
 2229              	GetEPDblBuf1Count:
 2230              	.LFB107:
 2231              		.cfi_startproc
 2232              		@ args = 0, pretend = 0, frame = 0
 2233              		@ frame_needed = 0, uses_anonymous_args = 0
 2234              		@ link register save eliminated.
 2235 0000 FFF7FEBF 		b	GetEPRxCount
 2236              		.cfi_endproc
ARM GAS  /tmp/ccTwDDMa.s 			page 52


 2237              	.LFE107:
 2239              		.section	.text.GetEPDblBufDir,"ax",%progbits
 2240              		.align	1
 2241              		.global	GetEPDblBufDir
 2242              		.syntax unified
 2243              		.thumb
 2244              		.thumb_func
 2245              		.fpu softvfp
 2247              	GetEPDblBufDir:
 2248              	.LVL173:
 2249              	.LFB84:
 750:../Drivers/STM32_USB-FS-Device_Driver/src/usb_regs.c **** 
 751:../Drivers/STM32_USB-FS-Device_Driver/src/usb_regs.c **** /**
 752:../Drivers/STM32_USB-FS-Device_Driver/src/usb_regs.c ****   * Function Name  : GetEPDblBuf0Count
 753:../Drivers/STM32_USB-FS-Device_Driver/src/usb_regs.c ****   * Description    : Returns the number of byte received in the buffer 0 of a double
 754:../Drivers/STM32_USB-FS-Device_Driver/src/usb_regs.c ****   *                  Buffer endpoint.
 755:../Drivers/STM32_USB-FS-Device_Driver/src/usb_regs.c ****   * Input          : bEpNum: Endpoint Number.
 756:../Drivers/STM32_USB-FS-Device_Driver/src/usb_regs.c ****   * Output         : None.
 757:../Drivers/STM32_USB-FS-Device_Driver/src/usb_regs.c ****   * Return         : Endpoint Buffer 0 count
 758:../Drivers/STM32_USB-FS-Device_Driver/src/usb_regs.c ****   **/
 759:../Drivers/STM32_USB-FS-Device_Driver/src/usb_regs.c **** uint16_t GetEPDblBuf0Count(uint8_t bEpNum)
 760:../Drivers/STM32_USB-FS-Device_Driver/src/usb_regs.c **** {
 761:../Drivers/STM32_USB-FS-Device_Driver/src/usb_regs.c ****   return(_GetEPDblBuf0Count(bEpNum));
 762:../Drivers/STM32_USB-FS-Device_Driver/src/usb_regs.c **** }
 763:../Drivers/STM32_USB-FS-Device_Driver/src/usb_regs.c **** 
 764:../Drivers/STM32_USB-FS-Device_Driver/src/usb_regs.c **** /**
 765:../Drivers/STM32_USB-FS-Device_Driver/src/usb_regs.c ****   * Function Name  : GetEPDblBuf1Count
 766:../Drivers/STM32_USB-FS-Device_Driver/src/usb_regs.c ****   * Description    : Returns the number of data received in the buffer 1 of a double
 767:../Drivers/STM32_USB-FS-Device_Driver/src/usb_regs.c ****   *                  Buffer endpoint.
 768:../Drivers/STM32_USB-FS-Device_Driver/src/usb_regs.c ****   * Input          : bEpNum: Endpoint Number.
 769:../Drivers/STM32_USB-FS-Device_Driver/src/usb_regs.c ****   * Output         : None.
 770:../Drivers/STM32_USB-FS-Device_Driver/src/usb_regs.c ****   * Return         : Endpoint Buffer 1 count.
 771:../Drivers/STM32_USB-FS-Device_Driver/src/usb_regs.c ****   **/
 772:../Drivers/STM32_USB-FS-Device_Driver/src/usb_regs.c **** uint16_t GetEPDblBuf1Count(uint8_t bEpNum)
 773:../Drivers/STM32_USB-FS-Device_Driver/src/usb_regs.c **** {
 774:../Drivers/STM32_USB-FS-Device_Driver/src/usb_regs.c ****   return(_GetEPDblBuf1Count(bEpNum));
 775:../Drivers/STM32_USB-FS-Device_Driver/src/usb_regs.c **** }
 776:../Drivers/STM32_USB-FS-Device_Driver/src/usb_regs.c **** 
 777:../Drivers/STM32_USB-FS-Device_Driver/src/usb_regs.c **** /**
 778:../Drivers/STM32_USB-FS-Device_Driver/src/usb_regs.c ****   * Function Name  : GetEPDblBufDir
 779:../Drivers/STM32_USB-FS-Device_Driver/src/usb_regs.c ****   * Description    : gets direction of the double buffered endpoint
 780:../Drivers/STM32_USB-FS-Device_Driver/src/usb_regs.c ****   * Input          : bEpNum: Endpoint Number. 
 781:../Drivers/STM32_USB-FS-Device_Driver/src/usb_regs.c ****   * Output         : None.
 782:../Drivers/STM32_USB-FS-Device_Driver/src/usb_regs.c ****   * Return         : EP_DBUF_OUT, EP_DBUF_IN,
 783:../Drivers/STM32_USB-FS-Device_Driver/src/usb_regs.c ****   *                  EP_DBUF_ERR if the endpoint counter not yet programmed.
 784:../Drivers/STM32_USB-FS-Device_Driver/src/usb_regs.c ****   **/
 785:../Drivers/STM32_USB-FS-Device_Driver/src/usb_regs.c **** EP_DBUF_DIR GetEPDblBufDir(uint8_t bEpNum)
 786:../Drivers/STM32_USB-FS-Device_Driver/src/usb_regs.c **** {
 2250              		.loc 1 786 1 is_stmt 1 view -0
 2251              		.cfi_startproc
 2252              		@ args = 0, pretend = 0, frame = 0
 2253              		@ frame_needed = 0, uses_anonymous_args = 0
 2254              		@ link register save eliminated.
 787:../Drivers/STM32_USB-FS-Device_Driver/src/usb_regs.c ****   if ((uint16_t)(*_pEPRxCount(bEpNum) & 0xFC00) != 0)
 2255              		.loc 1 787 3 view .LVU372
 2256              		.loc 1 787 19 is_stmt 0 view .LVU373
 2257 0000 0E49     		ldr	r1, .L182
ARM GAS  /tmp/ccTwDDMa.s 			page 53


 2258 0002 C200     		lsls	r2, r0, #3
 2259 0004 0B68     		ldr	r3, [r1]
 2260 0006 9BB2     		uxth	r3, r3
 2261 0008 03EBC000 		add	r0, r3, r0, lsl #3
 2262              	.LVL174:
 2263              		.loc 1 787 19 view .LVU374
 2264 000c 0C4B     		ldr	r3, .L182+4
 2265 000e 0344     		add	r3, r3, r0
 2266              		.loc 1 787 18 view .LVU375
 2267 0010 5B00     		lsls	r3, r3, #1
 2268              		.loc 1 787 7 view .LVU376
 2269 0012 1B68     		ldr	r3, [r3]
 2270              		.loc 1 787 6 view .LVU377
 2271 0014 13F47C4F 		tst	r3, #64512
 2272 0018 0DD1     		bne	.L180
 788:../Drivers/STM32_USB-FS-Device_Driver/src/usb_regs.c ****     return(EP_DBUF_OUT);
 789:../Drivers/STM32_USB-FS-Device_Driver/src/usb_regs.c ****   else if (((uint16_t)(*_pEPTxCount(bEpNum)) & 0x03FF) != 0)
 2273              		.loc 1 789 8 is_stmt 1 view .LVU378
 2274              		.loc 1 789 25 is_stmt 0 view .LVU379
 2275 001a 0B68     		ldr	r3, [r1]
 2276 001c 9BB2     		uxth	r3, r3
 2277 001e 1A44     		add	r2, r2, r3
 2278 0020 084B     		ldr	r3, .L182+8
 2279 0022 1344     		add	r3, r3, r2
 2280              		.loc 1 789 24 view .LVU380
 2281 0024 5B00     		lsls	r3, r3, #1
 2282              		.loc 1 789 46 view .LVU381
 2283 0026 1B68     		ldr	r3, [r3]
 2284 0028 C3F30903 		ubfx	r3, r3, #0, #10
 2285              		.loc 1 789 11 view .LVU382
 2286 002c 002B     		cmp	r3, #0
 790:../Drivers/STM32_USB-FS-Device_Driver/src/usb_regs.c ****     return(EP_DBUF_IN);
 791:../Drivers/STM32_USB-FS-Device_Driver/src/usb_regs.c ****   else
 792:../Drivers/STM32_USB-FS-Device_Driver/src/usb_regs.c ****     return(EP_DBUF_ERR);
 2287              		.loc 1 792 11 view .LVU383
 2288 002e 14BF     		ite	ne
 2289 0030 0220     		movne	r0, #2
 2290 0032 0020     		moveq	r0, #0
 2291 0034 7047     		bx	lr
 2292              	.L180:
 788:../Drivers/STM32_USB-FS-Device_Driver/src/usb_regs.c ****     return(EP_DBUF_OUT);
 2293              		.loc 1 788 11 view .LVU384
 2294 0036 0120     		movs	r0, #1
 793:../Drivers/STM32_USB-FS-Device_Driver/src/usb_regs.c **** }
 2295              		.loc 1 793 1 view .LVU385
 2296 0038 7047     		bx	lr
 2297              	.L183:
 2298 003a 00BF     		.align	2
 2299              	.L182:
 2300 003c 505C0040 		.word	1073765456
 2301 0040 06300020 		.word	536883206
 2302 0044 02300020 		.word	536883202
 2303              		.cfi_endproc
 2304              	.LFE84:
 2306              		.section	.text.FreeUserBuffer,"ax",%progbits
 2307              		.align	1
 2308              		.global	FreeUserBuffer
ARM GAS  /tmp/ccTwDDMa.s 			page 54


 2309              		.syntax unified
 2310              		.thumb
 2311              		.thumb_func
 2312              		.fpu softvfp
 2314              	FreeUserBuffer:
 2315              	.LVL175:
 2316              	.LFB85:
 794:../Drivers/STM32_USB-FS-Device_Driver/src/usb_regs.c **** 
 795:../Drivers/STM32_USB-FS-Device_Driver/src/usb_regs.c **** /**
 796:../Drivers/STM32_USB-FS-Device_Driver/src/usb_regs.c ****   * Function Name  : FreeUserBuffer
 797:../Drivers/STM32_USB-FS-Device_Driver/src/usb_regs.c ****   * Description    : free buffer used from the application realizing it to the line
 798:../Drivers/STM32_USB-FS-Device_Driver/src/usb_regs.c ****                    toggles bit SW_BUF in the double buffered endpoint register
 799:../Drivers/STM32_USB-FS-Device_Driver/src/usb_regs.c ****   * Input          : bEpNum, bDir
 800:../Drivers/STM32_USB-FS-Device_Driver/src/usb_regs.c ****   * Output         : None.
 801:../Drivers/STM32_USB-FS-Device_Driver/src/usb_regs.c ****   * Return         : None.
 802:../Drivers/STM32_USB-FS-Device_Driver/src/usb_regs.c ****   **/
 803:../Drivers/STM32_USB-FS-Device_Driver/src/usb_regs.c **** void FreeUserBuffer(uint8_t bEpNum, uint8_t bDir)
 804:../Drivers/STM32_USB-FS-Device_Driver/src/usb_regs.c **** {
 2317              		.loc 1 804 1 is_stmt 1 view -0
 2318              		.cfi_startproc
 2319              		@ args = 0, pretend = 0, frame = 0
 2320              		@ frame_needed = 0, uses_anonymous_args = 0
 2321              		@ link register save eliminated.
 805:../Drivers/STM32_USB-FS-Device_Driver/src/usb_regs.c ****   if (bDir == EP_DBUF_OUT)
 2322              		.loc 1 805 3 view .LVU387
 2323              		.loc 1 805 6 is_stmt 0 view .LVU388
 2324 0000 0129     		cmp	r1, #1
 2325 0002 0FD1     		bne	.L185
 806:../Drivers/STM32_USB-FS-Device_Driver/src/usb_regs.c ****   { /* OUT double buffered endpoint */
 807:../Drivers/STM32_USB-FS-Device_Driver/src/usb_regs.c ****     _ToggleDTOG_TX(bEpNum);
 2326              		.loc 1 807 5 is_stmt 1 view .LVU389
 2327 0004 8000     		lsls	r0, r0, #2
 2328              	.LVL176:
 2329              		.loc 1 807 5 is_stmt 0 view .LVU390
 2330 0006 00F18040 		add	r0, r0, #1073741824
 2331 000a 00F5B840 		add	r0, r0, #23552
 2332 000e 0368     		ldr	r3, [r0]
 2333 0010 23F0F003 		bic	r3, r3, #240
 2334 0014 1B05     		lsls	r3, r3, #20
 2335 0016 1B0D     		lsrs	r3, r3, #20
 2336 0018 43F40043 		orr	r3, r3, #32768
 2337 001c 43F0C003 		orr	r3, r3, #192
 2338              	.L187:
 808:../Drivers/STM32_USB-FS-Device_Driver/src/usb_regs.c ****   }
 809:../Drivers/STM32_USB-FS-Device_Driver/src/usb_regs.c ****   else if (bDir == EP_DBUF_IN)
 810:../Drivers/STM32_USB-FS-Device_Driver/src/usb_regs.c ****   { /* IN double buffered endpoint */
 811:../Drivers/STM32_USB-FS-Device_Driver/src/usb_regs.c ****     _ToggleDTOG_RX(bEpNum);
 2339              		.loc 1 811 5 view .LVU391
 2340 0020 0360     		str	r3, [r0]
 2341              	.L184:
 812:../Drivers/STM32_USB-FS-Device_Driver/src/usb_regs.c ****   }
 813:../Drivers/STM32_USB-FS-Device_Driver/src/usb_regs.c **** }
 2342              		.loc 1 813 1 view .LVU392
 2343 0022 7047     		bx	lr
 2344              	.LVL177:
 2345              	.L185:
 809:../Drivers/STM32_USB-FS-Device_Driver/src/usb_regs.c ****   { /* IN double buffered endpoint */
ARM GAS  /tmp/ccTwDDMa.s 			page 55


 2346              		.loc 1 809 8 is_stmt 1 view .LVU393
 809:../Drivers/STM32_USB-FS-Device_Driver/src/usb_regs.c ****   { /* IN double buffered endpoint */
 2347              		.loc 1 809 11 is_stmt 0 view .LVU394
 2348 0024 0229     		cmp	r1, #2
 2349 0026 FCD1     		bne	.L184
 811:../Drivers/STM32_USB-FS-Device_Driver/src/usb_regs.c ****   }
 2350              		.loc 1 811 5 is_stmt 1 view .LVU395
 2351 0028 8000     		lsls	r0, r0, #2
 2352              	.LVL178:
 811:../Drivers/STM32_USB-FS-Device_Driver/src/usb_regs.c ****   }
 2353              		.loc 1 811 5 is_stmt 0 view .LVU396
 2354 002a 00F18040 		add	r0, r0, #1073741824
 2355 002e 00F5B840 		add	r0, r0, #23552
 2356 0032 0368     		ldr	r3, [r0]
 2357 0034 23F0F003 		bic	r3, r3, #240
 2358 0038 1B05     		lsls	r3, r3, #20
 2359 003a 1B0D     		lsrs	r3, r3, #20
 2360 003c 43F44043 		orr	r3, r3, #49152
 2361 0040 43F08003 		orr	r3, r3, #128
 2362 0044 ECE7     		b	.L187
 2363              		.cfi_endproc
 2364              	.LFE85:
 2366              		.section	.text.ToWord,"ax",%progbits
 2367              		.align	1
 2368              		.global	ToWord
 2369              		.syntax unified
 2370              		.thumb
 2371              		.thumb_func
 2372              		.fpu softvfp
 2374              	ToWord:
 2375              	.LVL179:
 2376              	.LFB86:
 814:../Drivers/STM32_USB-FS-Device_Driver/src/usb_regs.c **** 
 815:../Drivers/STM32_USB-FS-Device_Driver/src/usb_regs.c **** /**
 816:../Drivers/STM32_USB-FS-Device_Driver/src/usb_regs.c ****   * Function Name  : ToWord
 817:../Drivers/STM32_USB-FS-Device_Driver/src/usb_regs.c ****   * Description    : merge two byte in a word.
 818:../Drivers/STM32_USB-FS-Device_Driver/src/usb_regs.c ****   * Input          : bh: byte high, bl: bytes low.
 819:../Drivers/STM32_USB-FS-Device_Driver/src/usb_regs.c ****   * Output         : None.
 820:../Drivers/STM32_USB-FS-Device_Driver/src/usb_regs.c ****   * Return         : resulted word.
 821:../Drivers/STM32_USB-FS-Device_Driver/src/usb_regs.c ****   **/
 822:../Drivers/STM32_USB-FS-Device_Driver/src/usb_regs.c **** uint16_t ToWord(uint8_t bh, uint8_t bl)
 823:../Drivers/STM32_USB-FS-Device_Driver/src/usb_regs.c **** {
 2377              		.loc 1 823 1 is_stmt 1 view -0
 2378              		.cfi_startproc
 2379              		@ args = 0, pretend = 0, frame = 0
 2380              		@ frame_needed = 0, uses_anonymous_args = 0
 2381              		@ link register save eliminated.
 824:../Drivers/STM32_USB-FS-Device_Driver/src/usb_regs.c ****   uint16_t wRet;
 2382              		.loc 1 824 3 view .LVU398
 825:../Drivers/STM32_USB-FS-Device_Driver/src/usb_regs.c ****   wRet = (uint16_t)bl | ((uint16_t)bh << 8);
 2383              		.loc 1 825 3 view .LVU399
 826:../Drivers/STM32_USB-FS-Device_Driver/src/usb_regs.c ****   return(wRet);
 2384              		.loc 1 826 3 view .LVU400
 827:../Drivers/STM32_USB-FS-Device_Driver/src/usb_regs.c **** }
 2385              		.loc 1 827 1 is_stmt 0 view .LVU401
 2386 0000 41EA0020 		orr	r0, r1, r0, lsl #8
 2387              	.LVL180:
ARM GAS  /tmp/ccTwDDMa.s 			page 56


 2388              		.loc 1 827 1 view .LVU402
 2389 0004 7047     		bx	lr
 2390              		.cfi_endproc
 2391              	.LFE86:
 2393              		.section	.text.ByteSwap,"ax",%progbits
 2394              		.align	1
 2395              		.global	ByteSwap
 2396              		.syntax unified
 2397              		.thumb
 2398              		.thumb_func
 2399              		.fpu softvfp
 2401              	ByteSwap:
 2402              	.LVL181:
 2403              	.LFB87:
 828:../Drivers/STM32_USB-FS-Device_Driver/src/usb_regs.c **** 
 829:../Drivers/STM32_USB-FS-Device_Driver/src/usb_regs.c **** /**
 830:../Drivers/STM32_USB-FS-Device_Driver/src/usb_regs.c ****   * Function Name  : ByteSwap
 831:../Drivers/STM32_USB-FS-Device_Driver/src/usb_regs.c ****   * Description    : Swap two byte in a word.
 832:../Drivers/STM32_USB-FS-Device_Driver/src/usb_regs.c ****   * Input          : wSwW: word to Swap.
 833:../Drivers/STM32_USB-FS-Device_Driver/src/usb_regs.c ****   * Output         : None.
 834:../Drivers/STM32_USB-FS-Device_Driver/src/usb_regs.c ****   * Return         : resulted word.
 835:../Drivers/STM32_USB-FS-Device_Driver/src/usb_regs.c ****   **/
 836:../Drivers/STM32_USB-FS-Device_Driver/src/usb_regs.c **** uint16_t ByteSwap(uint16_t wSwW)
 837:../Drivers/STM32_USB-FS-Device_Driver/src/usb_regs.c **** {
 2404              		.loc 1 837 1 is_stmt 1 view -0
 2405              		.cfi_startproc
 2406              		@ args = 0, pretend = 0, frame = 0
 2407              		@ frame_needed = 0, uses_anonymous_args = 0
 2408              		@ link register save eliminated.
 838:../Drivers/STM32_USB-FS-Device_Driver/src/usb_regs.c ****   uint8_t bTemp;
 2409              		.loc 1 838 3 view .LVU404
 839:../Drivers/STM32_USB-FS-Device_Driver/src/usb_regs.c ****   uint16_t wRet;
 2410              		.loc 1 839 3 view .LVU405
 840:../Drivers/STM32_USB-FS-Device_Driver/src/usb_regs.c ****   bTemp = (uint8_t)(wSwW & 0xff);
 2411              		.loc 1 840 3 view .LVU406
 841:../Drivers/STM32_USB-FS-Device_Driver/src/usb_regs.c ****   wRet =  (wSwW >> 8) | ((uint16_t)bTemp << 8);
 2412              		.loc 1 841 3 view .LVU407
 842:../Drivers/STM32_USB-FS-Device_Driver/src/usb_regs.c ****   return(wRet);
 2413              		.loc 1 842 3 view .LVU408
 841:../Drivers/STM32_USB-FS-Device_Driver/src/usb_regs.c ****   wRet =  (wSwW >> 8) | ((uint16_t)bTemp << 8);
 2414              		.loc 1 841 26 is_stmt 0 view .LVU409
 2415 0000 C3B2     		uxtb	r3, r0
 841:../Drivers/STM32_USB-FS-Device_Driver/src/usb_regs.c ****   wRet =  (wSwW >> 8) | ((uint16_t)bTemp << 8);
 2416              		.loc 1 841 23 view .LVU410
 2417 0002 000A     		lsrs	r0, r0, #8
 2418              	.LVL182:
 843:../Drivers/STM32_USB-FS-Device_Driver/src/usb_regs.c **** }
 2419              		.loc 1 843 1 view .LVU411
 2420 0004 40EA0320 		orr	r0, r0, r3, lsl #8
 2421 0008 7047     		bx	lr
 2422              		.cfi_endproc
 2423              	.LFE87:
 2425              		.text
 2426              	.Letext0:
 2427              		.file 2 "/usr/lib/gcc/arm-none-eabi/9.2.1/include/stdint.h"
 2428              		.file 3 "../Drivers/CMSIS/CM3/CoreSupport/core_cm3.h"
 2429              		.file 4 "../Drivers/CMSIS/CM3/DeviceSupport/ST/STM32F10x/system_stm32f10x.h"
ARM GAS  /tmp/ccTwDDMa.s 			page 57


 2430              		.file 5 "../Drivers/STM32_USB-FS-Device_Driver/inc/usb_type.h"
 2431              		.file 6 "../bootloader/Inc/usb_hw.h"
 2432              		.file 7 "../Drivers/STM32_USB-FS-Device_Driver/inc/usb_regs.h"
 2433              		.file 8 "../Drivers/STM32_USB-FS-Device_Driver/inc/usb_core.h"
 2434              		.file 9 "../Drivers/STM32_USB-FS-Device_Driver/inc/usb_init.h"
 2435              		.file 10 "../Drivers/STM32_USB-FS-Device_Driver/inc/usb_lib.h"
ARM GAS  /tmp/ccTwDDMa.s 			page 58

